 BandTestD

 Timestamp is 67cb9fe3 (Sat Mar  8 01:39:47 2025)

 Preferred load address is 10000000

 Start         Length     Name                   Class
 0001:00000000 000a5c70H .text$mn                CODE
 0001:000a5c70 00000dadH .text$x                 CODE
 0002:00000000 000001d4H .idata$5                DATA
 0002:000001d4 0000000cH .00cfg                  DATA
 0002:000001e0 00000004H .CRT$XCA                DATA
 0002:000001e4 00000004H .CRT$XCZ                DATA
 0002:000001e8 00000004H .CRT$XIA                DATA
 0002:000001ec 0000000cH .CRT$XIC                DATA
 0002:000001f8 00000004H .CRT$XIZ                DATA
 0002:000001fc 00000004H .CRT$XPA                DATA
 0002:00000200 00000008H .CRT$XPX                DATA
 0002:00000208 00000004H .CRT$XPXA               DATA
 0002:0000020c 00000004H .CRT$XPZ                DATA
 0002:00000210 00000004H .CRT$XTA                DATA
 0002:00000214 0000000cH .CRT$XTZ                DATA
 0002:00000218 00000000H .gfids$y                DATA
 0002:00000220 00023720H .rdata                  DATA
 0002:00023940 00000040H .rdata$CastGuardVftablesA DATA
 0002:00023980 00000040H .rdata$CastGuardVftablesC DATA
 0002:000239c0 000002a0H .rdata$r                DATA
 0002:00023c60 000001c0H .rdata$sxdata           DATA
 0002:00023e20 0000012cH .rdata$voltmd           DATA
 0002:00023f4c 00000384H .rdata$zzzdbg           DATA
 0002:000242d0 00000004H .rtc$IAA                DATA
 0002:000242d4 00000004H .rtc$IMZ                DATA
 0002:000242d8 00000004H .rtc$IZZ                DATA
 0002:000242dc 00000004H .rtc$TAA                DATA
 0002:000242e0 00000004H .rtc$TMZ                DATA
 0002:000242e4 00000004H .rtc$TZZ                DATA
 0002:000242e8 000019e8H .xdata$x                DATA
 0002:00025cd0 00000084H .edata                  DATA
 0002:00025d54 00000050H .idata$2                DATA
 0002:00025da4 00000014H .idata$3                DATA
 0002:00025db8 000001d4H .idata$4                DATA
 0002:00025f8c 00000754H .idata$6                DATA
 0003:00000000 000012e0H .data                   DATA
 0003:000012e0 00000058H .data$r                 DATA
 0003:00001338 000000b8H .data$rs                DATA
 0003:000013f0 00002424H .bss                    DATA
 0004:00000000 000000a0H .rsrc$01                DATA
 0004:000000a0 000005f0H .rsrc$02                DATA

  Address         Publics by Value              Rva+Base       Lib:Object

 0000:00000000       ___AbsoluteZero            00000000     <absolute>
 0000:00000000       ___arm64x_extra_rfe_table  00000000     <absolute>
 0000:00000000       ___arm64x_extra_rfe_table_size 00000000     <absolute>
 0000:00000000       ___arm64x_native_entrypoint 00000000     <absolute>
 0000:00000000       ___arm64x_redirection_metadata 00000000     <absolute>
 0000:00000000       ___arm64x_redirection_metadata_count 00000000     <absolute>
 0000:00000000       ___dynamic_value_reloc_table 00000000     <absolute>
 0000:00000000       ___enclave_config          00000000     <absolute>
 0000:00000000       ___guard_check_icall_a64n_fptr 00000000     <absolute>
 0000:00000000       ___guard_eh_cont_count     00000000     <absolute>
 0000:00000000       ___guard_eh_cont_table     00000000     <absolute>
 0000:00000000       ___guard_fids_count        00000000     <absolute>
 0000:00000000       ___guard_fids_table        00000000     <absolute>
 0000:00000000       ___guard_iat_count         00000000     <absolute>
 0000:00000000       ___guard_iat_table         00000000     <absolute>
 0000:00000000       ___guard_longjmp_count     00000000     <absolute>
 0000:00000000       ___guard_longjmp_table     00000000     <absolute>
 0000:00000000       ___hybrid_auxiliary_delayload_iat 00000000     <absolute>
 0000:00000000       ___hybrid_auxiliary_delayload_iat_copy 00000000     <absolute>
 0000:00000000       ___hybrid_auxiliary_iat    00000000     <absolute>
 0000:00000000       ___hybrid_auxiliary_iat_copy 00000000     <absolute>
 0000:00000000       ___hybrid_code_map         00000000     <absolute>
 0000:00000000       ___hybrid_code_map_count   00000000     <absolute>
 0000:00000000       ___hybrid_image_info_bitfield 00000000     <absolute>
 0000:00000000       ___x64_code_ranges_to_entry_points 00000000     <absolute>
 0000:00000000       ___x64_code_ranges_to_entry_points_count 00000000     <absolute>
 0000:00000000       __except_list              00000000     <absolute>
 0000:00000070       ___safe_se_handler_count   00000070     <absolute>
 0000:00000100       ___guard_flags             00000100     <absolute>
 0000:00000000       ___ImageBase               10000000     <linker-defined>
 0001:00000000       ?Addr_As_String2@@YAPADPAUsockaddr_in@@@Z 10001000 f   BandTest.obj
 0001:00000070       ?Addr_As_String@@YAPADPAE@Z 10001070 f   BandTest.obj
 0001:00000400       ?DebugString@@YAXPBDZZ     10001400 f   BandTest.obj
 0001:00000650       ?Detect_Bandwidth@@YAKKKHAAHAAKKPAUtBandtestSettingsStruct@@PAD@Z 10001650 f   BandTest.obj
 0001:000018c0       ?Ping_Compare@@YAHPBX0@Z   100028c0 f   BandTest.obj
 0001:000029e0       ?Sort_Pings@@YAXHPAK@Z     100039e0 f   BandTest.obj
 0001:00004100       ?abs@@YAJJ@Z               10005100 f i BandTest.obj
 0001:00004140       _DllMain@12                10005140 f   BandTest.obj
 0001:00004160       ___local_stdio_printf_options 10005160 f i BandTest.obj
 0001:00004180       __cprintf                  10005180 f i BandTest.obj
 0001:000041e0       __vcprintf_l               100051e0 f i BandTest.obj
 0001:00004230       __vsnprintf_l              10005230 f i BandTest.obj
 0001:000042b0       __vsprintf_l               100052b0 f i BandTest.obj
 0001:00004300       _sprintf                   10005300 f i BandTest.obj
 0001:00004360       _vsprintf                  10005360 f i BandTest.obj
 0001:000043a3       _bind@12                   100053a3 f   ws2_32:WS2_32.dll
 0001:000043a9       _closesocket@4             100053a9 f   ws2_32:WS2_32.dll
 0001:000043af       _ioctlsocket@12            100053af f   ws2_32:WS2_32.dll
 0001:000043b5       _getsockopt@20             100053b5 f   ws2_32:WS2_32.dll
 0001:000043bb       _htonl@4                   100053bb f   ws2_32:WS2_32.dll
 0001:000043c1       _htons@4                   100053c1 f   ws2_32:WS2_32.dll
 0001:000043c7       _ntohl@4                   100053c7 f   ws2_32:WS2_32.dll
 0001:000043cd       _recvfrom@24               100053cd f   ws2_32:WS2_32.dll
 0001:000043d3       _sendto@24                 100053d3 f   ws2_32:WS2_32.dll
 0001:000043d9       _setsockopt@20             100053d9 f   ws2_32:WS2_32.dll
 0001:000043df       _socket@12                 100053df f   ws2_32:WS2_32.dll
 0001:000043e5       _WSAStartup@8              100053e5 f   ws2_32:WS2_32.dll
 0001:000043eb       _WSACleanup@0              100053eb f   ws2_32:WS2_32.dll
 0001:000043f1       _WSAGetLastError@0         100053f1 f   ws2_32:WS2_32.dll
 0001:000043f7       _WSASocketA@24             100053f7 f   ws2_32:WS2_32.dll
 0001:000043fd       _timeGetTime@0             100053fd f   winmm:WINMM.dll
 0001:00004403       _timeBeginPeriod@4         10005403 f   winmm:WINMM.dll
 0001:00004409       _timeEndPeriod@4           10005409 f   winmm:WINMM.dll
 0001:0000440f       _CreateFileA@28            1000540f f   kernel32:KERNEL32.dll
 0001:00004415       _SetFilePointer@16         10005415 f   kernel32:KERNEL32.dll
 0001:0000441b       _WriteFile@20              1000541b f   kernel32:KERNEL32.dll
 0001:00004421       _OutputDebugStringA@4      10005421 f   kernel32:KERNEL32.dll
 0001:00004427       _CloseHandle@4             10005427 f   kernel32:KERNEL32.dll
 0001:0000442d       _GetLastError@0            1000542d f   kernel32:KERNEL32.dll
 0001:00004433       _Sleep@4                   10005433 f   kernel32:KERNEL32.dll
 0001:00004439       _GetCurrentProcessId@0     10005439 f   kernel32:KERNEL32.dll
 0001:0000443f       _GetModuleFileNameA@12     1000543f f   kernel32:KERNEL32.dll
 0001:00004445       _GetModuleHandleA@4        10005445 f   kernel32:KERNEL32.dll
 0001:0000444b       _RegCloseKey@4             1000544b f   advapi32:ADVAPI32.dll
 0001:00004451       _RegCreateKeyExA@36        10005451 f   advapi32:ADVAPI32.dll
 0001:00004457       _RegQueryValueExA@24       10005457 f   advapi32:ADVAPI32.dll
 0001:0000445d       _RegSetValueExA@24         1000545d f   advapi32:ADVAPI32.dll
 0001:00004470       @_RTC_AllocaHelper@12      10005470 f   LIBCMTD:stack.obj
 0001:000044b0       @_RTC_CheckStackVars2@12   100054b0 f   LIBCMTD:stack.obj
 0001:00004590       @_RTC_CheckStackVars@8     10005590 f   LIBCMTD:stack.obj
 0001:000045f0       __RTC_CheckEsp             100055f0 f   LIBCMTD:stack.obj
 0001:00004620       @__security_check_cookie@4 10005620 f   LIBCMTD:secchk.obj
 0001:00004630       __CRT_RTC_INIT             10005630 f   LIBCMTD:init.obj
 0001:00004640       __CRT_RTC_INITW            10005640 f   LIBCMTD:init.obj
 0001:00004650       __RTC_InitBase             10005650 f   LIBCMTD:init.obj
 0001:00004680       __RTC_Shutdown             10005680 f   LIBCMTD:init.obj
 0001:000046a0       __alloca_probe_16          100056a0 f   LIBCMTD:alloca16.obj
 0001:000046b6       __alloca_probe_8           100056b6     LIBCMTD:alloca16.obj
 0001:000046d0       __alloca_probe             100056d0 f   LIBCMTD:chkstk.obj
 0001:000046d0       __chkstk                   100056d0 f   LIBCMTD:chkstk.obj
 0001:00004700       __ftoui3                   10005700 f   LIBCMTD:ftol3.obj
 0001:00004750       __ftoul3                   10005750 f   LIBCMTD:ftol3.obj
 0001:000047c0       __ftoul3_legacy            100057c0 f   LIBCMTD:ftol3.obj
 0001:000047f0       __ftol3                    100057f0 f   LIBCMTD:ftol3.obj
 0001:00004860       __dtoui3                   10005860 f   LIBCMTD:ftol3.obj
 0001:000048e0       __dtoul3                   100058e0 f   LIBCMTD:ftol3.obj
 0001:00004990       __dtoul3_legacy            10005990 f   LIBCMTD:ftol3.obj
 0001:000049c0       __dtol3                    100059c0 f   LIBCMTD:ftol3.obj
 0001:00004a70       __ultod3                   10005a70 f   LIBCMTD:ftol3.obj
 0001:00004ac0       __ltod3                    10005ac0 f   LIBCMTD:ftol3.obj
 0001:00004b10       __ultof3                   10005b10 f   LIBCMTD:ftol3.obj
 0001:00004b90       __ltof3                    10005b90 f   LIBCMTD:ftol3.obj
 0001:000050b0       __CRT_INIT@12              100060b0 f   LIBCMTD:dll_dllmain.obj
 0001:000050d0       __DllMainCRTStartup@12     100060d0 f   LIBCMTD:dll_dllmain.obj
 0001:00005190       ?_RTC_AllocaFailure@@YAXPAXPAU_RTC_ALLOCA_NODE@@H@Z 10006190 f   LIBCMTD:error.obj
 0001:00005280       ?_RTC_Failure@@YAXPAXH@Z   10006280 f   LIBCMTD:error.obj
 0001:000052d0       ?_RTC_StackFailure@@YAXPAXPBD@Z 100062d0 f   LIBCMTD:error.obj
 0001:000056c0       __RTC_UninitUse            100066c0 f   LIBCMTD:error.obj
 0001:00005770       __vsprintf_s_l             10006770 f i LIBCMTD:error.obj
 0001:000057a0       _sprintf_s                 100067a0 f i LIBCMTD:error.obj
 0001:000057c0       ___raise_securityfailure   100067c0 f   LIBCMTD:gs_report.obj
 0001:000057f0       ___report_gsfailure        100067f0 f   LIBCMTD:gs_report.obj
 0001:00005900       ___report_rangecheckfailure 10006900 f   LIBCMTD:gs_report.obj
 0001:00005910       ___report_securityfailure  10006910 f   LIBCMTD:gs_report.obj
 0001:000059f0       ___report_securityfailureEx 100069f0 f   LIBCMTD:gs_report.obj
 0001:00005b20       ?_RTC_GetErrorFunc@@YAP6AHHPBDH00ZZPBX@Z 10006b20 f   LIBCMTD:userapi.obj
 0001:00005b30       ?_RTC_GetErrorFuncW@@YAP6AHHPB_WH00ZZPBX@Z 10006b30 f   LIBCMTD:userapi.obj
 0001:00005b40       __RTC_GetErrDesc           10006b40 f   LIBCMTD:userapi.obj
 0001:00005b60       __RTC_NumErrors            10006b60 f   LIBCMTD:userapi.obj
 0001:00005b70       __RTC_SetErrorFunc         10006b70 f   LIBCMTD:userapi.obj
 0001:00005b90       __RTC_SetErrorFuncW        10006b90 f   LIBCMTD:userapi.obj
 0001:00005bb0       __RTC_SetErrorType         10006bb0 f   LIBCMTD:userapi.obj
 0001:00005bf0       ___isa_available_init      10006bf0 f   LIBCMTD:cpu_disp.obj
 0001:000060f0       ___security_init_cookie    100070f0 f   LIBCMTD:gs_support.obj
 0001:00006170       ?__scrt_initialize_type_info@@YAXXZ 10007170 f   LIBCMTD:tncleanup.obj
 0001:00006190       ?__scrt_uninitialize_type_info@@YAXXZ 10007190 f   LIBCMTD:tncleanup.obj
 0001:000061b0       ___local_stdio_scanf_options 100071b0 f i LIBCMTD:default_local_stdio_options.obj
 0001:000061c0       ___scrt_initialize_default_local_stdio_options 100071c0 f   LIBCMTD:default_local_stdio_options.obj
 0001:00006200       ?configure_argv@__scrt_narrow_argv_policy@@SAHXZ 10007200 f i LIBCMTD:utility.obj
 0001:000062b0       ?initialize_environment@__scrt_narrow_environment_policy@@SAHXZ 100072b0 f i LIBCMTD:utility.obj
 0001:00006330       _NtCurrentTeb              10007330 f i LIBCMTD:utility.obj
 0001:00006340       ___scrt_acquire_startup_lock 10007340 f   LIBCMTD:utility.obj
 0001:00006390       ___scrt_dllmain_after_initialize_c 10007390 f   LIBCMTD:utility.obj
 0001:000063c0       ___scrt_dllmain_before_initialize_c 100073c0 f   LIBCMTD:utility.obj
 0001:000063e0       ___scrt_dllmain_crt_thread_attach 100073e0 f   LIBCMTD:utility.obj
 0001:00006410       ___scrt_dllmain_crt_thread_detach 10007410 f   LIBCMTD:utility.obj
 0001:00006430       ___scrt_dllmain_exception_filter 10007430 f   LIBCMTD:utility.obj
 0001:00006480       ___scrt_dllmain_uninitialize_c 10007480 f   LIBCMTD:utility.obj
 0001:000064b0       ___scrt_dllmain_uninitialize_critical 100074b0 f   LIBCMTD:utility.obj
 0001:000064d0       ___scrt_initialize_crt     100074d0 f   LIBCMTD:utility.obj
 0001:00006520       ___scrt_initialize_onexit_tables 10007520 f   LIBCMTD:utility.obj
 0001:00006600       ___scrt_is_nonwritable_in_current_image 10007600 f   LIBCMTD:utility.obj
 0001:00006730       ___scrt_release_startup_lock 10007730 f   LIBCMTD:utility.obj
 0001:00006760       ___scrt_uninitialize_crt   10007760 f   LIBCMTD:utility.obj
 0001:000067a0       __onexit                   100077a0 f   LIBCMTD:utility.obj
 0001:00006810       _at_quick_exit             10007810 f   LIBCMTD:utility.obj
 0001:00006850       _atexit                    10007850 f   LIBCMTD:utility.obj
 0001:00006880       ___scrt_get_dyn_tls_init_callback 10007880 f   LIBCMTD:dyn_tls_init.obj
 0001:00006890       ___scrt_fastfail           10007890 f   LIBCMTD:utility_desktop.obj
 0001:000069d0       ___scrt_get_show_window_mode 100079d0 f   LIBCMTD:utility_desktop.obj
 0001:00006a10       ___scrt_initialize_mta     10007a10 f   LIBCMTD:utility_desktop.obj
 0001:00006a20       ___scrt_initialize_winrt   10007a20 f   LIBCMTD:utility_desktop.obj
 0001:00006a30       ___scrt_is_managed_app     10007a30 f   LIBCMTD:utility_desktop.obj
 0001:00006ac0       ___scrt_set_unhandled_exception_filter 10007ac0 f   LIBCMTD:utility_desktop.obj
 0001:00006ae0       ___scrt_exe_initialize_mta 10007ae0 f   LIBCMTD:utility_desktop.obj
 0001:00006ae0       ___scrt_stub_for_initialize_mta 10007ae0 f   LIBCMTD:utility_desktop.obj
 0001:00006af0       ___scrt_unhandled_exception_filter@4 10007af0 f   LIBCMTD:utility_desktop.obj
 0001:00006b70       __crt_debugger_hook        10007b70 f   LIBCMTD:utility_desktop.obj
 0001:00006b80       __RTC_Initialize           10007b80 f   LIBCMTD:initsect.obj
 0001:00006bb0       __RTC_Terminate            10007bb0 f   LIBCMTD:initsect.obj
 0001:00006be0       @_guard_check_icall_nop@4  10007be0 f i LIBCMTD:guard_support.obj
 0001:00006bf0       _ReadNoFence               10007bf0 f i LIBCMTD:guard_support.obj
 0001:00006c10       _ReadPointerNoFence        10007c10 f i LIBCMTD:guard_support.obj
 0001:00006c30       __InlineInterlockedExchangePointer 10007c30 f i LIBCMTD:guard_support.obj
 0001:00006c40       ___castguard_check_failure_debugbreak 10007c40 f i LIBCMTD:guard_support.obj
 0001:00006c60       ___castguard_check_failure_fastfail 10007c60 f i LIBCMTD:guard_support.obj
 0001:00006c80       ___castguard_check_failure_nop 10007c80 f i LIBCMTD:guard_support.obj
 0001:00006c90       ___castguard_check_failure_os_handled 10007c90 f i LIBCMTD:guard_support.obj
 0001:00006cf0       ___castguard_check_failure_user_handled 10007cf0 f i LIBCMTD:guard_support.obj
 0001:00006da0       ___castguard_set_user_handler 10007da0 f i LIBCMTD:guard_support.obj
 0001:00006dc0       ___castguard_slow_path_check_debugbreak 10007dc0 f i LIBCMTD:guard_support.obj
 0001:00006df0       ___castguard_slow_path_check_fastfail 10007df0 f i LIBCMTD:guard_support.obj
 0001:00006e30       ___castguard_slow_path_check_nop 10007e30 f i LIBCMTD:guard_support.obj
 0001:00006e40       ___castguard_slow_path_check_os_handled 10007e40 f i LIBCMTD:guard_support.obj
 0001:00006e80       ___castguard_slow_path_check_user_handled 10007e80 f i LIBCMTD:guard_support.obj
 0001:00006f00       __guard_icall_checks_enforced 10007f00 f i LIBCMTD:guard_support.obj
 0001:00007380       ?_RTC_GetSrcLine@@YAHPAEPA_WKPAH1K@Z 10008380 f   LIBCMTD:pdblkup.obj
 0001:00007700       __except_handler4_noexcept 10008700 f   LIBCMTD:chandler4_noexcept.obj
 0001:00007760       __get_startup_argv_mode    10008760 f   LIBCMTD:argv_mode.obj
 0001:00007770       ___scrt_is_ucrt_dll_in_use 10008770 f   LIBCMTD:ucrt_detection.obj
 0001:000077a0       _memcpy                    100087a0 f   libvcruntimed:memcpy.obj
 0001:00007d20       _memmove                   10008d20 f   libvcruntimed:memmove.obj
 0001:00008300       __except_handler4          10009300 f   libvcruntimed:chandler4.obj
 0001:00008530       ??$?RD@__crt_internal_free_policy@@QBEXQBD@Z 10009530 f i libvcruntimed:std_type_info.obj
 0001:00008550       ??$?RX@__crt_internal_free_policy@@QBEXQBX@Z 10009550 f i libvcruntimed:std_type_info.obj
 0001:00008570       ??$__crt_interlocked_compare_exchange_pointer@$$CBDPAD$$T@@YAPBDPDSBDQAD$$T@Z 10009570 f i libvcruntimed:std_type_info.obj
 0001:00008590       ??$__crt_interlocked_read_pointer@$$CBD@@YAPBDPDSBD@Z 10009590 f i libvcruntimed:std_type_info.obj
 0001:000085b0       ??0?$__crt_unique_heap_ptr@DU__crt_internal_free_policy@@@@QAE@QAD@Z 100095b0 f i libvcruntimed:std_type_info.obj
 0001:000085d0       ??0?$__crt_unique_heap_ptr@XU__crt_internal_free_policy@@@@QAE@QAX@Z 100095d0 f i libvcruntimed:std_type_info.obj
 0001:000085f0       ??1?$__crt_unique_heap_ptr@DU__crt_internal_free_policy@@@@QAE@XZ 100095f0 f i libvcruntimed:std_type_info.obj
 0001:00008610       ??1?$__crt_unique_heap_ptr@XU__crt_internal_free_policy@@@@QAE@XZ 10009610 f i libvcruntimed:std_type_info.obj
 0001:00008630       ??B?$__crt_unique_heap_ptr@DU__crt_internal_free_policy@@@@QBE_NXZ 10009630 f i libvcruntimed:std_type_info.obj
 0001:00008650       ??B?$__crt_unique_heap_ptr@XU__crt_internal_free_policy@@@@QBE_NXZ 10009650 f i libvcruntimed:std_type_info.obj
 0001:000086c0       ?__crt_interlocked_read_32@@YAHPDH@Z 100096c0 f i libvcruntimed:std_type_info.obj
 0001:000086e0       ?detach@?$__crt_unique_heap_ptr@XU__crt_internal_free_policy@@@@QAEPAXXZ 100096e0 f i libvcruntimed:std_type_info.obj
 0001:00008710       ?get@?$__crt_unique_heap_ptr@DU__crt_internal_free_policy@@@@QBEPADXZ 10009710 f i libvcruntimed:std_type_info.obj
 0001:00008720       ?get@?$__crt_unique_heap_ptr@XU__crt_internal_free_policy@@@@QBEPAXXZ 10009720 f i libvcruntimed:std_type_info.obj
 0001:00008730       ?is_valid@?$__crt_unique_heap_ptr@DU__crt_internal_free_policy@@@@QBE_NXZ 10009730 f i libvcruntimed:std_type_info.obj
 0001:00008760       ?is_valid@?$__crt_unique_heap_ptr@XU__crt_internal_free_policy@@@@QBE_NXZ 10009760 f i libvcruntimed:std_type_info.obj
 0001:00008790       ?release@?$__crt_unique_heap_ptr@DU__crt_internal_free_policy@@@@QAEXXZ 10009790 f i libvcruntimed:std_type_info.obj
 0001:000087c0       ?release@?$__crt_unique_heap_ptr@XU__crt_internal_free_policy@@@@QAEXXZ 100097c0 f i libvcruntimed:std_type_info.obj
 0001:000087f0       ___std_type_info_compare   100097f0 f   libvcruntimed:std_type_info.obj
 0001:00008820       ___std_type_info_destroy_list 10009820 f   libvcruntimed:std_type_info.obj
 0001:00008860       ___std_type_info_hash      10009860 f   libvcruntimed:std_type_info.obj
 0001:000088c0       ___std_type_info_name      100098c0 f   libvcruntimed:std_type_info.obj
 0001:00008a90       ___vcrt_initialize         10009a90 f   libvcruntimed:initialization.obj
 0001:00008ad0       ___vcrt_thread_attach      10009ad0 f   libvcruntimed:initialization.obj
 0001:00008af0       ___vcrt_thread_detach      10009af0 f   libvcruntimed:initialization.obj
 0001:00008b00       ___vcrt_uninitialize       10009b00 f   libvcruntimed:initialization.obj
 0001:00008b20       ___vcrt_uninitialize_critical 10009b20 f   libvcruntimed:initialization.obj
 0001:00008b40       ___DestructExceptionObject 10009b40 f   libvcruntimed:ehhelpers.obj
 0001:00008c60       ?_CallMemberFunction0@@YGXQAX0@Z 10009c60 f i libvcruntimed:ehhelpers.obj
 0001:00008d00       ?raw_name@type_info@@QBEPBDXZ 10009d00 f i libvcruntimed:ehhelpers.obj
 0001:00008d20       __IsExceptionObjectToBeDestroyed 10009d20 f   libvcruntimed:ehhelpers.obj
 0001:00008d60       __SetWinRTOutOfMemoryExceptionCallback 10009d60 f   libvcruntimed:ehhelpers.obj
 0001:00008d70       ___AdjustPointer           10009d70 f   libvcruntimed:ehhelpers.obj
 0001:00008dc0       ___FrameUnwindFilter       10009dc0 f   libvcruntimed:ehhelpers.obj
 0001:00008e50       ___GetPlatformExceptionInfo 10009e50 f   libvcruntimed:ehhelpers.obj
 0001:00008ed0       ___current_exception       10009ed0 f   libvcruntimed:ehhelpers.obj
 0001:00008ee0       ___current_exception_context 10009ee0 f   libvcruntimed:ehhelpers.obj
 0001:00008ef0       ___processing_throw        10009ef0 f   libvcruntimed:ehhelpers.obj
 0001:00008f00       ___std_terminate           10009f00 f   libvcruntimed:ehhelpers.obj
 0001:00008f10       __is_exception_typeof      10009f10 f   libvcruntimed:ehhelpers.obj
 0001:00008ff0       _memset                    10009ff0 f   libvcruntimed:memset.obj
 0001:00009150       ___vcrt_GetModuleFileNameW 1000a150 f   libvcruntimed:winapi_thunks.obj
 0001:00009170       ___vcrt_GetModuleHandleW   1000a170 f   libvcruntimed:winapi_thunks.obj
 0001:00009180       ___vcrt_LoadLibraryExW     1000a180 f   libvcruntimed:winapi_thunks.obj
 0001:000091a0       __local_unwind4            1000a1a0 f   libvcruntimed:exsup4.obj
 0001:00009290       __seh_longjmp_unwind4@4    1000a290 f   libvcruntimed:exsup4.obj
 0001:000092c0       @_EH4_CallFilterFunc@8     1000a2c0 f   libvcruntimed:exsup4.obj
 0001:000092e0       @_EH4_TransferToHandler@8  1000a2e0 f   libvcruntimed:exsup4.obj
 0001:00009300       @_EH4_GlobalUnwind2@8      1000a300 f   libvcruntimed:exsup4.obj
 0001:00009320       @_EH4_LocalUnwind@16       1000a320 f   libvcruntimed:exsup4.obj
 0001:00009350       ___except_validate_context_record 1000a350 f   libvcruntimed:jbcxrval.obj
 0001:000093a0       ___except_validate_jump_buffer 1000a3a0 f   libvcruntimed:jbcxrval.obj
 0001:000093c0       ___except_validate_jump_buffer_common 1000a3c0 f i libvcruntimed:jbcxrval.obj
 0001:00009420       ??$?0$00@DName@@QAE@PBDU?$StringLifeSelector@$00@@@Z 1000a420 f i libvcruntimed:undname.obj
 0001:00009480       ??$?0$00@pcharNode@@QAE@PBDHU?$StringLifeSelector@$00@@@Z 1000a480 f i libvcruntimed:undname.obj
 0001:000094c0       ??$?0$01@DName@@QAE@PBDU?$StringLifeSelector@$01@@@Z 1000a4c0 f i libvcruntimed:undname.obj
 0001:00009520       ??$?0$01@pcharNode@@QAE@PBDHU?$StringLifeSelector@$01@@@Z 1000a520 f i libvcruntimed:undname.obj
 0001:000095a0       ??$?0$0A@@DName@@QAE@PBDU?$StringLifeSelector@$0A@@@@Z 1000a5a0 f i libvcruntimed:undname.obj
 0001:00009600       ??$?0$0A@@pcharNode@@QAE@PBDHU?$StringLifeSelector@$0A@@@@Z 1000a600 f i libvcruntimed:undname.obj
 0001:00009680       ??$?0_K$0A@@?$optional@_K@std@@QAE@$$QA_K@Z 1000a680 f i libvcruntimed:undname.obj
 0001:000096b0       ??$?0_K@?$_Optional_construct_base@_K@std@@QAE@Uin_place_t@1@$$QA_K@Z 1000a6b0 f i libvcruntimed:undname.obj
 0001:000096e0       ??$?0_K@?$_Optional_destruct_base@_K$00@std@@QAE@Uin_place_t@1@$$QA_K@Z 1000a6e0 f i libvcruntimed:undname.obj
 0001:00009710       ??$append@VDNameNode@@@DName@@AAEXPBVDNameNode@@@Z 1000a710 f i libvcruntimed:undname.obj
 0001:000097a0       ??$append@VDNameStatusNode@@@DName@@AAEXPBVDNameStatusNode@@@Z 1000a7a0 f i libvcruntimed:undname.obj
 0001:00009830       ??$append@VcharNode@@@DName@@AAEXPBVcharNode@@@Z 1000a830 f i libvcruntimed:undname.obj
 0001:000098c0       ??$append@VpDNameNode@@@DName@@AAEXPBVpDNameNode@@@Z 1000a8c0 f i libvcruntimed:undname.obj
 0001:00009950       ??$append@VpcharNode@@@DName@@AAEXPBVpcharNode@@@Z 1000a950 f i libvcruntimed:undname.obj
 0001:000099e0       ??$doPchar@$00@DName@@AAEXPBDH@Z 1000a9e0 f i libvcruntimed:undname.obj
 0001:00009af0       ??$doPchar@$01@DName@@AAEXPBDH@Z 1000aaf0 f i libvcruntimed:undname.obj
 0001:00009c00       ??$doPchar@$0A@@DName@@AAEXPBDH@Z 1000ac00 f i libvcruntimed:undname.obj
 0001:00009e30       ??0?$_Optional_construct_base@_K@std@@QAE@XZ 1000ae30 f i libvcruntimed:undname.obj
 0001:00009e50       ??0?$_Optional_destruct_base@_K$00@std@@QAE@XZ 1000ae50 f i libvcruntimed:undname.obj
 0001:00009e70       ??0?$optional@_K@std@@QAE@XZ 1000ae70 f i libvcruntimed:undname.obj
 0001:00009e90       ??0Block@_HeapManager@@QAE@XZ 1000ae90 f i libvcruntimed:undname.obj
 0001:00009eb0       ??0DName@@QAE@AAPBDD@Z     1000aeb0 f   libvcruntimed:undname.obj
 0001:0000a020       ??0DName@@QAE@ABUStringLiteral@@@Z 1000b020 f   libvcruntimed:undname.obj
 0001:0000a070       ??0DName@@QAE@ABV0@@Z      1000b070 f i libvcruntimed:undname.obj
 0001:0000a0a0       ??0DName@@QAE@D@Z          1000b0a0 f   libvcruntimed:undname.obj
 0001:0000a0e0       ??0DName@@QAE@PAV0@@Z      1000b0e0 f   libvcruntimed:undname.obj
 0001:0000a190       ??0DName@@QAE@W4DNameStatus@@@Z 1000b190 f   libvcruntimed:undname.obj
 0001:0000a230       ??0DName@@QAE@XZ           1000b230 f i libvcruntimed:undname.obj
 0001:0000a260       ??0DName@@QAE@_J@Z         1000b260 f   libvcruntimed:undname.obj
 0001:0000a350       ??0DName@@QAE@_K@Z         1000b350 f   libvcruntimed:undname.obj
 0001:0000a400       ??0DNameNode@@IAE@XZ       1000b400 f i libvcruntimed:undname.obj
 0001:0000a420       ??0Replicator@@QAE@XZ      1000b420 f i libvcruntimed:undname.obj
 0001:0000a480       ??0UnDecorator@@QAE@PBDP6APADJ@ZK@Z 1000b480 f i libvcruntimed:undname.obj
 0001:0000a500       ??0_Nontrivial_dummy_type@std@@QAE@XZ 1000b500 f i libvcruntimed:undname.obj
 0001:0000a510       ??0charNode@@QAE@D@Z       1000b510 f i libvcruntimed:undname.obj
 0001:0000a540       ??0pDNameNode@@QAE@PAVDName@@@Z 1000b540 f   libvcruntimed:undname.obj
 0001:0000a5a0       ??0pairNode@@QAE@PBVDNameNode@@0@Z 1000b5a0 f i libvcruntimed:undname.obj
 0001:0000a600       ??2@YAPAXIAAV_HeapManager@@H@Z 1000b600 f   libvcruntimed:undname.obj
 0001:0000a640       ??4DName@@QAEAAV0@ABUStringLiteral@@@Z 1000b640 f   libvcruntimed:undname.obj
 0001:0000a680       ??4DName@@QAEAAV0@ABV0@@Z  1000b680 f   libvcruntimed:undname.obj
 0001:0000a6b0       ??4DName@@QAEAAV0@D@Z      1000b6b0 f i libvcruntimed:undname.obj
 0001:0000a6e0       ??4DName@@QAEAAV0@PAV0@@Z  1000b6e0 f   libvcruntimed:undname.obj
 0001:0000a780       ??4DName@@QAEAAV0@W4DNameStatus@@@Z 1000b780 f   libvcruntimed:undname.obj
 0001:0000a800       ??AReplicator@@QBE?AVDName@@H@Z 1000b800 f   libvcruntimed:undname.obj
 0001:0000a870       ??B?$optional@_K@std@@QBE_NXZ 1000b870 f i libvcruntimed:undname.obj
 0001:0000a890       ??D?$_Optional_construct_base@_K@std@@QGAEAA_KXZ 1000b890 f i libvcruntimed:undname.obj
 0001:0000a900       ??H@YA?AVDName@@ABUStringLiteral@@ABV0@@Z 1000b900 f i libvcruntimed:undname.obj
 0001:0000a930       ??H@YA?AVDName@@DABV0@@Z   1000b930 f i libvcruntimed:undname.obj
 0001:0000a960       ??H@YA?AVDName@@W4DNameStatus@@ABV0@@Z 1000b960 f i libvcruntimed:undname.obj
 0001:0000a990       ??HDName@@QBE?AV0@ABUStringLiteral@@@Z 1000b990 f   libvcruntimed:undname.obj
 0001:0000a9c0       ??HDName@@QBE?AV0@ABV0@@Z  1000b9c0 f   libvcruntimed:undname.obj
 0001:0000a9f0       ??HDName@@QBE?AV0@D@Z      1000b9f0 f   libvcruntimed:undname.obj
 0001:0000aa20       ??HDName@@QBE?AV0@PAV0@@Z  1000ba20 f   libvcruntimed:undname.obj
 0001:0000aa50       ??HDName@@QBE?AV0@W4DNameStatus@@@Z 1000ba50 f   libvcruntimed:undname.obj
 0001:0000aa80       ??HStringLiteral@@QBE?AU0@H@Z 1000ba80 f i libvcruntimed:undname.obj
 0001:0000aab0       ??YDName@@QAEAAV0@ABUStringLiteral@@@Z 1000bab0 f   libvcruntimed:undname.obj
 0001:0000ab50       ??YDName@@QAEAAV0@ABV0@@Z  1000bb50 f   libvcruntimed:undname.obj
 0001:0000abf0       ??YDName@@QAEAAV0@D@Z      1000bbf0 f   libvcruntimed:undname.obj
 0001:0000ac80       ??YDName@@QAEAAV0@PAV0@@Z  1000bc80 f   libvcruntimed:undname.obj
 0001:0000ad40       ??YDName@@QAEAAV0@W4DNameStatus@@@Z 1000bd40 f   libvcruntimed:undname.obj
 0001:0000adb0       ??YReplicator@@QAEAAV0@ABVDName@@@Z 1000bdb0 f   libvcruntimed:undname.obj
 0001:0000ae40       ??_5DName@@QAEAAV0@ABV0@@Z 1000be40 f   libvcruntimed:undname.obj
 0001:0000aea0       ??__K_l@@YA?AUStringLiteral@@PBDI@Z 1000bea0 f i libvcruntimed:undname.obj
 0001:0000aec0       ?Constructor@_HeapManager@@QAEXP6APAXI@ZP6AXPAX@Z@Z 1000bec0 f i libvcruntimed:undname.obj
 0001:0000af00       ?Destructor@_HeapManager@@QAEXXZ 1000bf00 f i libvcruntimed:undname.obj
 0001:0000af70       ?UScore@UnDecorator@@SA?AUStringLiteral@@W4Tokens@@@Z 1000bf70 f   libvcruntimed:undname.obj
 0001:0000afc0       ?composeDeclaration@UnDecorator@@CA?AVDName@@ABV2@@Z 1000bfc0 f i libvcruntimed:undname.obj
 0001:0000cf90       ?doAccessSpecifiers@UnDecorator@@SAHXZ 1000df90 f i libvcruntimed:undname.obj
 0001:0000cfc0       ?doAllocationLanguage@UnDecorator@@SAHXZ 1000dfc0 f i libvcruntimed:undname.obj
 0001:0000cff0       ?doAllocationModel@UnDecorator@@SAHXZ 1000dff0 f i libvcruntimed:undname.obj
 0001:0000d020       ?doEcsu@UnDecorator@@SAHXZ 1000e020 f i libvcruntimed:undname.obj
 0001:0000d050       ?doEllipsis@UnDecorator@@SAHXZ 1000e050 f i libvcruntimed:undname.obj
 0001:0000d080       ?doFunctionReturns@UnDecorator@@SAHXZ 1000e080 f i libvcruntimed:undname.obj
 0001:0000d0b0       ?doMSKeywords@UnDecorator@@SAHXZ 1000e0b0 f i libvcruntimed:undname.obj
 0001:0000d0e0       ?doMemberTypes@UnDecorator@@SAHXZ 1000e0e0 f i libvcruntimed:undname.obj
 0001:0000d110       ?doNameOnly@UnDecorator@@SAHXZ 1000e110 f i libvcruntimed:undname.obj
 0001:0000d120       ?doNoIdentCharCheck@UnDecorator@@SAHXZ 1000e120 f i libvcruntimed:undname.obj
 0001:0000d130       ?doPchar@DName@@AAEXD@Z    1000e130 f   libvcruntimed:undname.obj
 0001:0000d1a0       ?doPtr64@UnDecorator@@SAHXZ 1000e1a0 f i libvcruntimed:undname.obj
 0001:0000d1d0       ?doRestrictionSpec@UnDecorator@@SAHXZ 1000e1d0 f i libvcruntimed:undname.obj
 0001:0000d200       ?doThisTypes@UnDecorator@@SAHXZ 1000e200 f i libvcruntimed:undname.obj
 0001:0000d230       ?doThrowTypes@UnDecorator@@SAHXZ 1000e230 f i libvcruntimed:undname.obj
 0001:0000d260       ?doTypeOnly@UnDecorator@@SAHXZ 1000e260 f i libvcruntimed:undname.obj
 0001:0000d270       ?doUnderScore@UnDecorator@@SAHXZ 1000e270 f i libvcruntimed:undname.obj
 0001:0000d2a0       ?getAddressOf@UnDecorator@@CA?AVDName@@XZ 1000e2a0 f   libvcruntimed:undname.obj
 0001:0000d320       ?getArgumentList@UnDecorator@@CA?AVDName@@XZ 1000e320 f   libvcruntimed:undname.obj
 0001:0000d460       ?getArgumentTypes@UnDecorator@@CA?AVDName@@XZ 1000e460 f   libvcruntimed:undname.obj
 0001:0000d610       ?getArrayAccess@UnDecorator@@CA?AVDName@@XZ 1000e610 f   libvcruntimed:undname.obj
 0001:0000d6a0       ?getArrayObject@UnDecorator@@CA?AVDName@@XZ 1000e6a0 f   libvcruntimed:undname.obj
 0001:0000d7a0       ?getArrayType@UnDecorator@@CA?AVDName@@ABV2@@Z 1000e7a0 f i libvcruntimed:undname.obj
 0001:0000da40       ?getBasedType@UnDecorator@@CA?AVDName@@XZ 1000ea40 f   libvcruntimed:undname.obj
 0001:0000db60       ?getBasicDataType@UnDecorator@@CA?AVDName@@ABV2@@Z 1000eb60 f   libvcruntimed:undname.obj
 0001:0000e530       ?getCHPEName@UnDecorator@@QAEPADPADH@Z 1000f530 f i libvcruntimed:undname.obj
 0001:0000e690       ?getCallIndex@UnDecorator@@CA?AVDName@@XZ 1000f690 f i libvcruntimed:undname.obj
 0001:0000e6b0       ?getCallingConvention@UnDecorator@@CA?AVDName@@XZ 1000f6b0 f   libvcruntimed:undname.obj
 0001:0000e900       ?getDataIndirectType@UnDecorator@@CA?AVDName@@ABV2@W4IndirectionKind@@0H@Z 1000f900 f   libvcruntimed:undname.obj
 0001:0000f230       ?getDataIndirectType@UnDecorator@@CA?AVDName@@XZ 10010230 f i libvcruntimed:undname.obj
 0001:0000f270       ?getDataType@UnDecorator@@CA?AVDName@@PAV2@@Z 10010270 f   libvcruntimed:undname.obj
 0001:0000f390       ?getDecoratedName@UnDecorator@@CA?AVDName@@XZ 10010390 f   libvcruntimed:undname.obj
 0001:0000f7c0       ?getDimension@UnDecorator@@CA?AVDName@@_N@Z 100107c0 f   libvcruntimed:undname.obj
 0001:0000fa00       ?getDispatchTarget@UnDecorator@@CA?AVDName@@XZ 10010a00 f   libvcruntimed:undname.obj
 0001:0000fa80       ?getDisplacement@UnDecorator@@CA?AVDName@@XZ 10010a80 f i libvcruntimed:undname.obj
 0001:0000faa0       ?getECSUDataType@UnDecorator@@CA?AVDName@@XZ 10010aa0 f   libvcruntimed:undname.obj
 0001:0000fd80       ?getECSUName@UnDecorator@@CA?AVDName@@XZ 10010d80 f i libvcruntimed:undname.obj
 0001:0000fda0       ?getEnumType@UnDecorator@@CA?AVDName@@XZ 10010da0 f i libvcruntimed:undname.obj
 0001:0000ff50       ?getExtendedDataIndirectType@UnDecorator@@CA?AVDName@@AAW4IndirectionKind@@AA_NH@Z 10010f50 f   libvcruntimed:undname.obj
 0001:000101c0       ?getExternalDataType@UnDecorator@@CA?AVDName@@ABV2@@Z 100111c0 f i libvcruntimed:undname.obj
 0001:00010250       ?getFloatingPoint@UnDecorator@@CA?AVDName@@H@Z 10011250 f   libvcruntimed:undname.obj
 0001:00010390       ?getFunctionIndirectType@UnDecorator@@CA?AVDName@@ABV2@@Z 10011390 f   libvcruntimed:undname.obj
 0001:00010860       ?getGuardNumber@UnDecorator@@CA?AVDName@@XZ 10011860 f i libvcruntimed:undname.obj
 0001:00010880       ?getLastChar@DName@@QBEDXZ 10011880 f i libvcruntimed:undname.obj
 0001:000108c0       ?getLastChar@DNameStatusNode@@UBEDXZ 100118c0 f i libvcruntimed:undname.obj
 0001:00010900       ?getLastChar@charNode@@UBEDXZ 10011900 f i libvcruntimed:undname.obj
 0001:00010920       ?getLastChar@pDNameNode@@UBEDXZ 10011920 f i libvcruntimed:undname.obj
 0001:00010950       ?getLastChar@pairNode@@UBEDXZ 10011950 f i libvcruntimed:undname.obj
 0001:000109c0       ?getLastChar@pcharNode@@UBEDXZ 100119c0 f i libvcruntimed:undname.obj
 0001:00010a00       ?getLexicalFrame@UnDecorator@@CA?AVDName@@XZ 10011a00 f i libvcruntimed:undname.obj
 0001:00010a40       ?getMemberAccess@UnDecorator@@CA?AVDName@@XZ 10011a40 f   libvcruntimed:undname.obj
 0001:00010ad0       ?getMemoryWithBuffer@_HeapManager@@QAEPAXI@Z 10011ad0 f   libvcruntimed:undname.obj
 0001:00010bc0       ?getMemoryWithoutBuffer@_HeapManager@@QAEPAXI@Z 10011bc0 f   libvcruntimed:undname.obj
 0001:00010c00       ?getNoexcept@UnDecorator@@CA?AVDName@@XZ 10011c00 f   libvcruntimed:undname.obj
 0001:00010c70       ?getNumberOfDimensions@UnDecorator@@CAHXZ 10011c70 f   libvcruntimed:undname.obj
 0001:00010d20       ?getOperatorName@UnDecorator@@CA?AVDName@@_NPA_N@Z 10011d20 f i libvcruntimed:undname.obj
 0001:00011750       ?getPointerToMember@UnDecorator@@CA?AVDName@@XZ 10012750 f   libvcruntimed:undname.obj
 0001:00011830       ?getPointerType@UnDecorator@@CA?AVDName@@ABV2@0@Z 10012830 f i libvcruntimed:undname.obj
 0001:00011850       ?getPointerTypeArray@UnDecorator@@CA?AVDName@@ABV2@0@Z 10012850 f i libvcruntimed:undname.obj
 0001:00011870       ?getPrimaryDataType@UnDecorator@@CA?AVDName@@ABV2@@Z 10012870 f   libvcruntimed:undname.obj
 0001:00011cb0       ?getPtrRefDataType@UnDecorator@@CA?AVDName@@ABV2@H@Z 10012cb0 f   libvcruntimed:undname.obj
 0001:00011f40       ?getPtrRefType@UnDecorator@@CA?AVDName@@ABV2@0W4IndirectionKind@@@Z 10012f40 f   libvcruntimed:undname.obj
 0001:000120d0       ?getReferenceType@UnDecorator@@CA?AVDName@@ABV2@0W4IndirectionKind@@@Z 100130d0 f i libvcruntimed:undname.obj
 0001:000120f0       ?getRestrictionSpec@UnDecorator@@CA?AVDName@@XZ 100130f0 f   libvcruntimed:undname.obj
 0001:00012290       ?getReturnType@UnDecorator@@CA?AVDName@@PAV2@@Z 10013290 f   libvcruntimed:undname.obj
 0001:000122d0       ?getScope@UnDecorator@@CA?AVDName@@XZ 100132d0 f   libvcruntimed:undname.obj
 0001:00012820       ?getScopedName@UnDecorator@@CA?AVDName@@XZ 10013820 f   libvcruntimed:undname.obj
 0001:00012970       ?getSignedDimension@UnDecorator@@CA?AVDName@@XZ 10013970 f   libvcruntimed:undname.obj
 0001:000129e0       ?getStorageConvention@UnDecorator@@CA?AVDName@@XZ 100139e0 f i libvcruntimed:undname.obj
 0001:00012a00       ?getString@DName@@QBEPADPAD0@Z 10013a00 f i libvcruntimed:undname.obj
 0001:00012a60       ?getString@DName@@QBEPADPADH@Z 10013a60 f i libvcruntimed:undname.obj
 0001:00012af0       ?getString@DNameStatusNode@@UBEPADPAD0@Z 10013af0 f i libvcruntimed:undname.obj
 0001:00012b30       ?getString@charNode@@UBEPADPAD0@Z 10013b30 f i libvcruntimed:undname.obj
 0001:00012b60       ?getString@pDNameNode@@UBEPADPAD0@Z 10013b60 f i libvcruntimed:undname.obj
 0001:00012ba0       ?getString@pairNode@@UBEPADPAD0@Z 10013ba0 f i libvcruntimed:undname.obj
 0001:00012c30       ?getString@pcharNode@@UBEPADPAD0@Z 10013c30 f i libvcruntimed:undname.obj
 0001:00012c60       ?getStringEncoding@UnDecorator@@CA?AVDName@@W4PrefixKind@@H@Z 10013c60 f   libvcruntimed:undname.obj
 0001:00012d50       ?getStringHelper@@YAPADPADPBD1H@Z 10013d50 f i libvcruntimed:undname.obj
 0001:00012d90       ?getStringObject@UnDecorator@@CA?AVDName@@XZ 10013d90 f   libvcruntimed:undname.obj
 0001:00012e20       ?getSymbolName@UnDecorator@@CA?AVDName@@XZ 10013e20 f i libvcruntimed:undname.obj
 0001:00012ea0       ?getTemplateArgumentList@UnDecorator@@CA?AVDName@@XZ 10013ea0 f   libvcruntimed:undname.obj
 0001:00013170       ?getTemplateName@UnDecorator@@CA?AVDName@@_N@Z 10014170 f   libvcruntimed:undname.obj
 0001:00013320       ?getTemplateNonTypeArgument@UnDecorator@@CA?AVDName@@XZ 10014320 f   libvcruntimed:undname.obj
 0001:00013950       ?getTemplateTypeArgument@UnDecorator@@CA?AVDName@@XZ 10014950 f   libvcruntimed:undname.obj
 0001:00013b00       ?getThisType@UnDecorator@@CA?AVDName@@XZ 10014b00 f i libvcruntimed:undname.obj
 0001:00013b40       ?getThrowTypes@UnDecorator@@CA?AVDName@@XZ 10014b40 f   libvcruntimed:undname.obj
 0001:00013b70       ?getTypeEncoding@UnDecorator@@CAHXZ 10014b70 f i libvcruntimed:undname.obj
 0001:000145e0       ?getUndecoratedName@UnDecorator@@QAEPADPADH@Z 100155e0 f i libvcruntimed:undname.obj
 0001:00014740       ?getUnionObject@UnDecorator@@CA?AVDName@@XZ 10015740 f   libvcruntimed:undname.obj
 0001:00014810       ?getVCallThunkType@UnDecorator@@CA?AVDName@@XZ 10015810 f i libvcruntimed:undname.obj
 0001:00014880       ?getValue@UnDecorator@@CA?AV?$optional@_K@std@@XZ 10015880 f   libvcruntimed:undname.obj
 0001:00014940       ?getValueObject@UnDecorator@@CA?AVDName@@XZ 10015940 f   libvcruntimed:undname.obj
 0001:00014b40       ?getVbTableType@UnDecorator@@CA?AVDName@@ABV2@@Z 10015b40 f i libvcruntimed:undname.obj
 0001:00014b60       ?getVdispMapType@UnDecorator@@CA?AVDName@@ABV2@@Z 10015b60 f i libvcruntimed:undname.obj
 0001:00014bd0       ?getVfTableType@UnDecorator@@CA?AVDName@@ABV2@@Z 10015bd0 f i libvcruntimed:undname.obj
 0001:00014dc0       ?getZName@UnDecorator@@CA?AVDName@@_N0@Z 10015dc0 f   libvcruntimed:undname.obj
 0001:000150d0       ?get_current_character_and_increment_buffer@UnDecorator@@CADXZ 100160d0 f i libvcruntimed:undname.obj
 0001:00015100       ?haveTemplateParameters@UnDecorator@@SAHXZ 10016100 f i libvcruntimed:undname.obj
 0001:00015110       ?increment_buffer@UnDecorator@@CA_NI@Z 10016110 f i libvcruntimed:undname.obj
 0001:00015160       ?increment_buffer_no_check@UnDecorator@@CAXI@Z 10016160 f i libvcruntimed:undname.obj
 0001:000151a0       ?increment_buffer_no_check@UnDecorator@@CAXXZ 100161a0 f i libvcruntimed:undname.obj
 0001:000151c0       ?isArray@DName@@QBEHXZ     100161c0 f i libvcruntimed:undname.obj
 0001:000151e0       ?isComArray@DName@@QBEHXZ  100161e0 f i libvcruntimed:undname.obj
 0001:00015200       ?isEmpty@DName@@QBEHXZ     10016200 f i libvcruntimed:undname.obj
 0001:00015230       ?isFull@Replicator@@QBEHXZ 10016230 f i libvcruntimed:undname.obj
 0001:00015260       ?isNoTE@DName@@QBEHXZ      10016260 f i libvcruntimed:undname.obj
 0001:00015280       ?isPinPtr@DName@@QBEHXZ    10016280 f i libvcruntimed:undname.obj
 0001:000152a0       ?isPtrRef@DName@@QBEHXZ    100162a0 f i libvcruntimed:undname.obj
 0001:000152c0       ?isUDC@DName@@QBEHXZ       100162c0 f i libvcruntimed:undname.obj
 0001:00015300       ?isUDTThunk@DName@@QBEHXZ  10016300 f i libvcruntimed:undname.obj
 0001:00015340       ?isVCallThunk@DName@@QBEHXZ 10016340 f i libvcruntimed:undname.obj
 0001:00015360       ?isValid@DName@@QBEHXZ     10016360 f i libvcruntimed:undname.obj
 0001:000153a0       ?length@DName@@QBEHXZ      100163a0 f i libvcruntimed:undname.obj
 0001:000153e0       ?length@DNameStatusNode@@UBEHXZ 100163e0 f i libvcruntimed:undname.obj
 0001:00015400       ?length@charNode@@UBEHXZ   10016400 f i libvcruntimed:undname.obj
 0001:00015410       ?length@pDNameNode@@UBEHXZ 10016410 f i libvcruntimed:undname.obj
 0001:00015440       ?length@pairNode@@UBEHXZ   10016440 f i libvcruntimed:undname.obj
 0001:000154b0       ?length@pcharNode@@UBEHXZ  100164b0 f i libvcruntimed:undname.obj
 0001:000154d0       ?make@DNameStatusNode@@SAPBV1@W4DNameStatus@@@Z 100164d0 f i libvcruntimed:undname.obj
 0001:00015500       ?parseDecoratedName@UnDecorator@@CA?AVDName@@XZ 10016500 f   libvcruntimed:undname.obj
 0001:00015690       ?raw_length@DNameStatusNode@@UBEHXZ 10016690 f i libvcruntimed:undname.obj
 0001:000156b0       ?raw_length@charNode@@UBEHXZ 100166b0 f i libvcruntimed:undname.obj
 0001:000156d0       ?raw_length@pDNameNode@@UBEHXZ 100166d0 f i libvcruntimed:undname.obj
 0001:000156e0       ?raw_length@pairNode@@UBEHXZ 100166e0 f i libvcruntimed:undname.obj
 0001:00015700       ?raw_length@pcharNode@@UBEHXZ 10016700 f i libvcruntimed:undname.obj
 0001:00015720       ?setIsArray@DName@@QAEXXZ  10016720 f i libvcruntimed:undname.obj
 0001:00015740       ?setIsComArray@DName@@QAEXXZ 10016740 f i libvcruntimed:undname.obj
 0001:00015760       ?setIsNoTE@DName@@QAEXXZ   10016760 f i libvcruntimed:undname.obj
 0001:00015780       ?setIsPinPtr@DName@@QAEXXZ 10016780 f i libvcruntimed:undname.obj
 0001:000157a0       ?setIsUDC@DName@@QAEXXZ    100167a0 f i libvcruntimed:undname.obj
 0001:000157d0       ?setIsVCallThunk@DName@@QAEXXZ 100167d0 f i libvcruntimed:undname.obj
 0001:000157f0       ?setPtrRef@DName@@QAEAAV1@XZ 100167f0 f i libvcruntimed:undname.obj
 0001:00015810       ?status@DName@@QBE?AW4DNameStatus@@XZ 10016810 f i libvcruntimed:undname.obj
 0001:00015910       ___unDName                 10016910 f   libvcruntimed:undname.obj
 0001:00015940       ___unDNameEx               10016940 f   libvcruntimed:undname.obj
 0001:00015a10       _snprintf                  10016a10 f i libvcruntimed:undname.obj
 0001:00015a50       _unDNameGenerateCHPE       10016a50 f   libvcruntimed:undname.obj
 0001:00015ab0       _vsnprintf                 10016ab0 f i libvcruntimed:undname.obj
 0001:00015b00       ??$?RU__vcrt_ptd@@@__crt_internal_free_policy@@QBEXQBU__vcrt_ptd@@@Z 10016b00 f i libvcruntimed:per_thread_data.obj
 0001:00015b20       ??0?$__crt_unique_heap_ptr@U__vcrt_ptd@@U__crt_internal_free_policy@@@@QAE@QAU__vcrt_ptd@@@Z 10016b20 f i libvcruntimed:per_thread_data.obj
 0001:00015b60       ??1?$__crt_unique_heap_ptr@U__vcrt_ptd@@U__crt_internal_free_policy@@@@QAE@XZ 10016b60 f i libvcruntimed:per_thread_data.obj
 0001:00015ba0       ??B?$__crt_unique_heap_ptr@U__vcrt_ptd@@U__crt_internal_free_policy@@@@QBE_NXZ 10016ba0 f i libvcruntimed:per_thread_data.obj
 0001:00015bc0       ?detach@?$__crt_unique_heap_ptr@U__vcrt_ptd@@U__crt_internal_free_policy@@@@QAEPAU__vcrt_ptd@@XZ 10016bc0 f i libvcruntimed:per_thread_data.obj
 0001:00015bf0       ?get@?$__crt_unique_heap_ptr@U__vcrt_ptd@@U__crt_internal_free_policy@@@@QBEPAU__vcrt_ptd@@XZ 10016bf0 f i libvcruntimed:per_thread_data.obj
 0001:00015c00       ?is_valid@?$__crt_unique_heap_ptr@U__vcrt_ptd@@U__crt_internal_free_policy@@@@QBE_NXZ 10016c00 f i libvcruntimed:per_thread_data.obj
 0001:00015c30       ?release@?$__crt_unique_heap_ptr@U__vcrt_ptd@@U__crt_internal_free_policy@@@@QAEXXZ 10016c30 f i libvcruntimed:per_thread_data.obj
 0001:00015c90       ___vcrt_freefls@4          10016c90 f   libvcruntimed:per_thread_data.obj
 0001:00015cc0       ___vcrt_freeptd_for_this_thread 10016cc0 f   libvcruntimed:per_thread_data.obj
 0001:00015d00       ___vcrt_getptd             10016d00 f   libvcruntimed:per_thread_data.obj
 0001:00015d20       ___vcrt_getptd_noexit      10016d20 f   libvcruntimed:per_thread_data.obj
 0001:00015e80       ___vcrt_getptd_noinit      10016e80 f   libvcruntimed:per_thread_data.obj
 0001:00015ee0       ___vcrt_initialize_ptd     10016ee0 f   libvcruntimed:per_thread_data.obj
 0001:00015f30       ___vcrt_uninitialize_ptd   10016f30 f   libvcruntimed:per_thread_data.obj
 0001:00015f60       ___vcrt_initialize_locks   10016f60 f   libvcruntimed:locks.obj
 0001:00015fc0       ___vcrt_lock               10016fc0 f   libvcruntimed:locks.obj
 0001:00015fe0       ___vcrt_uninitialize_locks 10016fe0 f   libvcruntimed:locks.obj
 0001:00016030       ___vcrt_unlock             10017030 f   libvcruntimed:locks.obj
 0001:00016050       __global_unwind2           10017050 f   libvcruntimed:exsup.obj
 0001:000160d0       __local_unwind2            100170d0 f   libvcruntimed:exsup.obj
 0001:00016170       __abnormal_termination     10017170 f   libvcruntimed:exsup.obj
 0001:000161a0       __NLG_Notify1              100171a0 f   libvcruntimed:exsup.obj
 0001:000161b0       __NLG_Notify               100171b0 f   libvcruntimed:exsup.obj
 0001:000161c7       __NLG_Dispatch             100171c7     libvcruntimed:exsup.obj
 0001:000161c7       __NLG_Dispatch2            100171c7     libvcruntimed:exsup.obj
 0001:000161d0       __NLG_Call                 100171d0 f   libvcruntimed:exsup.obj
 0001:000161d2       __NLG_Return2              100171d2     libvcruntimed:exsup.obj
 0001:000161e0       ??$__crt_interlocked_exchange_pointer@$$A6AXXZP6AXXZ@@YAP6AXXZPDS6AXXZQ6AXXZ@Z 100171e0 f i libvcruntimed:purevirt.obj
 0001:000161f0       ??$__crt_interlocked_read_pointer@$$A6AXXZ@@YAP6AXXZPDS6AXXZ@Z 100171f0 f i libvcruntimed:purevirt.obj
 0001:00016210       __get_purecall_handler     10017210 f   libvcruntimed:purevirt.obj
 0001:00016230       __purecall                 10017230 f   libvcruntimed:purevirt.obj
 0001:00016270       __set_purecall_handler     10017270 f   libvcruntimed:purevirt.obj
 0001:00016290       ??$?0AAViterator@TryBlockMap@__FrameHandler3@@AAV012@$0A@@?$pair@Viterator@TryBlockMap@__FrameHandler3@@V123@@std@@QAE@AAViterator@TryBlockMap@__FrameHandler3@@0@Z 10017290 f i libvcruntimed:trnsctrl.obj
 0001:000162d0       ??0iterator@TryBlockMap@__FrameHandler3@@QAE@AAV12@I@Z 100172d0 f i libvcruntimed:trnsctrl.obj
 0001:00016300       ?GetRangeOfTrysToCheck@__FrameHandler3@@SA?AU?$pair@Viterator@TryBlockMap@__FrameHandler3@@V123@@std@@AAVTryBlockMap@1@HPAXPBU_s_FuncInfo@@H@Z 10017300 f   libvcruntimed:trnsctrl.obj
 0001:000163f0       ?_CallCatchBlock2@@YAPAXPAUEHRegistrationNode@@PBU_s_FuncInfo@@PAXHK@Z 100173f0 f   libvcruntimed:trnsctrl.obj
 0001:00016460       ?_CallSETranslator@@YAHPAUEHExceptionRecord@@PAUEHRegistrationNode@@PAX2PBU_s_FuncInfo@@H1@Z 10017460 f   libvcruntimed:trnsctrl.obj
 0001:00016570       ?_JumpToContinuation@@YGXPAXPAUEHRegistrationNode@@@Z 10017570 f   libvcruntimed:trnsctrl.obj
 0001:000165b0       ?_UnwindNestedFrames@@YGXPAUEHRegistrationNode@@PAUEHExceptionRecord@@@Z 100175b0 f   libvcruntimed:trnsctrl.obj
 0001:00016610       __CatchGuardHandler        10017610 f   libvcruntimed:trnsctrl.obj
 0001:00016660       __CreateFrameInfo          10017660 f   libvcruntimed:trnsctrl.obj
 0001:00016690       __FindAndUnlinkFrame       10017690 f   libvcruntimed:trnsctrl.obj
 0001:00016700       __TranslatorGuardHandler   10017700 f   libvcruntimed:trnsctrl.obj
 0001:000167b0       ___CxxFrameHandler         100177b0 f   libvcruntimed:trnsctrl.obj
 0001:000167f0       ___CxxFrameHandler2        100177f0 f   libvcruntimed:trnsctrl.obj
 0001:00016830       ___CxxFrameHandler3        10017830 f   libvcruntimed:trnsctrl.obj
 0001:00016870       ___CxxLongjmpUnwind@4      10017870 f   libvcruntimed:trnsctrl.obj
 0001:000168b0       ??$__crt_interlocked_exchange_pointer@UHINSTANCE__@@PAU1@@@YAPAUHINSTANCE__@@PDSAU0@QAU0@@Z 100178b0 f i libvcruntimed:winapi_downlevel.obj
 0001:000168c0       ??$__crt_interlocked_exchange_pointer@UHINSTANCE__@@PAX@@YAPAUHINSTANCE__@@PDSAU0@QAX@Z 100178c0 f i libvcruntimed:winapi_downlevel.obj
 0001:000168d0       ??$__crt_interlocked_exchange_pointer@XPAX@@YAPAXPDSAXQAX@Z 100178d0 f i libvcruntimed:winapi_downlevel.obj
 0001:000168e0       ??$__crt_interlocked_read_pointer@UHINSTANCE__@@@@YAPAUHINSTANCE__@@PDSAU0@@Z 100178e0 f i libvcruntimed:winapi_downlevel.obj
 0001:00016900       ??$__crt_interlocked_read_pointer@X@@YAPAXPDSAX@Z 10017900 f i libvcruntimed:winapi_downlevel.obj
 0001:00016ce0       ___vcrt_FlsAlloc           10017ce0 f   libvcruntimed:winapi_downlevel.obj
 0001:00016d20       ___vcrt_FlsFree            10017d20 f   libvcruntimed:winapi_downlevel.obj
 0001:00016d60       ___vcrt_FlsGetValue        10017d60 f   libvcruntimed:winapi_downlevel.obj
 0001:00016da0       ___vcrt_FlsSetValue        10017da0 f   libvcruntimed:winapi_downlevel.obj
 0001:00016df0       ___vcrt_InitializeCriticalSectionEx 10017df0 f   libvcruntimed:winapi_downlevel.obj
 0001:000179b0       ??$TypeMatchHelper@V__FrameHandler3@@@@YAHPBU_s_HandlerType@@PBU_s_CatchableType@@PBU_s_ThrowInfo@@@Z 100189b0 f i libvcruntimed:frame.obj
 0001:00017a90       ??$__InternalCxxFrameHandler@V__FrameHandler3@@@@YA?AW4_EXCEPTION_DISPOSITION@@PAUEHExceptionRecord@@PAUEHRegistrationNode@@PAU_CONTEXT@@PAXPBU_s_FuncInfo@@H1E@Z 10018a90 f i libvcruntimed:frame.obj
 0001:00017c50       ??$__InternalCxxFrameHandlerWrapper@V__FrameHandler3@@@@YA?AW4_EXCEPTION_DISPOSITION@@PAUEHExceptionRecord@@PAUEHRegistrationNode@@PAU_CONTEXT@@PAXPBU_s_FuncInfo@@H1E@Z 10018c50 f i libvcruntimed:frame.obj
 0001:00017c80       ??0HandlerMap@__FrameHandler3@@QAE@PBU_s_TryBlockMapEntry@@II@Z 10018c80 f i libvcruntimed:frame.obj
 0001:00017cb0       ??0TryBlockMap@__FrameHandler3@@QAE@PBU_s_FuncInfo@@I@Z 10018cb0 f i libvcruntimed:frame.obj
 0001:00017ce0       ??0bad_exception@std@@QAE@ABV01@@Z 10018ce0 f i libvcruntimed:frame.obj
 0001:00017d10       ??0bad_exception@std@@QAE@XZ 10018d10 f i libvcruntimed:frame.obj
 0001:00017d40       ??0exception@std@@QAE@ABV01@@Z 10018d40 f i libvcruntimed:frame.obj
 0001:00017d80       ??0exception@std@@QAE@QBDH@Z 10018d80 f i libvcruntimed:frame.obj
 0001:00017db0       ??0iterator@HandlerMap@__FrameHandler3@@QAE@AAV12@I@Z 10018db0 f i libvcruntimed:frame.obj
 0001:00017de0       ??1bad_exception@std@@UAE@XZ 10018de0 f i libvcruntimed:frame.obj
 0001:00017e00       ??1exception@std@@UAE@XZ   10018e00 f i libvcruntimed:frame.obj
 0001:00017e30       ??8iterator@HandlerMap@__FrameHandler3@@QBE_NABV012@@Z 10018e30 f i libvcruntimed:frame.obj
 0001:00017e70       ??8type_info@@QBE_NABV0@@Z 10018e70 f i libvcruntimed:frame.obj
 0001:00017ee0       ??9iterator@HandlerMap@__FrameHandler3@@QBE_NABV012@@Z 10018ee0 f i libvcruntimed:frame.obj
 0001:00017f20       ??Diterator@HandlerMap@__FrameHandler3@@QAE?BU_s_HandlerType@@XZ 10018f20 f i libvcruntimed:frame.obj
 0001:00017f60       ??Diterator@TryBlockMap@__FrameHandler3@@QAE?BU_s_TryBlockMapEntry@@XZ 10018f60 f i libvcruntimed:frame.obj
 0001:00017fb0       ??Eiterator@HandlerMap@__FrameHandler3@@QAEAAV012@XZ 10018fb0 f i libvcruntimed:frame.obj
 0001:00017fd0       ??Eiterator@TryBlockMap@__FrameHandler3@@QAEAAV012@XZ 10018fd0 f i libvcruntimed:frame.obj
 0001:00017ff0       ??Miterator@TryBlockMap@__FrameHandler3@@QBE_NABV012@@Z 10018ff0 f i libvcruntimed:frame.obj
 0001:00018030       ??_Ebad_exception@std@@UAEPAXI@Z 10019030 f i libvcruntimed:frame.obj
 0001:00018030       ??_Gbad_exception@std@@UAEPAXI@Z 10019030 f i libvcruntimed:frame.obj
 0001:00018060       ??_Eexception@std@@UAEPAXI@Z 10019060 f i libvcruntimed:frame.obj
 0001:00018060       ??_Gexception@std@@UAEPAXI@Z 10019060 f i libvcruntimed:frame.obj
 0001:00018090       ?BuildCatchObject@__FrameHandler3@@SAXPAUEHExceptionRecord@@PAXPBU_s_HandlerType@@PBU_s_CatchableType@@@Z 10019090 f   libvcruntimed:frame.obj
 0001:000180b0       ?BuildCatchObjectHelper@__FrameHandler3@@SAHPAUEHExceptionRecord@@PAXPBU_s_HandlerType@@PBU_s_CatchableType@@@Z 100190b0 f   libvcruntimed:frame.obj
 0001:00018460       ?FrameUnwindToEmptyState@__FrameHandler3@@SAXPAUEHRegistrationNode@@PAXPBU_s_FuncInfo@@@Z 10019460 f   libvcruntimed:frame.obj
 0001:00018480       ?FrameUnwindToState@__FrameHandler3@@SAXPAUEHRegistrationNode@@PAXPBU_s_FuncInfo@@H@Z 10019480 f   libvcruntimed:frame.obj
 0001:00018600       ?GetMaxState@__FrameHandler3@@SAHPAXPBU_s_FuncInfo@@@Z 10019600 f i libvcruntimed:frame.obj
 0001:00018720       ?TypeMatch@__FrameHandler3@@SAHPBU_s_HandlerType@@PBU_s_CatchableType@@PBU_s_ThrowInfo@@@Z 10019720 f   libvcruntimed:frame.obj
 0001:00018740       ?_CallMemberFunction1@@YGXQAX00@Z 10019740 f i libvcruntimed:frame.obj
 0001:00018770       ?_CallMemberFunction2@@YGXQAX00H@Z 10019770 f i libvcruntimed:frame.obj
 0001:000187a0       ?begin@HandlerMap@__FrameHandler3@@QAE?AViterator@12@XZ 100197a0 f i libvcruntimed:frame.obj
 0001:000187c0       ?end@HandlerMap@__FrameHandler3@@QAE?AViterator@12@XZ 100197c0 f i libvcruntimed:frame.obj
 0001:000187f0       ?getESTypes@__FrameHandler3@@SAPBU_s_ESTypeList@@PBU_s_FuncInfo@@@Z 100197f0 f i libvcruntimed:frame.obj
 0001:00018800       ?getLastEntry@HandlerMap@__FrameHandler3@@QAEPBU_s_HandlerType@@XZ 10019800 f i libvcruntimed:frame.obj
 0001:00018820       ?getMagicNum@__FrameHandler3@@SAIPBU_s_FuncInfo@@@Z 10019820 f i libvcruntimed:frame.obj
 0001:00018830       ?getNumTryBlocks@TryBlockMap@__FrameHandler3@@QAEIXZ 10019830 f i libvcruntimed:frame.obj
 0001:00018850       ?isEHs@__FrameHandler3@@SA_NPBU_s_FuncInfo@@@Z 10019850 f i libvcruntimed:frame.obj
 0001:00018880       ?isNoExcept@__FrameHandler3@@SA_NPBU_s_FuncInfo@@@Z 10019880 f i libvcruntimed:frame.obj
 0001:000188b0       ?what@exception@std@@UBEPBDXZ 100198b0 f i libvcruntimed:frame.obj
 0001:000188e0       ___BuildCatchObject        100198e0 f   libvcruntimed:frame.obj
 0001:00018900       ___BuildCatchObjectHelper  10019900 f   libvcruntimed:frame.obj
 0001:00018920       ___TypeMatch               10019920 f   libvcruntimed:frame.obj
 0001:00018940       ___vcrt_EncodePointer      10019940 f i libvcruntimed:frame.obj
 0001:00018950       __CallSettingFrame@12      10019950 f   libvcruntimed:lowhelpr.obj
 0001:00018977       __NLG_Return               10019977     libvcruntimed:lowhelpr.obj
 0001:000189d0       __get_unexpected           100199d0 f   libvcruntimed:unexpected.obj
 0001:000189f0       _set_unexpected            100199f0 f   libvcruntimed:unexpected.obj
 0001:00018a20       _unexpected                10019a20 f   libvcruntimed:unexpected.obj
 0001:00018a60       ?GetCurrentState@__FrameHandler3@@SAHPAUEHRegistrationNode@@PAXPBU_s_FuncInfo@@@Z 10019a60 f   libvcruntimed:ehstate.obj
 0001:00018a90       ?SetState@__FrameHandler3@@SAXPAUEHRegistrationNode@@PBU_s_FuncInfo@@H@Z 10019a90 f   libvcruntimed:ehstate.obj
 0001:00018aa0       ??$?RD@__crt_public_free_policy@@QBEXQBD@Z 10019aa0 f i libvcruntimed:std_exception.obj
 0001:00018ac0       ??0?$__crt_unique_heap_ptr@DU__crt_public_free_policy@@@@QAE@QAD@Z 10019ac0 f i libvcruntimed:std_exception.obj
 0001:00018ae0       ??1?$__crt_unique_heap_ptr@DU__crt_public_free_policy@@@@QAE@XZ 10019ae0 f i libvcruntimed:std_exception.obj
 0001:00018b00       ??B?$__crt_unique_heap_ptr@DU__crt_public_free_policy@@@@QBE_NXZ 10019b00 f i libvcruntimed:std_exception.obj
 0001:00018b20       ?detach@?$__crt_unique_heap_ptr@DU__crt_public_free_policy@@@@QAEPADXZ 10019b20 f i libvcruntimed:std_exception.obj
 0001:00018b50       ?get@?$__crt_unique_heap_ptr@DU__crt_public_free_policy@@@@QBEPADXZ 10019b50 f i libvcruntimed:std_exception.obj
 0001:00018b60       ?is_valid@?$__crt_unique_heap_ptr@DU__crt_public_free_policy@@@@QBE_NXZ 10019b60 f i libvcruntimed:std_exception.obj
 0001:00018b90       ?release@?$__crt_unique_heap_ptr@DU__crt_public_free_policy@@@@QAEXXZ 10019b90 f i libvcruntimed:std_exception.obj
 0001:00018bc0       ___std_exception_copy      10019bc0 f   libvcruntimed:std_exception.obj
 0001:00018cc0       ___std_exception_destroy   10019cc0 f   libvcruntimed:std_exception.obj
 0001:00018cf0       __CxxThrowException@8      10019cf0 f   libvcruntimed:throw.obj
 0001:00018da0       _strcpy                    10019da0 f   libucrtd:strcat.obj
 0001:00018db0       _strcat                    10019db0 f   libucrtd:strcat.obj
 0001:00018ea0       _strlen                    10019ea0 f   libucrtd:strlen.obj
 0001:00018f30       _strncpy                   10019f30 f   libucrtd:strncpy.obj
 0001:00019060       ??$?0ABV?$stream_output_adapter@D@__crt_stdio_output@@AB_KABQBDAAV__crt_cached_ptd_host@@ABQAD@?$format_validation_base@DV?$stream_output_adapter@D@__crt_stdio_output@@@__crt_stdio_output@@IAE@ABV?$stream_output_adapter@D@1@AB_KABQBDAAV__crt_cached_ptd_host@@ABQAD@Z 1001a060 f i libucrtd:output.obj
 0001:00019090       ??$?0ABV?$stream_output_adapter@D@__crt_stdio_output@@AB_KABQBDAAV__crt_cached_ptd_host@@ABQAD@?$positional_parameter_base@DV?$stream_output_adapter@D@__crt_stdio_output@@@__crt_stdio_output@@IAE@ABV?$stream_output_adapter@D@1@AB_KABQBDAAV__crt_cached_ptd_host@@ABQAD@Z 1001a090 f i libucrtd:output.obj
 0001:00019110       ??$?0ABV?$stream_output_adapter@D@__crt_stdio_output@@AB_KABQBDAAV__crt_cached_ptd_host@@ABQAD@?$standard_base@DV?$stream_output_adapter@D@__crt_stdio_output@@@__crt_stdio_output@@IAE@ABV?$stream_output_adapter@D@1@AB_KABQBDAAV__crt_cached_ptd_host@@ABQAD@Z 1001a110 f i libucrtd:output.obj
 0001:00019160       ??$?0ABV?$stream_output_adapter@_W@__crt_stdio_output@@AB_KABQB_WAAV__crt_cached_ptd_host@@ABQAD@?$format_validation_base@_WV?$stream_output_adapter@_W@__crt_stdio_output@@@__crt_stdio_output@@IAE@ABV?$stream_output_adapter@_W@1@AB_KABQB_WAAV__crt_cached_ptd_host@@ABQAD@Z 1001a160 f i libucrtd:output.obj
 0001:00019190       ??$?0ABV?$stream_output_adapter@_W@__crt_stdio_output@@AB_KABQB_WAAV__crt_cached_ptd_host@@ABQAD@?$positional_parameter_base@_WV?$stream_output_adapter@_W@__crt_stdio_output@@@__crt_stdio_output@@IAE@ABV?$stream_output_adapter@_W@1@AB_KABQB_WAAV__crt_cached_ptd_host@@ABQAD@Z 1001a190 f i libucrtd:output.obj
 0001:00019210       ??$?0ABV?$stream_output_adapter@_W@__crt_stdio_output@@AB_KABQB_WAAV__crt_cached_ptd_host@@ABQAD@?$standard_base@_WV?$stream_output_adapter@_W@__crt_stdio_output@@@__crt_stdio_output@@IAE@ABV?$stream_output_adapter@_W@1@AB_KABQB_WAAV__crt_cached_ptd_host@@ABQAD@Z 1001a210 f i libucrtd:output.obj
 0001:00019260       ??$?0ABV?$string_output_adapter@D@__crt_stdio_output@@AB_KABQBDAAV__crt_cached_ptd_host@@ABQAD@?$format_validation_base@DV?$string_output_adapter@D@__crt_stdio_output@@@__crt_stdio_output@@IAE@ABV?$string_output_adapter@D@1@AB_KABQBDAAV__crt_cached_ptd_host@@ABQAD@Z 1001a260 f i libucrtd:output.obj
 0001:00019290       ??$?0ABV?$string_output_adapter@D@__crt_stdio_output@@AB_KABQBDAAV__crt_cached_ptd_host@@ABQAD@?$positional_parameter_base@DV?$string_output_adapter@D@__crt_stdio_output@@@__crt_stdio_output@@IAE@ABV?$string_output_adapter@D@1@AB_KABQBDAAV__crt_cached_ptd_host@@ABQAD@Z 1001a290 f i libucrtd:output.obj
 0001:00019310       ??$?0ABV?$string_output_adapter@D@__crt_stdio_output@@AB_KABQBDAAV__crt_cached_ptd_host@@ABQAD@?$standard_base@DV?$string_output_adapter@D@__crt_stdio_output@@@__crt_stdio_output@@IAE@ABV?$string_output_adapter@D@1@AB_KABQBDAAV__crt_cached_ptd_host@@ABQAD@Z 1001a310 f i libucrtd:output.obj
 0001:00019360       ??$?0ABV?$string_output_adapter@_W@__crt_stdio_output@@AB_KABQB_WAAV__crt_cached_ptd_host@@ABQAD@?$format_validation_base@_WV?$string_output_adapter@_W@__crt_stdio_output@@@__crt_stdio_output@@IAE@ABV?$string_output_adapter@_W@1@AB_KABQB_WAAV__crt_cached_ptd_host@@ABQAD@Z 1001a360 f i libucrtd:output.obj
 0001:00019390       ??$?0ABV?$string_output_adapter@_W@__crt_stdio_output@@AB_KABQB_WAAV__crt_cached_ptd_host@@ABQAD@?$positional_parameter_base@_WV?$string_output_adapter@_W@__crt_stdio_output@@@__crt_stdio_output@@IAE@ABV?$string_output_adapter@_W@1@AB_KABQB_WAAV__crt_cached_ptd_host@@ABQAD@Z 1001a390 f i libucrtd:output.obj
 0001:00019410       ??$?0ABV?$string_output_adapter@_W@__crt_stdio_output@@AB_KABQB_WAAV__crt_cached_ptd_host@@ABQAD@?$standard_base@_WV?$string_output_adapter@_W@__crt_stdio_output@@@__crt_stdio_output@@IAE@ABV?$string_output_adapter@_W@1@AB_KABQB_WAAV__crt_cached_ptd_host@@ABQAD@Z 1001a410 f i libucrtd:output.obj
 0001:00019a60       ??$__crt_interlocked_read@J@@YAJPDJ@Z 1001aa60 f i libucrtd:output.obj
 0001:00019a80       ??$_tcstol_internal@DPAPAD$0A@@@YAJAAV__crt_cached_ptd_host@@QBDQAPADH@Z 1001aa80 f i libucrtd:output.obj
 0001:00019ac0       ??$_tcstol_internal@_WPAPA_W$0A@@@YAJAAV__crt_cached_ptd_host@@QB_WQAPA_WH@Z 1001aac0 f i libucrtd:output.obj
 0001:0001ca60       ??$count@D@formatting_buffer@__crt_stdio_output@@QBEIXZ 1001da60 f i libucrtd:output.obj
 0001:0001caa0       ??$count@_W@formatting_buffer@__crt_stdio_output@@QBEIXZ 1001daa0 f i libucrtd:output.obj
 0001:0001cae0       ??$data@D@formatting_buffer@__crt_stdio_output@@QAEPADXZ 1001dae0 f i libucrtd:output.obj
 0001:0001cb20       ??$data@_W@formatting_buffer@__crt_stdio_output@@QAEPA_WXZ 1001db20 f i libucrtd:output.obj
 0001:0001cb60       ??$ensure_buffer_is_big_enough@D@formatting_buffer@__crt_stdio_output@@QAE_NIAAV__crt_cached_ptd_host@@@Z 1001db60 f i libucrtd:output.obj
 0001:0001cc50       ??$ensure_buffer_is_big_enough@_W@formatting_buffer@__crt_stdio_output@@QAE_NIAAV__crt_cached_ptd_host@@@Z 1001dc50 f i libucrtd:output.obj
 0001:0001cd40       ??$extract_argument_from_va_list@C_J@?$positional_parameter_base@DV?$stream_output_adapter@D@__crt_stdio_output@@@__crt_stdio_output@@IAE_NAA_J@Z 1001dd40 f i libucrtd:output.obj
 0001:0001cea0       ??$extract_argument_from_va_list@C_J@?$positional_parameter_base@DV?$string_output_adapter@D@__crt_stdio_output@@@__crt_stdio_output@@IAE_NAA_J@Z 1001dea0 f i libucrtd:output.obj
 0001:0001d000       ??$extract_argument_from_va_list@C_J@?$positional_parameter_base@_WV?$stream_output_adapter@_W@__crt_stdio_output@@@__crt_stdio_output@@IAE_NAA_J@Z 1001e000 f i libucrtd:output.obj
 0001:0001d170       ??$extract_argument_from_va_list@C_J@?$positional_parameter_base@_WV?$string_output_adapter@_W@__crt_stdio_output@@@__crt_stdio_output@@IAE_NAA_J@Z 1001e170 f i libucrtd:output.obj
 0001:0001d2e0       ??$extract_argument_from_va_list@C_J@?$standard_base@DV?$stream_output_adapter@D@__crt_stdio_output@@@__crt_stdio_output@@IAE_NAA_J@Z 1001e2e0 f i libucrtd:output.obj
 0001:0001d310       ??$extract_argument_from_va_list@C_J@?$standard_base@DV?$string_output_adapter@D@__crt_stdio_output@@@__crt_stdio_output@@IAE_NAA_J@Z 1001e310 f i libucrtd:output.obj
 0001:0001d340       ??$extract_argument_from_va_list@C_J@?$standard_base@_WV?$stream_output_adapter@_W@__crt_stdio_output@@@__crt_stdio_output@@IAE_NAA_J@Z 1001e340 f i libucrtd:output.obj
 0001:0001d370       ??$extract_argument_from_va_list@C_J@?$standard_base@_WV?$string_output_adapter@_W@__crt_stdio_output@@@__crt_stdio_output@@IAE_NAA_J@Z 1001e370 f i libucrtd:output.obj
 0001:0001d3a0       ??$extract_argument_from_va_list@E_J@?$positional_parameter_base@DV?$stream_output_adapter@D@__crt_stdio_output@@@__crt_stdio_output@@IAE_NAA_J@Z 1001e3a0 f i libucrtd:output.obj
 0001:0001d500       ??$extract_argument_from_va_list@E_J@?$positional_parameter_base@DV?$string_output_adapter@D@__crt_stdio_output@@@__crt_stdio_output@@IAE_NAA_J@Z 1001e500 f i libucrtd:output.obj
 0001:0001d660       ??$extract_argument_from_va_list@E_J@?$positional_parameter_base@_WV?$stream_output_adapter@_W@__crt_stdio_output@@@__crt_stdio_output@@IAE_NAA_J@Z 1001e660 f i libucrtd:output.obj
 0001:0001d7d0       ??$extract_argument_from_va_list@E_J@?$positional_parameter_base@_WV?$string_output_adapter@_W@__crt_stdio_output@@@__crt_stdio_output@@IAE_NAA_J@Z 1001e7d0 f i libucrtd:output.obj
 0001:0001d940       ??$extract_argument_from_va_list@E_J@?$standard_base@DV?$stream_output_adapter@D@__crt_stdio_output@@@__crt_stdio_output@@IAE_NAA_J@Z 1001e940 f i libucrtd:output.obj
 0001:0001d970       ??$extract_argument_from_va_list@E_J@?$standard_base@DV?$string_output_adapter@D@__crt_stdio_output@@@__crt_stdio_output@@IAE_NAA_J@Z 1001e970 f i libucrtd:output.obj
 0001:0001d9a0       ??$extract_argument_from_va_list@E_J@?$standard_base@_WV?$stream_output_adapter@_W@__crt_stdio_output@@@__crt_stdio_output@@IAE_NAA_J@Z 1001e9a0 f i libucrtd:output.obj
 0001:0001d9d0       ??$extract_argument_from_va_list@E_J@?$standard_base@_WV?$string_output_adapter@_W@__crt_stdio_output@@@__crt_stdio_output@@IAE_NAA_J@Z 1001e9d0 f i libucrtd:output.obj
 0001:0001da00       ??$extract_argument_from_va_list@F_J@?$positional_parameter_base@DV?$stream_output_adapter@D@__crt_stdio_output@@@__crt_stdio_output@@IAE_NAA_J@Z 1001ea00 f i libucrtd:output.obj
 0001:0001db60       ??$extract_argument_from_va_list@F_J@?$positional_parameter_base@DV?$string_output_adapter@D@__crt_stdio_output@@@__crt_stdio_output@@IAE_NAA_J@Z 1001eb60 f i libucrtd:output.obj
 0001:0001dcc0       ??$extract_argument_from_va_list@F_J@?$positional_parameter_base@_WV?$stream_output_adapter@_W@__crt_stdio_output@@@__crt_stdio_output@@IAE_NAA_J@Z 1001ecc0 f i libucrtd:output.obj
 0001:0001de20       ??$extract_argument_from_va_list@F_J@?$positional_parameter_base@_WV?$string_output_adapter@_W@__crt_stdio_output@@@__crt_stdio_output@@IAE_NAA_J@Z 1001ee20 f i libucrtd:output.obj
 0001:0001df80       ??$extract_argument_from_va_list@F_J@?$standard_base@DV?$stream_output_adapter@D@__crt_stdio_output@@@__crt_stdio_output@@IAE_NAA_J@Z 1001ef80 f i libucrtd:output.obj
 0001:0001dfb0       ??$extract_argument_from_va_list@F_J@?$standard_base@DV?$string_output_adapter@D@__crt_stdio_output@@@__crt_stdio_output@@IAE_NAA_J@Z 1001efb0 f i libucrtd:output.obj
 0001:0001dfe0       ??$extract_argument_from_va_list@F_J@?$standard_base@_WV?$stream_output_adapter@_W@__crt_stdio_output@@@__crt_stdio_output@@IAE_NAA_J@Z 1001efe0 f i libucrtd:output.obj
 0001:0001e010       ??$extract_argument_from_va_list@F_J@?$standard_base@_WV?$string_output_adapter@_W@__crt_stdio_output@@@__crt_stdio_output@@IAE_NAA_J@Z 1001f010 f i libucrtd:output.obj
 0001:0001e040       ??$extract_argument_from_va_list@GD@?$positional_parameter_base@DV?$stream_output_adapter@D@__crt_stdio_output@@@__crt_stdio_output@@IAE_NAAD@Z 1001f040 f i libucrtd:output.obj
 0001:0001e1a0       ??$extract_argument_from_va_list@GD@?$positional_parameter_base@DV?$string_output_adapter@D@__crt_stdio_output@@@__crt_stdio_output@@IAE_NAAD@Z 1001f1a0 f i libucrtd:output.obj
 0001:0001e300       ??$extract_argument_from_va_list@GD@?$standard_base@DV?$stream_output_adapter@D@__crt_stdio_output@@@__crt_stdio_output@@IAE_NAAD@Z 1001f300 f i libucrtd:output.obj
 0001:0001e330       ??$extract_argument_from_va_list@GD@?$standard_base@DV?$string_output_adapter@D@__crt_stdio_output@@@__crt_stdio_output@@IAE_NAAD@Z 1001f330 f i libucrtd:output.obj
 0001:0001e360       ??$extract_argument_from_va_list@G_J@?$positional_parameter_base@DV?$stream_output_adapter@D@__crt_stdio_output@@@__crt_stdio_output@@IAE_NAA_J@Z 1001f360 f i libucrtd:output.obj
 0001:0001e4c0       ??$extract_argument_from_va_list@G_J@?$positional_parameter_base@DV?$string_output_adapter@D@__crt_stdio_output@@@__crt_stdio_output@@IAE_NAA_J@Z 1001f4c0 f i libucrtd:output.obj
 0001:0001e620       ??$extract_argument_from_va_list@G_J@?$positional_parameter_base@_WV?$stream_output_adapter@_W@__crt_stdio_output@@@__crt_stdio_output@@IAE_NAA_J@Z 1001f620 f i libucrtd:output.obj
 0001:0001e790       ??$extract_argument_from_va_list@G_J@?$positional_parameter_base@_WV?$string_output_adapter@_W@__crt_stdio_output@@@__crt_stdio_output@@IAE_NAA_J@Z 1001f790 f i libucrtd:output.obj
 0001:0001e900       ??$extract_argument_from_va_list@G_J@?$standard_base@DV?$stream_output_adapter@D@__crt_stdio_output@@@__crt_stdio_output@@IAE_NAA_J@Z 1001f900 f i libucrtd:output.obj
 0001:0001e930       ??$extract_argument_from_va_list@G_J@?$standard_base@DV?$string_output_adapter@D@__crt_stdio_output@@@__crt_stdio_output@@IAE_NAA_J@Z 1001f930 f i libucrtd:output.obj
 0001:0001e960       ??$extract_argument_from_va_list@G_J@?$standard_base@_WV?$stream_output_adapter@_W@__crt_stdio_output@@@__crt_stdio_output@@IAE_NAA_J@Z 1001f960 f i libucrtd:output.obj
 0001:0001e990       ??$extract_argument_from_va_list@G_J@?$standard_base@_WV?$string_output_adapter@_W@__crt_stdio_output@@@__crt_stdio_output@@IAE_NAA_J@Z 1001f990 f i libucrtd:output.obj
 0001:0001e9c0       ??$extract_argument_from_va_list@H_J@?$positional_parameter_base@DV?$stream_output_adapter@D@__crt_stdio_output@@@__crt_stdio_output@@IAE_NAA_J@Z 1001f9c0 f i libucrtd:output.obj
 0001:0001eb20       ??$extract_argument_from_va_list@H_J@?$positional_parameter_base@DV?$string_output_adapter@D@__crt_stdio_output@@@__crt_stdio_output@@IAE_NAA_J@Z 1001fb20 f i libucrtd:output.obj
 0001:0001ec80       ??$extract_argument_from_va_list@H_J@?$positional_parameter_base@_WV?$stream_output_adapter@_W@__crt_stdio_output@@@__crt_stdio_output@@IAE_NAA_J@Z 1001fc80 f i libucrtd:output.obj
 0001:0001ede0       ??$extract_argument_from_va_list@H_J@?$positional_parameter_base@_WV?$string_output_adapter@_W@__crt_stdio_output@@@__crt_stdio_output@@IAE_NAA_J@Z 1001fde0 f i libucrtd:output.obj
 0001:0001ef40       ??$extract_argument_from_va_list@H_J@?$standard_base@DV?$stream_output_adapter@D@__crt_stdio_output@@@__crt_stdio_output@@IAE_NAA_J@Z 1001ff40 f i libucrtd:output.obj
 0001:0001ef70       ??$extract_argument_from_va_list@H_J@?$standard_base@DV?$string_output_adapter@D@__crt_stdio_output@@@__crt_stdio_output@@IAE_NAA_J@Z 1001ff70 f i libucrtd:output.obj
 0001:0001efa0       ??$extract_argument_from_va_list@H_J@?$standard_base@_WV?$stream_output_adapter@_W@__crt_stdio_output@@@__crt_stdio_output@@IAE_NAA_J@Z 1001ffa0 f i libucrtd:output.obj
 0001:0001efd0       ??$extract_argument_from_va_list@H_J@?$standard_base@_WV?$string_output_adapter@_W@__crt_stdio_output@@@__crt_stdio_output@@IAE_NAA_J@Z 1001ffd0 f i libucrtd:output.obj
 0001:0001f000       ??$extract_argument_from_va_list@I_J@?$positional_parameter_base@DV?$stream_output_adapter@D@__crt_stdio_output@@@__crt_stdio_output@@IAE_NAA_J@Z 10020000 f i libucrtd:output.obj
 0001:0001f160       ??$extract_argument_from_va_list@I_J@?$positional_parameter_base@DV?$string_output_adapter@D@__crt_stdio_output@@@__crt_stdio_output@@IAE_NAA_J@Z 10020160 f i libucrtd:output.obj
 0001:0001f2c0       ??$extract_argument_from_va_list@I_J@?$positional_parameter_base@_WV?$stream_output_adapter@_W@__crt_stdio_output@@@__crt_stdio_output@@IAE_NAA_J@Z 100202c0 f i libucrtd:output.obj
 0001:0001f420       ??$extract_argument_from_va_list@I_J@?$positional_parameter_base@_WV?$string_output_adapter@_W@__crt_stdio_output@@@__crt_stdio_output@@IAE_NAA_J@Z 10020420 f i libucrtd:output.obj
 0001:0001f580       ??$extract_argument_from_va_list@I_J@?$standard_base@DV?$stream_output_adapter@D@__crt_stdio_output@@@__crt_stdio_output@@IAE_NAA_J@Z 10020580 f i libucrtd:output.obj
 0001:0001f5b0       ??$extract_argument_from_va_list@I_J@?$standard_base@DV?$string_output_adapter@D@__crt_stdio_output@@@__crt_stdio_output@@IAE_NAA_J@Z 100205b0 f i libucrtd:output.obj
 0001:0001f5e0       ??$extract_argument_from_va_list@I_J@?$standard_base@_WV?$stream_output_adapter@_W@__crt_stdio_output@@@__crt_stdio_output@@IAE_NAA_J@Z 100205e0 f i libucrtd:output.obj
 0001:0001f610       ??$extract_argument_from_va_list@I_J@?$standard_base@_WV?$string_output_adapter@_W@__crt_stdio_output@@@__crt_stdio_output@@IAE_NAA_J@Z 10020610 f i libucrtd:output.obj
 0001:0001f640       ??$extract_argument_from_va_list@PADPAD@?$positional_parameter_base@DV?$stream_output_adapter@D@__crt_stdio_output@@@__crt_stdio_output@@IAE_NAAPAD@Z 10020640 f i libucrtd:output.obj
 0001:0001f7a0       ??$extract_argument_from_va_list@PADPAD@?$positional_parameter_base@DV?$string_output_adapter@D@__crt_stdio_output@@@__crt_stdio_output@@IAE_NAAPAD@Z 100207a0 f i libucrtd:output.obj
 0001:0001f900       ??$extract_argument_from_va_list@PADPAD@?$positional_parameter_base@_WV?$stream_output_adapter@_W@__crt_stdio_output@@@__crt_stdio_output@@IAE_NAAPAD@Z 10020900 f i libucrtd:output.obj
 0001:0001fa60       ??$extract_argument_from_va_list@PADPAD@?$positional_parameter_base@_WV?$string_output_adapter@_W@__crt_stdio_output@@@__crt_stdio_output@@IAE_NAAPAD@Z 10020a60 f i libucrtd:output.obj
 0001:0001fbc0       ??$extract_argument_from_va_list@PADPAD@?$standard_base@DV?$stream_output_adapter@D@__crt_stdio_output@@@__crt_stdio_output@@IAE_NAAPAD@Z 10020bc0 f i libucrtd:output.obj
 0001:0001fbf0       ??$extract_argument_from_va_list@PADPAD@?$standard_base@DV?$string_output_adapter@D@__crt_stdio_output@@@__crt_stdio_output@@IAE_NAAPAD@Z 10020bf0 f i libucrtd:output.obj
 0001:0001fc20       ??$extract_argument_from_va_list@PADPAD@?$standard_base@_WV?$stream_output_adapter@_W@__crt_stdio_output@@@__crt_stdio_output@@IAE_NAAPAD@Z 10020c20 f i libucrtd:output.obj
 0001:0001fc50       ??$extract_argument_from_va_list@PADPAD@?$standard_base@_WV?$string_output_adapter@_W@__crt_stdio_output@@@__crt_stdio_output@@IAE_NAAPAD@Z 10020c50 f i libucrtd:output.obj
 0001:0001fc80       ??$extract_argument_from_va_list@PAUansi_string@?1??type_case_Z@?$output_processor@DV?$stream_output_adapter@D@__crt_stdio_output@@V?$format_validation_base@DV?$stream_output_adapter@D@__crt_stdio_output@@@2@@__crt_stdio_output@@AAE_NXZ@PAU1?1??234@AAE_NXZ@@?$standard_base@DV?$stream_output_adapter@D@__crt_stdio_output@@@__crt_stdio_output@@IAE_NAAPAUansi_string@?1??type_case_Z@?$output_processor@DV?$stream_output_adapter@D@__crt_stdio_output@@V?$format_validation_base@DV?$stream_output_adapter@D@__crt_stdio_output@@@2@@1@AAE_NXZ@@Z 10020c80 f i libucrtd:output.obj
 0001:0001fcb0       ??$extract_argument_from_va_list@PAUansi_string@?1??type_case_Z@?$output_processor@DV?$stream_output_adapter@D@__crt_stdio_output@@V?$positional_parameter_base@DV?$stream_output_adapter@D@__crt_stdio_output@@@2@@__crt_stdio_output@@AAE_NXZ@PAU1?1??234@AAE_NXZ@@?$positional_parameter_base@DV?$stream_output_adapter@D@__crt_stdio_output@@@__crt_stdio_output@@IAE_NAAPAUansi_string@?1??type_case_Z@?$output_processor@DV?$stream_output_adapter@D@__crt_stdio_output@@V?$positional_parameter_base@DV?$stream_output_adapter@D@__crt_stdio_output@@@2@@1@AAE_NXZ@@Z 10020cb0 f i libucrtd:output.obj
 0001:0001fe10       ??$extract_argument_from_va_list@PAUansi_string@?1??type_case_Z@?$output_processor@DV?$stream_output_adapter@D@__crt_stdio_output@@V?$positional_parameter_base@DV?$stream_output_adapter@D@__crt_stdio_output@@@2@@__crt_stdio_output@@AAE_NXZ@PAU1?1??234@AAE_NXZ@@?$standard_base@DV?$stream_output_adapter@D@__crt_stdio_output@@@__crt_stdio_output@@IAE_NAAPAUansi_string@?1??type_case_Z@?$output_processor@DV?$stream_output_adapter@D@__crt_stdio_output@@V?$positional_parameter_base@DV?$stream_output_adapter@D@__crt_stdio_output@@@2@@1@AAE_NXZ@@Z 10020e10 f i libucrtd:output.obj
 0001:0001fe40       ??$extract_argument_from_va_list@PAUansi_string@?1??type_case_Z@?$output_processor@DV?$stream_output_adapter@D@__crt_stdio_output@@V?$standard_base@DV?$stream_output_adapter@D@__crt_stdio_output@@@2@@__crt_stdio_output@@AAE_NXZ@PAU1?1??234@AAE_NXZ@@?$standard_base@DV?$stream_output_adapter@D@__crt_stdio_output@@@__crt_stdio_output@@IAE_NAAPAUansi_string@?1??type_case_Z@?$output_processor@DV?$stream_output_adapter@D@__crt_stdio_output@@V?$standard_base@DV?$stream_output_adapter@D@__crt_stdio_output@@@2@@1@AAE_NXZ@@Z 10020e40 f i libucrtd:output.obj
 0001:0001fe70       ??$extract_argument_from_va_list@PAUansi_string@?1??type_case_Z@?$output_processor@DV?$string_output_adapter@D@__crt_stdio_output@@V?$format_validation_base@DV?$string_output_adapter@D@__crt_stdio_output@@@2@@__crt_stdio_output@@AAE_NXZ@PAU1?1??234@AAE_NXZ@@?$standard_base@DV?$string_output_adapter@D@__crt_stdio_output@@@__crt_stdio_output@@IAE_NAAPAUansi_string@?1??type_case_Z@?$output_processor@DV?$string_output_adapter@D@__crt_stdio_output@@V?$format_validation_base@DV?$string_output_adapter@D@__crt_stdio_output@@@2@@1@AAE_NXZ@@Z 10020e70 f i libucrtd:output.obj
 0001:0001fea0       ??$extract_argument_from_va_list@PAUansi_string@?1??type_case_Z@?$output_processor@DV?$string_output_adapter@D@__crt_stdio_output@@V?$positional_parameter_base@DV?$string_output_adapter@D@__crt_stdio_output@@@2@@__crt_stdio_output@@AAE_NXZ@PAU1?1??234@AAE_NXZ@@?$positional_parameter_base@DV?$string_output_adapter@D@__crt_stdio_output@@@__crt_stdio_output@@IAE_NAAPAUansi_string@?1??type_case_Z@?$output_processor@DV?$string_output_adapter@D@__crt_stdio_output@@V?$positional_parameter_base@DV?$string_output_adapter@D@__crt_stdio_output@@@2@@1@AAE_NXZ@@Z 10020ea0 f i libucrtd:output.obj
 0001:00020000       ??$extract_argument_from_va_list@PAUansi_string@?1??type_case_Z@?$output_processor@DV?$string_output_adapter@D@__crt_stdio_output@@V?$positional_parameter_base@DV?$string_output_adapter@D@__crt_stdio_output@@@2@@__crt_stdio_output@@AAE_NXZ@PAU1?1??234@AAE_NXZ@@?$standard_base@DV?$string_output_adapter@D@__crt_stdio_output@@@__crt_stdio_output@@IAE_NAAPAUansi_string@?1??type_case_Z@?$output_processor@DV?$string_output_adapter@D@__crt_stdio_output@@V?$positional_parameter_base@DV?$string_output_adapter@D@__crt_stdio_output@@@2@@1@AAE_NXZ@@Z 10021000 f i libucrtd:output.obj
 0001:00020030       ??$extract_argument_from_va_list@PAUansi_string@?1??type_case_Z@?$output_processor@DV?$string_output_adapter@D@__crt_stdio_output@@V?$standard_base@DV?$string_output_adapter@D@__crt_stdio_output@@@2@@__crt_stdio_output@@AAE_NXZ@PAU1?1??234@AAE_NXZ@@?$standard_base@DV?$string_output_adapter@D@__crt_stdio_output@@@__crt_stdio_output@@IAE_NAAPAUansi_string@?1??type_case_Z@?$output_processor@DV?$string_output_adapter@D@__crt_stdio_output@@V?$standard_base@DV?$string_output_adapter@D@__crt_stdio_output@@@2@@1@AAE_NXZ@@Z 10021030 f i libucrtd:output.obj
 0001:00020060       ??$extract_argument_from_va_list@PAUansi_string@?1??type_case_Z@?$output_processor@_WV?$stream_output_adapter@_W@__crt_stdio_output@@V?$format_validation_base@_WV?$stream_output_adapter@_W@__crt_stdio_output@@@2@@__crt_stdio_output@@AAE_NXZ@PAU1?1??234@AAE_NXZ@@?$standard_base@_WV?$stream_output_adapter@_W@__crt_stdio_output@@@__crt_stdio_output@@IAE_NAAPAUansi_string@?1??type_case_Z@?$output_processor@_WV?$stream_output_adapter@_W@__crt_stdio_output@@V?$format_validation_base@_WV?$stream_output_adapter@_W@__crt_stdio_output@@@2@@1@AAE_NXZ@@Z 10021060 f i libucrtd:output.obj
 0001:00020090       ??$extract_argument_from_va_list@PAUansi_string@?1??type_case_Z@?$output_processor@_WV?$stream_output_adapter@_W@__crt_stdio_output@@V?$positional_parameter_base@_WV?$stream_output_adapter@_W@__crt_stdio_output@@@2@@__crt_stdio_output@@AAE_NXZ@PAU1?1??234@AAE_NXZ@@?$positional_parameter_base@_WV?$stream_output_adapter@_W@__crt_stdio_output@@@__crt_stdio_output@@IAE_NAAPAUansi_string@?1??type_case_Z@?$output_processor@_WV?$stream_output_adapter@_W@__crt_stdio_output@@V?$positional_parameter_base@_WV?$stream_output_adapter@_W@__crt_stdio_output@@@2@@1@AAE_NXZ@@Z 10021090 f i libucrtd:output.obj
 0001:000201f0       ??$extract_argument_from_va_list@PAUansi_string@?1??type_case_Z@?$output_processor@_WV?$stream_output_adapter@_W@__crt_stdio_output@@V?$positional_parameter_base@_WV?$stream_output_adapter@_W@__crt_stdio_output@@@2@@__crt_stdio_output@@AAE_NXZ@PAU1?1??234@AAE_NXZ@@?$standard_base@_WV?$stream_output_adapter@_W@__crt_stdio_output@@@__crt_stdio_output@@IAE_NAAPAUansi_string@?1??type_case_Z@?$output_processor@_WV?$stream_output_adapter@_W@__crt_stdio_output@@V?$positional_parameter_base@_WV?$stream_output_adapter@_W@__crt_stdio_output@@@2@@1@AAE_NXZ@@Z 100211f0 f i libucrtd:output.obj
 0001:00020220       ??$extract_argument_from_va_list@PAUansi_string@?1??type_case_Z@?$output_processor@_WV?$stream_output_adapter@_W@__crt_stdio_output@@V?$standard_base@_WV?$stream_output_adapter@_W@__crt_stdio_output@@@2@@__crt_stdio_output@@AAE_NXZ@PAU1?1??234@AAE_NXZ@@?$standard_base@_WV?$stream_output_adapter@_W@__crt_stdio_output@@@__crt_stdio_output@@IAE_NAAPAUansi_string@?1??type_case_Z@?$output_processor@_WV?$stream_output_adapter@_W@__crt_stdio_output@@V?$standard_base@_WV?$stream_output_adapter@_W@__crt_stdio_output@@@2@@1@AAE_NXZ@@Z 10021220 f i libucrtd:output.obj
 0001:00020250       ??$extract_argument_from_va_list@PAUansi_string@?1??type_case_Z@?$output_processor@_WV?$string_output_adapter@_W@__crt_stdio_output@@V?$format_validation_base@_WV?$string_output_adapter@_W@__crt_stdio_output@@@2@@__crt_stdio_output@@AAE_NXZ@PAU1?1??234@AAE_NXZ@@?$standard_base@_WV?$string_output_adapter@_W@__crt_stdio_output@@@__crt_stdio_output@@IAE_NAAPAUansi_string@?1??type_case_Z@?$output_processor@_WV?$string_output_adapter@_W@__crt_stdio_output@@V?$format_validation_base@_WV?$string_output_adapter@_W@__crt_stdio_output@@@2@@1@AAE_NXZ@@Z 10021250 f i libucrtd:output.obj
 0001:00020280       ??$extract_argument_from_va_list@PAUansi_string@?1??type_case_Z@?$output_processor@_WV?$string_output_adapter@_W@__crt_stdio_output@@V?$positional_parameter_base@_WV?$string_output_adapter@_W@__crt_stdio_output@@@2@@__crt_stdio_output@@AAE_NXZ@PAU1?1??234@AAE_NXZ@@?$positional_parameter_base@_WV?$string_output_adapter@_W@__crt_stdio_output@@@__crt_stdio_output@@IAE_NAAPAUansi_string@?1??type_case_Z@?$output_processor@_WV?$string_output_adapter@_W@__crt_stdio_output@@V?$positional_parameter_base@_WV?$string_output_adapter@_W@__crt_stdio_output@@@2@@1@AAE_NXZ@@Z 10021280 f i libucrtd:output.obj
 0001:000203e0       ??$extract_argument_from_va_list@PAUansi_string@?1??type_case_Z@?$output_processor@_WV?$string_output_adapter@_W@__crt_stdio_output@@V?$positional_parameter_base@_WV?$string_output_adapter@_W@__crt_stdio_output@@@2@@__crt_stdio_output@@AAE_NXZ@PAU1?1??234@AAE_NXZ@@?$standard_base@_WV?$string_output_adapter@_W@__crt_stdio_output@@@__crt_stdio_output@@IAE_NAAPAUansi_string@?1??type_case_Z@?$output_processor@_WV?$string_output_adapter@_W@__crt_stdio_output@@V?$positional_parameter_base@_WV?$string_output_adapter@_W@__crt_stdio_output@@@2@@1@AAE_NXZ@@Z 100213e0 f i libucrtd:output.obj
 0001:00020410       ??$extract_argument_from_va_list@PAUansi_string@?1??type_case_Z@?$output_processor@_WV?$string_output_adapter@_W@__crt_stdio_output@@V?$standard_base@_WV?$string_output_adapter@_W@__crt_stdio_output@@@2@@__crt_stdio_output@@AAE_NXZ@PAU1?1??234@AAE_NXZ@@?$standard_base@_WV?$string_output_adapter@_W@__crt_stdio_output@@@__crt_stdio_output@@IAE_NAAPAUansi_string@?1??type_case_Z@?$output_processor@_WV?$string_output_adapter@_W@__crt_stdio_output@@V?$standard_base@_WV?$string_output_adapter@_W@__crt_stdio_output@@@2@@1@AAE_NXZ@@Z 10021410 f i libucrtd:output.obj
 0001:00020440       ??$extract_argument_from_va_list@PAXPAX@?$positional_parameter_base@DV?$stream_output_adapter@D@__crt_stdio_output@@@__crt_stdio_output@@IAE_NAAPAX@Z 10021440 f i libucrtd:output.obj
 0001:000205a0       ??$extract_argument_from_va_list@PAXPAX@?$positional_parameter_base@DV?$string_output_adapter@D@__crt_stdio_output@@@__crt_stdio_output@@IAE_NAAPAX@Z 100215a0 f i libucrtd:output.obj
 0001:00020700       ??$extract_argument_from_va_list@PAXPAX@?$positional_parameter_base@_WV?$stream_output_adapter@_W@__crt_stdio_output@@@__crt_stdio_output@@IAE_NAAPAX@Z 10021700 f i libucrtd:output.obj
 0001:00020860       ??$extract_argument_from_va_list@PAXPAX@?$positional_parameter_base@_WV?$string_output_adapter@_W@__crt_stdio_output@@@__crt_stdio_output@@IAE_NAAPAX@Z 10021860 f i libucrtd:output.obj
 0001:000209c0       ??$extract_argument_from_va_list@PAXPAX@?$standard_base@DV?$stream_output_adapter@D@__crt_stdio_output@@@__crt_stdio_output@@IAE_NAAPAX@Z 100219c0 f i libucrtd:output.obj
 0001:000209f0       ??$extract_argument_from_va_list@PAXPAX@?$standard_base@DV?$string_output_adapter@D@__crt_stdio_output@@@__crt_stdio_output@@IAE_NAAPAX@Z 100219f0 f i libucrtd:output.obj
 0001:00020a20       ??$extract_argument_from_va_list@PAXPAX@?$standard_base@_WV?$stream_output_adapter@_W@__crt_stdio_output@@@__crt_stdio_output@@IAE_NAAPAX@Z 10021a20 f i libucrtd:output.obj
 0001:00020a50       ??$extract_argument_from_va_list@PAXPAX@?$standard_base@_WV?$string_output_adapter@_W@__crt_stdio_output@@@__crt_stdio_output@@IAE_NAAPAX@Z 10021a50 f i libucrtd:output.obj
 0001:00020a80       ??$extract_argument_from_va_list@U_CRT_DOUBLE@@U1@@?$positional_parameter_base@DV?$stream_output_adapter@D@__crt_stdio_output@@@__crt_stdio_output@@IAE_NAAU_CRT_DOUBLE@@@Z 10021a80 f i libucrtd:output.obj
 0001:00020c10       ??$extract_argument_from_va_list@U_CRT_DOUBLE@@U1@@?$positional_parameter_base@DV?$string_output_adapter@D@__crt_stdio_output@@@__crt_stdio_output@@IAE_NAAU_CRT_DOUBLE@@@Z 10021c10 f i libucrtd:output.obj
 0001:00020da0       ??$extract_argument_from_va_list@U_CRT_DOUBLE@@U1@@?$positional_parameter_base@_WV?$stream_output_adapter@_W@__crt_stdio_output@@@__crt_stdio_output@@IAE_NAAU_CRT_DOUBLE@@@Z 10021da0 f i libucrtd:output.obj
 0001:00020f30       ??$extract_argument_from_va_list@U_CRT_DOUBLE@@U1@@?$positional_parameter_base@_WV?$string_output_adapter@_W@__crt_stdio_output@@@__crt_stdio_output@@IAE_NAAU_CRT_DOUBLE@@@Z 10021f30 f i libucrtd:output.obj
 0001:000210c0       ??$extract_argument_from_va_list@U_CRT_DOUBLE@@U1@@?$standard_base@DV?$stream_output_adapter@D@__crt_stdio_output@@@__crt_stdio_output@@IAE_NAAU_CRT_DOUBLE@@@Z 100220c0 f i libucrtd:output.obj
 0001:00021110       ??$extract_argument_from_va_list@U_CRT_DOUBLE@@U1@@?$standard_base@DV?$string_output_adapter@D@__crt_stdio_output@@@__crt_stdio_output@@IAE_NAAU_CRT_DOUBLE@@@Z 10022110 f i libucrtd:output.obj
 0001:00021160       ??$extract_argument_from_va_list@U_CRT_DOUBLE@@U1@@?$standard_base@_WV?$stream_output_adapter@_W@__crt_stdio_output@@@__crt_stdio_output@@IAE_NAAU_CRT_DOUBLE@@@Z 10022160 f i libucrtd:output.obj
 0001:000211b0       ??$extract_argument_from_va_list@U_CRT_DOUBLE@@U1@@?$standard_base@_WV?$string_output_adapter@_W@__crt_stdio_output@@@__crt_stdio_output@@IAE_NAAU_CRT_DOUBLE@@@Z 100221b0 f i libucrtd:output.obj
 0001:00021200       ??$extract_argument_from_va_list@_J_J@?$positional_parameter_base@DV?$stream_output_adapter@D@__crt_stdio_output@@@__crt_stdio_output@@IAE_NAA_J@Z 10022200 f i libucrtd:output.obj
 0001:00021360       ??$extract_argument_from_va_list@_J_J@?$positional_parameter_base@DV?$string_output_adapter@D@__crt_stdio_output@@@__crt_stdio_output@@IAE_NAA_J@Z 10022360 f i libucrtd:output.obj
 0001:000214c0       ??$extract_argument_from_va_list@_J_J@?$positional_parameter_base@_WV?$stream_output_adapter@_W@__crt_stdio_output@@@__crt_stdio_output@@IAE_NAA_J@Z 100224c0 f i libucrtd:output.obj
 0001:00021620       ??$extract_argument_from_va_list@_J_J@?$positional_parameter_base@_WV?$string_output_adapter@_W@__crt_stdio_output@@@__crt_stdio_output@@IAE_NAA_J@Z 10022620 f i libucrtd:output.obj
 0001:00021780       ??$extract_argument_from_va_list@_J_J@?$standard_base@DV?$stream_output_adapter@D@__crt_stdio_output@@@__crt_stdio_output@@IAE_NAA_J@Z 10022780 f i libucrtd:output.obj
 0001:000217b0       ??$extract_argument_from_va_list@_J_J@?$standard_base@DV?$string_output_adapter@D@__crt_stdio_output@@@__crt_stdio_output@@IAE_NAA_J@Z 100227b0 f i libucrtd:output.obj
 0001:000217e0       ??$extract_argument_from_va_list@_J_J@?$standard_base@_WV?$stream_output_adapter@_W@__crt_stdio_output@@@__crt_stdio_output@@IAE_NAA_J@Z 100227e0 f i libucrtd:output.obj
 0001:00021810       ??$extract_argument_from_va_list@_J_J@?$standard_base@_WV?$string_output_adapter@_W@__crt_stdio_output@@@__crt_stdio_output@@IAE_NAA_J@Z 10022810 f i libucrtd:output.obj
 0001:00021840       ??$extract_argument_from_va_list@_K_J@?$positional_parameter_base@DV?$stream_output_adapter@D@__crt_stdio_output@@@__crt_stdio_output@@IAE_NAA_J@Z 10022840 f i libucrtd:output.obj
 0001:000219a0       ??$extract_argument_from_va_list@_K_J@?$positional_parameter_base@DV?$string_output_adapter@D@__crt_stdio_output@@@__crt_stdio_output@@IAE_NAA_J@Z 100229a0 f i libucrtd:output.obj
 0001:00021b00       ??$extract_argument_from_va_list@_K_J@?$positional_parameter_base@_WV?$stream_output_adapter@_W@__crt_stdio_output@@@__crt_stdio_output@@IAE_NAA_J@Z 10022b00 f i libucrtd:output.obj
 0001:00021c60       ??$extract_argument_from_va_list@_K_J@?$positional_parameter_base@_WV?$string_output_adapter@_W@__crt_stdio_output@@@__crt_stdio_output@@IAE_NAA_J@Z 10022c60 f i libucrtd:output.obj
 0001:00021dc0       ??$extract_argument_from_va_list@_K_J@?$standard_base@DV?$stream_output_adapter@D@__crt_stdio_output@@@__crt_stdio_output@@IAE_NAA_J@Z 10022dc0 f i libucrtd:output.obj
 0001:00021df0       ??$extract_argument_from_va_list@_K_J@?$standard_base@DV?$string_output_adapter@D@__crt_stdio_output@@@__crt_stdio_output@@IAE_NAA_J@Z 10022df0 f i libucrtd:output.obj
 0001:00021e20       ??$extract_argument_from_va_list@_K_J@?$standard_base@_WV?$stream_output_adapter@_W@__crt_stdio_output@@@__crt_stdio_output@@IAE_NAA_J@Z 10022e20 f i libucrtd:output.obj
 0001:00021e50       ??$extract_argument_from_va_list@_K_J@?$standard_base@_WV?$string_output_adapter@_W@__crt_stdio_output@@@__crt_stdio_output@@IAE_NAA_J@Z 10022e50 f i libucrtd:output.obj
 0001:00021e80       ??$extract_argument_from_va_list@_W_W@?$positional_parameter_base@DV?$stream_output_adapter@D@__crt_stdio_output@@@__crt_stdio_output@@IAE_NAA_W@Z 10022e80 f i libucrtd:output.obj
 0001:00021fe0       ??$extract_argument_from_va_list@_W_W@?$positional_parameter_base@DV?$string_output_adapter@D@__crt_stdio_output@@@__crt_stdio_output@@IAE_NAA_W@Z 10022fe0 f i libucrtd:output.obj
 0001:00022140       ??$extract_argument_from_va_list@_W_W@?$positional_parameter_base@_WV?$stream_output_adapter@_W@__crt_stdio_output@@@__crt_stdio_output@@IAE_NAA_W@Z 10023140 f i libucrtd:output.obj
 0001:000222a0       ??$extract_argument_from_va_list@_W_W@?$positional_parameter_base@_WV?$string_output_adapter@_W@__crt_stdio_output@@@__crt_stdio_output@@IAE_NAA_W@Z 100232a0 f i libucrtd:output.obj
 0001:00022400       ??$extract_argument_from_va_list@_W_W@?$standard_base@DV?$stream_output_adapter@D@__crt_stdio_output@@@__crt_stdio_output@@IAE_NAA_W@Z 10023400 f i libucrtd:output.obj
 0001:00022430       ??$extract_argument_from_va_list@_W_W@?$standard_base@DV?$string_output_adapter@D@__crt_stdio_output@@@__crt_stdio_output@@IAE_NAA_W@Z 10023430 f i libucrtd:output.obj
 0001:00022460       ??$extract_argument_from_va_list@_W_W@?$standard_base@_WV?$stream_output_adapter@_W@__crt_stdio_output@@@__crt_stdio_output@@IAE_NAA_W@Z 10023460 f i libucrtd:output.obj
 0001:00022490       ??$extract_argument_from_va_list@_W_W@?$standard_base@_WV?$string_output_adapter@_W@__crt_stdio_output@@@__crt_stdio_output@@IAE_NAA_W@Z 10023490 f i libucrtd:output.obj
 0001:000224c0       ??$get_parameter_type@D@?$positional_parameter_base@DV?$stream_output_adapter@D@__crt_stdio_output@@@__crt_stdio_output@@CA?AW4parameter_type@01@PAD@Z 100234c0 f i libucrtd:output.obj
 0001:000224d0       ??$get_parameter_type@D@?$positional_parameter_base@DV?$string_output_adapter@D@__crt_stdio_output@@@__crt_stdio_output@@CA?AW4parameter_type@01@PAD@Z 100234d0 f i libucrtd:output.obj
 0001:000224e0       ??$get_parameter_type@D@?$positional_parameter_base@_WV?$stream_output_adapter@_W@__crt_stdio_output@@@__crt_stdio_output@@CA?AW4parameter_type@01@PAD@Z 100234e0 f i libucrtd:output.obj
 0001:000224f0       ??$get_parameter_type@D@?$positional_parameter_base@_WV?$string_output_adapter@_W@__crt_stdio_output@@@__crt_stdio_output@@CA?AW4parameter_type@01@PAD@Z 100234f0 f i libucrtd:output.obj
 0001:00022500       ??$get_parameter_type@Uansi_string@?1??type_case_Z@?$output_processor@DV?$stream_output_adapter@D@__crt_stdio_output@@V?$positional_parameter_base@DV?$stream_output_adapter@D@__crt_stdio_output@@@2@@__crt_stdio_output@@AAE_NXZ@@?$positional_parameter_base@DV?$stream_output_adapter@D@__crt_stdio_output@@@__crt_stdio_output@@CA?AW4parameter_type@01@PAUansi_string@?1??type_case_Z@?$output_processor@DV?$stream_output_adapter@D@__crt_stdio_output@@V?$positional_parameter_base@DV?$stream_output_adapter@D@__crt_stdio_output@@@2@@1@AAE_NXZ@@Z 10023500 f i libucrtd:output.obj
 0001:00022510       ??$get_parameter_type@Uansi_string@?1??type_case_Z@?$output_processor@DV?$string_output_adapter@D@__crt_stdio_output@@V?$positional_parameter_base@DV?$string_output_adapter@D@__crt_stdio_output@@@2@@__crt_stdio_output@@AAE_NXZ@@?$positional_parameter_base@DV?$string_output_adapter@D@__crt_stdio_output@@@__crt_stdio_output@@CA?AW4parameter_type@01@PAUansi_string@?1??type_case_Z@?$output_processor@DV?$string_output_adapter@D@__crt_stdio_output@@V?$positional_parameter_base@DV?$string_output_adapter@D@__crt_stdio_output@@@2@@1@AAE_NXZ@@Z 10023510 f i libucrtd:output.obj
 0001:00022520       ??$get_parameter_type@Uansi_string@?1??type_case_Z@?$output_processor@_WV?$stream_output_adapter@_W@__crt_stdio_output@@V?$positional_parameter_base@_WV?$stream_output_adapter@_W@__crt_stdio_output@@@2@@__crt_stdio_output@@AAE_NXZ@@?$positional_parameter_base@_WV?$stream_output_adapter@_W@__crt_stdio_output@@@__crt_stdio_output@@CA?AW4parameter_type@01@PAUansi_string@?1??type_case_Z@?$output_processor@_WV?$stream_output_adapter@_W@__crt_stdio_output@@V?$positional_parameter_base@_WV?$stream_output_adapter@_W@__crt_stdio_output@@@2@@1@AAE_NXZ@@Z 10023520 f i libucrtd:output.obj
 0001:00022530       ??$get_parameter_type@Uansi_string@?1??type_case_Z@?$output_processor@_WV?$string_output_adapter@_W@__crt_stdio_output@@V?$positional_parameter_base@_WV?$string_output_adapter@_W@__crt_stdio_output@@@2@@__crt_stdio_output@@AAE_NXZ@@?$positional_parameter_base@_WV?$string_output_adapter@_W@__crt_stdio_output@@@__crt_stdio_output@@CA?AW4parameter_type@01@PAUansi_string@?1??type_case_Z@?$output_processor@_WV?$string_output_adapter@_W@__crt_stdio_output@@V?$positional_parameter_base@_WV?$string_output_adapter@_W@__crt_stdio_output@@@2@@1@AAE_NXZ@@Z 10023530 f i libucrtd:output.obj
 0001:00022540       ??$get_parameter_type@X@?$positional_parameter_base@DV?$stream_output_adapter@D@__crt_stdio_output@@@__crt_stdio_output@@CA?AW4parameter_type@01@PAX@Z 10023540 f i libucrtd:output.obj
 0001:00022550       ??$get_parameter_type@X@?$positional_parameter_base@DV?$string_output_adapter@D@__crt_stdio_output@@@__crt_stdio_output@@CA?AW4parameter_type@01@PAX@Z 10023550 f i libucrtd:output.obj
 0001:00022560       ??$get_parameter_type@X@?$positional_parameter_base@_WV?$stream_output_adapter@_W@__crt_stdio_output@@@__crt_stdio_output@@CA?AW4parameter_type@01@PAX@Z 10023560 f i libucrtd:output.obj
 0001:00022570       ??$get_parameter_type@X@?$positional_parameter_base@_WV?$string_output_adapter@_W@__crt_stdio_output@@@__crt_stdio_output@@CA?AW4parameter_type@01@PAX@Z 10023570 f i libucrtd:output.obj
 0001:00022580       ??$is_character_specifier@D@?$positional_parameter_base@DV?$stream_output_adapter@D@__crt_stdio_output@@@__crt_stdio_output@@CA_ND@Z 10023580 f i libucrtd:output.obj
 0001:000225b0       ??$is_character_specifier@D@?$positional_parameter_base@DV?$string_output_adapter@D@__crt_stdio_output@@@__crt_stdio_output@@CA_ND@Z 100235b0 f i libucrtd:output.obj
 0001:000225e0       ??$is_character_specifier@_W@?$positional_parameter_base@_WV?$stream_output_adapter@_W@__crt_stdio_output@@@__crt_stdio_output@@CA_N_W@Z 100235e0 f i libucrtd:output.obj
 0001:00022610       ??$is_character_specifier@_W@?$positional_parameter_base@_WV?$string_output_adapter@_W@__crt_stdio_output@@@__crt_stdio_output@@CA_N_W@Z 10023610 f i libucrtd:output.obj
 0001:00022640       ??$is_integral_specifier@D@?$positional_parameter_base@DV?$stream_output_adapter@D@__crt_stdio_output@@@__crt_stdio_output@@CA_ND@Z 10023640 f i libucrtd:output.obj
 0001:000226a0       ??$is_integral_specifier@D@?$positional_parameter_base@DV?$string_output_adapter@D@__crt_stdio_output@@@__crt_stdio_output@@CA_ND@Z 100236a0 f i libucrtd:output.obj
 0001:00022700       ??$is_integral_specifier@_W@?$positional_parameter_base@_WV?$stream_output_adapter@_W@__crt_stdio_output@@@__crt_stdio_output@@CA_N_W@Z 10023700 f i libucrtd:output.obj
 0001:00022760       ??$is_integral_specifier@_W@?$positional_parameter_base@_WV?$string_output_adapter@_W@__crt_stdio_output@@@__crt_stdio_output@@CA_N_W@Z 10023760 f i libucrtd:output.obj
 0001:000227c0       ??$is_overflow_condition@K@__crt_strtox@@YA_NIK@Z 100237c0 f i libucrtd:output.obj
 0001:00022820       ??$is_pointer_specifier@D@?$positional_parameter_base@DV?$stream_output_adapter@D@__crt_stdio_output@@@__crt_stdio_output@@CA_ND@Z 10023820 f i libucrtd:output.obj
 0001:00022850       ??$is_pointer_specifier@D@?$positional_parameter_base@DV?$string_output_adapter@D@__crt_stdio_output@@@__crt_stdio_output@@CA_ND@Z 10023850 f i libucrtd:output.obj
 0001:00022880       ??$is_pointer_specifier@_W@?$positional_parameter_base@_WV?$stream_output_adapter@_W@__crt_stdio_output@@@__crt_stdio_output@@CA_N_W@Z 10023880 f i libucrtd:output.obj
 0001:000228b0       ??$is_pointer_specifier@_W@?$positional_parameter_base@_WV?$string_output_adapter@_W@__crt_stdio_output@@@__crt_stdio_output@@CA_N_W@Z 100238b0 f i libucrtd:output.obj
 0001:000228e0       ??$is_string_specifier@D@?$positional_parameter_base@DV?$stream_output_adapter@D@__crt_stdio_output@@@__crt_stdio_output@@CA_ND@Z 100238e0 f i libucrtd:output.obj
 0001:00022910       ??$is_string_specifier@D@?$positional_parameter_base@DV?$string_output_adapter@D@__crt_stdio_output@@@__crt_stdio_output@@CA_ND@Z 10023910 f i libucrtd:output.obj
 0001:00022940       ??$is_string_specifier@_W@?$positional_parameter_base@_WV?$stream_output_adapter@_W@__crt_stdio_output@@@__crt_stdio_output@@CA_N_W@Z 10023940 f i libucrtd:output.obj
 0001:00022970       ??$is_string_specifier@_W@?$positional_parameter_base@_WV?$string_output_adapter@_W@__crt_stdio_output@@@__crt_stdio_output@@CA_N_W@Z 10023970 f i libucrtd:output.obj
 0001:000229a0       ??$is_wide_character_specifier@D@__crt_stdio_output@@YA_N_KDW4length_modifier@0@@Z 100239a0 f i libucrtd:output.obj
 0001:00022a20       ??$is_wide_character_specifier@_W@__crt_stdio_output@@YA_N_K_WW4length_modifier@0@@Z 10023a20 f i libucrtd:output.obj
 0001:00022ae0       ??$make_c_string_character_source@DPAPAD@__crt_strtox@@YA?AV?$c_string_character_source@D@0@QBDQAPAD@Z 10023ae0 f i libucrtd:output.obj
 0001:00022b00       ??$make_c_string_character_source@_WPAPA_W@__crt_strtox@@YA?AV?$c_string_character_source@_W@0@QB_WQAPA_W@Z 10023b00 f i libucrtd:output.obj
 0001:00022b20       ??$parse_integer@KV?$c_string_character_source@D@__crt_strtox@@$0A@@__crt_strtox@@YAKAAV__crt_cached_ptd_host@@V?$c_string_character_source@D@0@H_N@Z 10023b20 f i libucrtd:output.obj
 0001:00022e50       ??$parse_integer@KV?$c_string_character_source@_W@__crt_strtox@@$0A@@__crt_strtox@@YAKAAV__crt_cached_ptd_host@@V?$c_string_character_source@_W@0@H_N@Z 10023e50 f i libucrtd:output.obj
 0001:00023190       ??$peek_va_arg@C@__crt_stdio_output@@YACPAD@Z 10024190 f i libucrtd:output.obj
 0001:000231b0       ??$peek_va_arg@E@__crt_stdio_output@@YAEPAD@Z 100241b0 f i libucrtd:output.obj
 0001:000231d0       ??$peek_va_arg@F@__crt_stdio_output@@YAFPAD@Z 100241d0 f i libucrtd:output.obj
 0001:000231f0       ??$peek_va_arg@G@__crt_stdio_output@@YAGPAD@Z 100241f0 f i libucrtd:output.obj
 0001:00023210       ??$peek_va_arg@H@__crt_stdio_output@@YAHPAD@Z 10024210 f i libucrtd:output.obj
 0001:00023230       ??$peek_va_arg@I@__crt_stdio_output@@YAIPAD@Z 10024230 f i libucrtd:output.obj
 0001:00023250       ??$peek_va_arg@PAD@__crt_stdio_output@@YAPADPAD@Z 10024250 f i libucrtd:output.obj
 0001:00023270       ??$peek_va_arg@PAUansi_string@?1??type_case_Z@?$output_processor@DV?$stream_output_adapter@D@__crt_stdio_output@@V?$positional_parameter_base@DV?$stream_output_adapter@D@__crt_stdio_output@@@2@@__crt_stdio_output@@AAE_NXZ@@__crt_stdio_output@@YAPAUansi_string@?1??type_case_Z@?$output_processor@DV?$stream_output_adapter@D@__crt_stdio_output@@V?$positional_parameter_base@DV?$stream_output_adapter@D@__crt_stdio_output@@@2@@0@AAE_NXZ@PAD@Z 10024270 f i libucrtd:output.obj
 0001:00023290       ??$peek_va_arg@PAUansi_string@?1??type_case_Z@?$output_processor@DV?$string_output_adapter@D@__crt_stdio_output@@V?$positional_parameter_base@DV?$string_output_adapter@D@__crt_stdio_output@@@2@@__crt_stdio_output@@AAE_NXZ@@__crt_stdio_output@@YAPAUansi_string@?1??type_case_Z@?$output_processor@DV?$string_output_adapter@D@__crt_stdio_output@@V?$positional_parameter_base@DV?$string_output_adapter@D@__crt_stdio_output@@@2@@0@AAE_NXZ@PAD@Z 10024290 f i libucrtd:output.obj
 0001:000232b0       ??$peek_va_arg@PAUansi_string@?1??type_case_Z@?$output_processor@_WV?$stream_output_adapter@_W@__crt_stdio_output@@V?$positional_parameter_base@_WV?$stream_output_adapter@_W@__crt_stdio_output@@@2@@__crt_stdio_output@@AAE_NXZ@@__crt_stdio_output@@YAPAUansi_string@?1??type_case_Z@?$output_processor@_WV?$stream_output_adapter@_W@__crt_stdio_output@@V?$positional_parameter_base@_WV?$stream_output_adapter@_W@__crt_stdio_output@@@2@@0@AAE_NXZ@PAD@Z 100242b0 f i libucrtd:output.obj
 0001:000232d0       ??$peek_va_arg@PAUansi_string@?1??type_case_Z@?$output_processor@_WV?$string_output_adapter@_W@__crt_stdio_output@@V?$positional_parameter_base@_WV?$string_output_adapter@_W@__crt_stdio_output@@@2@@__crt_stdio_output@@AAE_NXZ@@__crt_stdio_output@@YAPAUansi_string@?1??type_case_Z@?$output_processor@_WV?$string_output_adapter@_W@__crt_stdio_output@@V?$positional_parameter_base@_WV?$string_output_adapter@_W@__crt_stdio_output@@@2@@0@AAE_NXZ@PAD@Z 100242d0 f i libucrtd:output.obj
 0001:000232f0       ??$peek_va_arg@PAX@__crt_stdio_output@@YAPAXPAD@Z 100242f0 f i libucrtd:output.obj
 0001:00023310       ??$peek_va_arg@U_CRT_DOUBLE@@@__crt_stdio_output@@YA?AU_CRT_DOUBLE@@PAD@Z 10024310 f i libucrtd:output.obj
 0001:00023330       ??$peek_va_arg@_J@__crt_stdio_output@@YA_JPAD@Z 10024330 f i libucrtd:output.obj
 0001:00023350       ??$peek_va_arg@_K@__crt_stdio_output@@YA_KPAD@Z 10024350 f i libucrtd:output.obj
 0001:00023370       ??$peek_va_arg@_W@__crt_stdio_output@@YA_WPAD@Z 10024370 f i libucrtd:output.obj
 0001:00023390       ??$puttc_nolock_internal@ABDPAU_iobuf@@AAV__crt_cached_ptd_host@@@?$__crt_char_traits@D@@SAHABD$$QAPAU_iobuf@@AAV__crt_cached_ptd_host@@@Z 10024390 f i libucrtd:output.obj
 0001:000233b0       ??$puttc_nolock_internal@AB_WPAU_iobuf@@AAV__crt_cached_ptd_host@@@?$__crt_char_traits@_W@@SAGAB_W$$QAPAU_iobuf@@AAV__crt_cached_ptd_host@@@Z 100243b0 f i libucrtd:output.obj
 0001:000233d0       ??$read_va_arg@C@__crt_stdio_output@@YACAAPAD@Z 100243d0 f i libucrtd:output.obj
 0001:000233f0       ??$read_va_arg@E@__crt_stdio_output@@YAEAAPAD@Z 100243f0 f i libucrtd:output.obj
 0001:00023410       ??$read_va_arg@F@__crt_stdio_output@@YAFAAPAD@Z 10024410 f i libucrtd:output.obj
 0001:00023430       ??$read_va_arg@G@__crt_stdio_output@@YAGAAPAD@Z 10024430 f i libucrtd:output.obj
 0001:00023450       ??$read_va_arg@H@__crt_stdio_output@@YAHAAPAD@Z 10024450 f i libucrtd:output.obj
 0001:00023470       ??$read_va_arg@I@__crt_stdio_output@@YAIAAPAD@Z 10024470 f i libucrtd:output.obj
 0001:00023490       ??$read_va_arg@PAD@__crt_stdio_output@@YAPADAAPAD@Z 10024490 f i libucrtd:output.obj
 0001:000234b0       ??$read_va_arg@PAUansi_string@?1??type_case_Z@?$output_processor@DV?$stream_output_adapter@D@__crt_stdio_output@@V?$format_validation_base@DV?$stream_output_adapter@D@__crt_stdio_output@@@2@@__crt_stdio_output@@AAE_NXZ@@__crt_stdio_output@@YAPAUansi_string@?1??type_case_Z@?$output_processor@DV?$stream_output_adapter@D@__crt_stdio_output@@V?$format_validation_base@DV?$stream_output_adapter@D@__crt_stdio_output@@@2@@0@AAE_NXZ@AAPAD@Z 100244b0 f i libucrtd:output.obj
 0001:000234d0       ??$read_va_arg@PAUansi_string@?1??type_case_Z@?$output_processor@DV?$stream_output_adapter@D@__crt_stdio_output@@V?$positional_parameter_base@DV?$stream_output_adapter@D@__crt_stdio_output@@@2@@__crt_stdio_output@@AAE_NXZ@@__crt_stdio_output@@YAPAUansi_string@?1??type_case_Z@?$output_processor@DV?$stream_output_adapter@D@__crt_stdio_output@@V?$positional_parameter_base@DV?$stream_output_adapter@D@__crt_stdio_output@@@2@@0@AAE_NXZ@AAPAD@Z 100244d0 f i libucrtd:output.obj
 0001:000234f0       ??$read_va_arg@PAUansi_string@?1??type_case_Z@?$output_processor@DV?$stream_output_adapter@D@__crt_stdio_output@@V?$standard_base@DV?$stream_output_adapter@D@__crt_stdio_output@@@2@@__crt_stdio_output@@AAE_NXZ@@__crt_stdio_output@@YAPAUansi_string@?1??type_case_Z@?$output_processor@DV?$stream_output_adapter@D@__crt_stdio_output@@V?$standard_base@DV?$stream_output_adapter@D@__crt_stdio_output@@@2@@0@AAE_NXZ@AAPAD@Z 100244f0 f i libucrtd:output.obj
 0001:00023510       ??$read_va_arg@PAUansi_string@?1??type_case_Z@?$output_processor@DV?$string_output_adapter@D@__crt_stdio_output@@V?$format_validation_base@DV?$string_output_adapter@D@__crt_stdio_output@@@2@@__crt_stdio_output@@AAE_NXZ@@__crt_stdio_output@@YAPAUansi_string@?1??type_case_Z@?$output_processor@DV?$string_output_adapter@D@__crt_stdio_output@@V?$format_validation_base@DV?$string_output_adapter@D@__crt_stdio_output@@@2@@0@AAE_NXZ@AAPAD@Z 10024510 f i libucrtd:output.obj
 0001:00023530       ??$read_va_arg@PAUansi_string@?1??type_case_Z@?$output_processor@DV?$string_output_adapter@D@__crt_stdio_output@@V?$positional_parameter_base@DV?$string_output_adapter@D@__crt_stdio_output@@@2@@__crt_stdio_output@@AAE_NXZ@@__crt_stdio_output@@YAPAUansi_string@?1??type_case_Z@?$output_processor@DV?$string_output_adapter@D@__crt_stdio_output@@V?$positional_parameter_base@DV?$string_output_adapter@D@__crt_stdio_output@@@2@@0@AAE_NXZ@AAPAD@Z 10024530 f i libucrtd:output.obj
 0001:00023550       ??$read_va_arg@PAUansi_string@?1??type_case_Z@?$output_processor@DV?$string_output_adapter@D@__crt_stdio_output@@V?$standard_base@DV?$string_output_adapter@D@__crt_stdio_output@@@2@@__crt_stdio_output@@AAE_NXZ@@__crt_stdio_output@@YAPAUansi_string@?1??type_case_Z@?$output_processor@DV?$string_output_adapter@D@__crt_stdio_output@@V?$standard_base@DV?$string_output_adapter@D@__crt_stdio_output@@@2@@0@AAE_NXZ@AAPAD@Z 10024550 f i libucrtd:output.obj
 0001:00023570       ??$read_va_arg@PAUansi_string@?1??type_case_Z@?$output_processor@_WV?$stream_output_adapter@_W@__crt_stdio_output@@V?$format_validation_base@_WV?$stream_output_adapter@_W@__crt_stdio_output@@@2@@__crt_stdio_output@@AAE_NXZ@@__crt_stdio_output@@YAPAUansi_string@?1??type_case_Z@?$output_processor@_WV?$stream_output_adapter@_W@__crt_stdio_output@@V?$format_validation_base@_WV?$stream_output_adapter@_W@__crt_stdio_output@@@2@@0@AAE_NXZ@AAPAD@Z 10024570 f i libucrtd:output.obj
 0001:00023590       ??$read_va_arg@PAUansi_string@?1??type_case_Z@?$output_processor@_WV?$stream_output_adapter@_W@__crt_stdio_output@@V?$positional_parameter_base@_WV?$stream_output_adapter@_W@__crt_stdio_output@@@2@@__crt_stdio_output@@AAE_NXZ@@__crt_stdio_output@@YAPAUansi_string@?1??type_case_Z@?$output_processor@_WV?$stream_output_adapter@_W@__crt_stdio_output@@V?$positional_parameter_base@_WV?$stream_output_adapter@_W@__crt_stdio_output@@@2@@0@AAE_NXZ@AAPAD@Z 10024590 f i libucrtd:output.obj
 0001:000235b0       ??$read_va_arg@PAUansi_string@?1??type_case_Z@?$output_processor@_WV?$stream_output_adapter@_W@__crt_stdio_output@@V?$standard_base@_WV?$stream_output_adapter@_W@__crt_stdio_output@@@2@@__crt_stdio_output@@AAE_NXZ@@__crt_stdio_output@@YAPAUansi_string@?1??type_case_Z@?$output_processor@_WV?$stream_output_adapter@_W@__crt_stdio_output@@V?$standard_base@_WV?$stream_output_adapter@_W@__crt_stdio_output@@@2@@0@AAE_NXZ@AAPAD@Z 100245b0 f i libucrtd:output.obj
 0001:000235d0       ??$read_va_arg@PAUansi_string@?1??type_case_Z@?$output_processor@_WV?$string_output_adapter@_W@__crt_stdio_output@@V?$format_validation_base@_WV?$string_output_adapter@_W@__crt_stdio_output@@@2@@__crt_stdio_output@@AAE_NXZ@@__crt_stdio_output@@YAPAUansi_string@?1??type_case_Z@?$output_processor@_WV?$string_output_adapter@_W@__crt_stdio_output@@V?$format_validation_base@_WV?$string_output_adapter@_W@__crt_stdio_output@@@2@@0@AAE_NXZ@AAPAD@Z 100245d0 f i libucrtd:output.obj
 0001:000235f0       ??$read_va_arg@PAUansi_string@?1??type_case_Z@?$output_processor@_WV?$string_output_adapter@_W@__crt_stdio_output@@V?$positional_parameter_base@_WV?$string_output_adapter@_W@__crt_stdio_output@@@2@@__crt_stdio_output@@AAE_NXZ@@__crt_stdio_output@@YAPAUansi_string@?1??type_case_Z@?$output_processor@_WV?$string_output_adapter@_W@__crt_stdio_output@@V?$positional_parameter_base@_WV?$string_output_adapter@_W@__crt_stdio_output@@@2@@0@AAE_NXZ@AAPAD@Z 100245f0 f i libucrtd:output.obj
 0001:00023610       ??$read_va_arg@PAUansi_string@?1??type_case_Z@?$output_processor@_WV?$string_output_adapter@_W@__crt_stdio_output@@V?$standard_base@_WV?$string_output_adapter@_W@__crt_stdio_output@@@2@@__crt_stdio_output@@AAE_NXZ@@__crt_stdio_output@@YAPAUansi_string@?1??type_case_Z@?$output_processor@_WV?$string_output_adapter@_W@__crt_stdio_output@@V?$standard_base@_WV?$string_output_adapter@_W@__crt_stdio_output@@@2@@0@AAE_NXZ@AAPAD@Z 10024610 f i libucrtd:output.obj
 0001:00023630       ??$read_va_arg@PAX@__crt_stdio_output@@YAPAXAAPAD@Z 10024630 f i libucrtd:output.obj
 0001:00023650       ??$read_va_arg@U_CRT_DOUBLE@@@__crt_stdio_output@@YA?AU_CRT_DOUBLE@@AAPAD@Z 10024650 f i libucrtd:output.obj
 0001:00023670       ??$read_va_arg@_J@__crt_stdio_output@@YA_JAAPAD@Z 10024670 f i libucrtd:output.obj
 0001:00023690       ??$read_va_arg@_K@__crt_stdio_output@@YA_KAAPAD@Z 10024690 f i libucrtd:output.obj
 0001:000236b0       ??$read_va_arg@_W@__crt_stdio_output@@YA_WAAPAD@Z 100246b0 f i libucrtd:output.obj
 0001:000236d0       ??$scratch_count@D@formatting_buffer@__crt_stdio_output@@QBEIXZ 100246d0 f i libucrtd:output.obj
 0001:000236f0       ??$scratch_data@D@formatting_buffer@__crt_stdio_output@@QAEPADXZ 100246f0 f i libucrtd:output.obj
 0001:00023740       ??$type_case_integer@$07@?$output_processor@DV?$stream_output_adapter@D@__crt_stdio_output@@V?$format_validation_base@DV?$stream_output_adapter@D@__crt_stdio_output@@@2@@__crt_stdio_output@@AAE_N_N@Z 10024740 f i libucrtd:output.obj
 0001:00023aa0       ??$type_case_integer@$07@?$output_processor@DV?$stream_output_adapter@D@__crt_stdio_output@@V?$positional_parameter_base@DV?$stream_output_adapter@D@__crt_stdio_output@@@2@@__crt_stdio_output@@AAE_N_N@Z 10024aa0 f i libucrtd:output.obj
 0001:00023e00       ??$type_case_integer@$07@?$output_processor@DV?$stream_output_adapter@D@__crt_stdio_output@@V?$standard_base@DV?$stream_output_adapter@D@__crt_stdio_output@@@2@@__crt_stdio_output@@AAE_N_N@Z 10024e00 f i libucrtd:output.obj
 0001:00024160       ??$type_case_integer@$07@?$output_processor@DV?$string_output_adapter@D@__crt_stdio_output@@V?$format_validation_base@DV?$string_output_adapter@D@__crt_stdio_output@@@2@@__crt_stdio_output@@AAE_N_N@Z 10025160 f i libucrtd:output.obj
 0001:000244c0       ??$type_case_integer@$07@?$output_processor@DV?$string_output_adapter@D@__crt_stdio_output@@V?$positional_parameter_base@DV?$string_output_adapter@D@__crt_stdio_output@@@2@@__crt_stdio_output@@AAE_N_N@Z 100254c0 f i libucrtd:output.obj
 0001:00024820       ??$type_case_integer@$07@?$output_processor@DV?$string_output_adapter@D@__crt_stdio_output@@V?$standard_base@DV?$string_output_adapter@D@__crt_stdio_output@@@2@@__crt_stdio_output@@AAE_N_N@Z 10025820 f i libucrtd:output.obj
 0001:00024b80       ??$type_case_integer@$07@?$output_processor@_WV?$stream_output_adapter@_W@__crt_stdio_output@@V?$format_validation_base@_WV?$stream_output_adapter@_W@__crt_stdio_output@@@2@@__crt_stdio_output@@AAE_N_N@Z 10025b80 f i libucrtd:output.obj
 0001:00024ee0       ??$type_case_integer@$07@?$output_processor@_WV?$stream_output_adapter@_W@__crt_stdio_output@@V?$positional_parameter_base@_WV?$stream_output_adapter@_W@__crt_stdio_output@@@2@@__crt_stdio_output@@AAE_N_N@Z 10025ee0 f i libucrtd:output.obj
 0001:00025240       ??$type_case_integer@$07@?$output_processor@_WV?$stream_output_adapter@_W@__crt_stdio_output@@V?$standard_base@_WV?$stream_output_adapter@_W@__crt_stdio_output@@@2@@__crt_stdio_output@@AAE_N_N@Z 10026240 f i libucrtd:output.obj
 0001:000255a0       ??$type_case_integer@$07@?$output_processor@_WV?$string_output_adapter@_W@__crt_stdio_output@@V?$format_validation_base@_WV?$string_output_adapter@_W@__crt_stdio_output@@@2@@__crt_stdio_output@@AAE_N_N@Z 100265a0 f i libucrtd:output.obj
 0001:00025900       ??$type_case_integer@$07@?$output_processor@_WV?$string_output_adapter@_W@__crt_stdio_output@@V?$positional_parameter_base@_WV?$string_output_adapter@_W@__crt_stdio_output@@@2@@__crt_stdio_output@@AAE_N_N@Z 10026900 f i libucrtd:output.obj
 0001:00025c60       ??$type_case_integer@$07@?$output_processor@_WV?$string_output_adapter@_W@__crt_stdio_output@@V?$standard_base@_WV?$string_output_adapter@_W@__crt_stdio_output@@@2@@__crt_stdio_output@@AAE_N_N@Z 10026c60 f i libucrtd:output.obj
 0001:00025fc0       ??$type_case_integer@$09@?$output_processor@DV?$stream_output_adapter@D@__crt_stdio_output@@V?$format_validation_base@DV?$stream_output_adapter@D@__crt_stdio_output@@@2@@__crt_stdio_output@@AAE_N_N@Z 10026fc0 f i libucrtd:output.obj
 0001:00026320       ??$type_case_integer@$09@?$output_processor@DV?$stream_output_adapter@D@__crt_stdio_output@@V?$positional_parameter_base@DV?$stream_output_adapter@D@__crt_stdio_output@@@2@@__crt_stdio_output@@AAE_N_N@Z 10027320 f i libucrtd:output.obj
 0001:00026680       ??$type_case_integer@$09@?$output_processor@DV?$stream_output_adapter@D@__crt_stdio_output@@V?$standard_base@DV?$stream_output_adapter@D@__crt_stdio_output@@@2@@__crt_stdio_output@@AAE_N_N@Z 10027680 f i libucrtd:output.obj
 0001:000269e0       ??$type_case_integer@$09@?$output_processor@DV?$string_output_adapter@D@__crt_stdio_output@@V?$format_validation_base@DV?$string_output_adapter@D@__crt_stdio_output@@@2@@__crt_stdio_output@@AAE_N_N@Z 100279e0 f i libucrtd:output.obj
 0001:00026d40       ??$type_case_integer@$09@?$output_processor@DV?$string_output_adapter@D@__crt_stdio_output@@V?$positional_parameter_base@DV?$string_output_adapter@D@__crt_stdio_output@@@2@@__crt_stdio_output@@AAE_N_N@Z 10027d40 f i libucrtd:output.obj
 0001:000270a0       ??$type_case_integer@$09@?$output_processor@DV?$string_output_adapter@D@__crt_stdio_output@@V?$standard_base@DV?$string_output_adapter@D@__crt_stdio_output@@@2@@__crt_stdio_output@@AAE_N_N@Z 100280a0 f i libucrtd:output.obj
 0001:00027400       ??$type_case_integer@$09@?$output_processor@_WV?$stream_output_adapter@_W@__crt_stdio_output@@V?$format_validation_base@_WV?$stream_output_adapter@_W@__crt_stdio_output@@@2@@__crt_stdio_output@@AAE_N_N@Z 10028400 f i libucrtd:output.obj
 0001:00027760       ??$type_case_integer@$09@?$output_processor@_WV?$stream_output_adapter@_W@__crt_stdio_output@@V?$positional_parameter_base@_WV?$stream_output_adapter@_W@__crt_stdio_output@@@2@@__crt_stdio_output@@AAE_N_N@Z 10028760 f i libucrtd:output.obj
 0001:00027ac0       ??$type_case_integer@$09@?$output_processor@_WV?$stream_output_adapter@_W@__crt_stdio_output@@V?$standard_base@_WV?$stream_output_adapter@_W@__crt_stdio_output@@@2@@__crt_stdio_output@@AAE_N_N@Z 10028ac0 f i libucrtd:output.obj
 0001:00027e20       ??$type_case_integer@$09@?$output_processor@_WV?$string_output_adapter@_W@__crt_stdio_output@@V?$format_validation_base@_WV?$string_output_adapter@_W@__crt_stdio_output@@@2@@__crt_stdio_output@@AAE_N_N@Z 10028e20 f i libucrtd:output.obj
 0001:00028180       ??$type_case_integer@$09@?$output_processor@_WV?$string_output_adapter@_W@__crt_stdio_output@@V?$positional_parameter_base@_WV?$string_output_adapter@_W@__crt_stdio_output@@@2@@__crt_stdio_output@@AAE_N_N@Z 10029180 f i libucrtd:output.obj
 0001:000284e0       ??$type_case_integer@$09@?$output_processor@_WV?$string_output_adapter@_W@__crt_stdio_output@@V?$standard_base@_WV?$string_output_adapter@_W@__crt_stdio_output@@@2@@__crt_stdio_output@@AAE_N_N@Z 100294e0 f i libucrtd:output.obj
 0001:00028840       ??$type_case_integer@$0BA@@?$output_processor@DV?$stream_output_adapter@D@__crt_stdio_output@@V?$format_validation_base@DV?$stream_output_adapter@D@__crt_stdio_output@@@2@@__crt_stdio_output@@AAE_N_N@Z 10029840 f i libucrtd:output.obj
 0001:00028ba0       ??$type_case_integer@$0BA@@?$output_processor@DV?$stream_output_adapter@D@__crt_stdio_output@@V?$positional_parameter_base@DV?$stream_output_adapter@D@__crt_stdio_output@@@2@@__crt_stdio_output@@AAE_N_N@Z 10029ba0 f i libucrtd:output.obj
 0001:00028f00       ??$type_case_integer@$0BA@@?$output_processor@DV?$stream_output_adapter@D@__crt_stdio_output@@V?$standard_base@DV?$stream_output_adapter@D@__crt_stdio_output@@@2@@__crt_stdio_output@@AAE_N_N@Z 10029f00 f i libucrtd:output.obj
 0001:00029260       ??$type_case_integer@$0BA@@?$output_processor@DV?$string_output_adapter@D@__crt_stdio_output@@V?$format_validation_base@DV?$string_output_adapter@D@__crt_stdio_output@@@2@@__crt_stdio_output@@AAE_N_N@Z 1002a260 f i libucrtd:output.obj
 0001:000295c0       ??$type_case_integer@$0BA@@?$output_processor@DV?$string_output_adapter@D@__crt_stdio_output@@V?$positional_parameter_base@DV?$string_output_adapter@D@__crt_stdio_output@@@2@@__crt_stdio_output@@AAE_N_N@Z 1002a5c0 f i libucrtd:output.obj
 0001:00029920       ??$type_case_integer@$0BA@@?$output_processor@DV?$string_output_adapter@D@__crt_stdio_output@@V?$standard_base@DV?$string_output_adapter@D@__crt_stdio_output@@@2@@__crt_stdio_output@@AAE_N_N@Z 1002a920 f i libucrtd:output.obj
 0001:00029c80       ??$type_case_integer@$0BA@@?$output_processor@_WV?$stream_output_adapter@_W@__crt_stdio_output@@V?$format_validation_base@_WV?$stream_output_adapter@_W@__crt_stdio_output@@@2@@__crt_stdio_output@@AAE_N_N@Z 1002ac80 f i libucrtd:output.obj
 0001:00029fe0       ??$type_case_integer@$0BA@@?$output_processor@_WV?$stream_output_adapter@_W@__crt_stdio_output@@V?$positional_parameter_base@_WV?$stream_output_adapter@_W@__crt_stdio_output@@@2@@__crt_stdio_output@@AAE_N_N@Z 1002afe0 f i libucrtd:output.obj
 0001:0002a340       ??$type_case_integer@$0BA@@?$output_processor@_WV?$stream_output_adapter@_W@__crt_stdio_output@@V?$standard_base@_WV?$stream_output_adapter@_W@__crt_stdio_output@@@2@@__crt_stdio_output@@AAE_N_N@Z 1002b340 f i libucrtd:output.obj
 0001:0002a6a0       ??$type_case_integer@$0BA@@?$output_processor@_WV?$string_output_adapter@_W@__crt_stdio_output@@V?$format_validation_base@_WV?$string_output_adapter@_W@__crt_stdio_output@@@2@@__crt_stdio_output@@AAE_N_N@Z 1002b6a0 f i libucrtd:output.obj
 0001:0002aa00       ??$type_case_integer@$0BA@@?$output_processor@_WV?$string_output_adapter@_W@__crt_stdio_output@@V?$positional_parameter_base@_WV?$string_output_adapter@_W@__crt_stdio_output@@@2@@__crt_stdio_output@@AAE_N_N@Z 1002ba00 f i libucrtd:output.obj
 0001:0002ad60       ??$type_case_integer@$0BA@@?$output_processor@_WV?$string_output_adapter@_W@__crt_stdio_output@@V?$standard_base@_WV?$string_output_adapter@_W@__crt_stdio_output@@@2@@__crt_stdio_output@@AAE_N_N@Z 1002bd60 f i libucrtd:output.obj
 0001:0002b0c0       ??$type_case_integer_parse_into_buffer@I$07@?$output_processor@DV?$stream_output_adapter@D@__crt_stdio_output@@V?$format_validation_base@DV?$stream_output_adapter@D@__crt_stdio_output@@@2@@__crt_stdio_output@@AAEXI_N@Z 1002c0c0 f i libucrtd:output.obj
 0001:0002b190       ??$type_case_integer_parse_into_buffer@I$07@?$output_processor@DV?$stream_output_adapter@D@__crt_stdio_output@@V?$positional_parameter_base@DV?$stream_output_adapter@D@__crt_stdio_output@@@2@@__crt_stdio_output@@AAEXI_N@Z 1002c190 f i libucrtd:output.obj
 0001:0002b260       ??$type_case_integer_parse_into_buffer@I$07@?$output_processor@DV?$stream_output_adapter@D@__crt_stdio_output@@V?$standard_base@DV?$stream_output_adapter@D@__crt_stdio_output@@@2@@__crt_stdio_output@@AAEXI_N@Z 1002c260 f i libucrtd:output.obj
 0001:0002b330       ??$type_case_integer_parse_into_buffer@I$07@?$output_processor@DV?$string_output_adapter@D@__crt_stdio_output@@V?$format_validation_base@DV?$string_output_adapter@D@__crt_stdio_output@@@2@@__crt_stdio_output@@AAEXI_N@Z 1002c330 f i libucrtd:output.obj
 0001:0002b400       ??$type_case_integer_parse_into_buffer@I$07@?$output_processor@DV?$string_output_adapter@D@__crt_stdio_output@@V?$positional_parameter_base@DV?$string_output_adapter@D@__crt_stdio_output@@@2@@__crt_stdio_output@@AAEXI_N@Z 1002c400 f i libucrtd:output.obj
 0001:0002b4d0       ??$type_case_integer_parse_into_buffer@I$07@?$output_processor@DV?$string_output_adapter@D@__crt_stdio_output@@V?$standard_base@DV?$string_output_adapter@D@__crt_stdio_output@@@2@@__crt_stdio_output@@AAEXI_N@Z 1002c4d0 f i libucrtd:output.obj
 0001:0002b5a0       ??$type_case_integer_parse_into_buffer@I$07@?$output_processor@_WV?$stream_output_adapter@_W@__crt_stdio_output@@V?$format_validation_base@_WV?$stream_output_adapter@_W@__crt_stdio_output@@@2@@__crt_stdio_output@@AAEXI_N@Z 1002c5a0 f i libucrtd:output.obj
 0001:0002b680       ??$type_case_integer_parse_into_buffer@I$07@?$output_processor@_WV?$stream_output_adapter@_W@__crt_stdio_output@@V?$positional_parameter_base@_WV?$stream_output_adapter@_W@__crt_stdio_output@@@2@@__crt_stdio_output@@AAEXI_N@Z 1002c680 f i libucrtd:output.obj
 0001:0002b760       ??$type_case_integer_parse_into_buffer@I$07@?$output_processor@_WV?$stream_output_adapter@_W@__crt_stdio_output@@V?$standard_base@_WV?$stream_output_adapter@_W@__crt_stdio_output@@@2@@__crt_stdio_output@@AAEXI_N@Z 1002c760 f i libucrtd:output.obj
 0001:0002b840       ??$type_case_integer_parse_into_buffer@I$07@?$output_processor@_WV?$string_output_adapter@_W@__crt_stdio_output@@V?$format_validation_base@_WV?$string_output_adapter@_W@__crt_stdio_output@@@2@@__crt_stdio_output@@AAEXI_N@Z 1002c840 f i libucrtd:output.obj
 0001:0002b920       ??$type_case_integer_parse_into_buffer@I$07@?$output_processor@_WV?$string_output_adapter@_W@__crt_stdio_output@@V?$positional_parameter_base@_WV?$string_output_adapter@_W@__crt_stdio_output@@@2@@__crt_stdio_output@@AAEXI_N@Z 1002c920 f i libucrtd:output.obj
 0001:0002ba00       ??$type_case_integer_parse_into_buffer@I$07@?$output_processor@_WV?$string_output_adapter@_W@__crt_stdio_output@@V?$standard_base@_WV?$string_output_adapter@_W@__crt_stdio_output@@@2@@__crt_stdio_output@@AAEXI_N@Z 1002ca00 f i libucrtd:output.obj
 0001:0002bae0       ??$type_case_integer_parse_into_buffer@I$09@?$output_processor@DV?$stream_output_adapter@D@__crt_stdio_output@@V?$format_validation_base@DV?$stream_output_adapter@D@__crt_stdio_output@@@2@@__crt_stdio_output@@AAEXI_N@Z 1002cae0 f i libucrtd:output.obj
 0001:0002bbc0       ??$type_case_integer_parse_into_buffer@I$09@?$output_processor@DV?$stream_output_adapter@D@__crt_stdio_output@@V?$positional_parameter_base@DV?$stream_output_adapter@D@__crt_stdio_output@@@2@@__crt_stdio_output@@AAEXI_N@Z 1002cbc0 f i libucrtd:output.obj
 0001:0002bca0       ??$type_case_integer_parse_into_buffer@I$09@?$output_processor@DV?$stream_output_adapter@D@__crt_stdio_output@@V?$standard_base@DV?$stream_output_adapter@D@__crt_stdio_output@@@2@@__crt_stdio_output@@AAEXI_N@Z 1002cca0 f i libucrtd:output.obj
 0001:0002bd80       ??$type_case_integer_parse_into_buffer@I$09@?$output_processor@DV?$string_output_adapter@D@__crt_stdio_output@@V?$format_validation_base@DV?$string_output_adapter@D@__crt_stdio_output@@@2@@__crt_stdio_output@@AAEXI_N@Z 1002cd80 f i libucrtd:output.obj
 0001:0002be60       ??$type_case_integer_parse_into_buffer@I$09@?$output_processor@DV?$string_output_adapter@D@__crt_stdio_output@@V?$positional_parameter_base@DV?$string_output_adapter@D@__crt_stdio_output@@@2@@__crt_stdio_output@@AAEXI_N@Z 1002ce60 f i libucrtd:output.obj
 0001:0002bf40       ??$type_case_integer_parse_into_buffer@I$09@?$output_processor@DV?$string_output_adapter@D@__crt_stdio_output@@V?$standard_base@DV?$string_output_adapter@D@__crt_stdio_output@@@2@@__crt_stdio_output@@AAEXI_N@Z 1002cf40 f i libucrtd:output.obj
 0001:0002c020       ??$type_case_integer_parse_into_buffer@I$09@?$output_processor@_WV?$stream_output_adapter@_W@__crt_stdio_output@@V?$format_validation_base@_WV?$stream_output_adapter@_W@__crt_stdio_output@@@2@@__crt_stdio_output@@AAEXI_N@Z 1002d020 f i libucrtd:output.obj
 0001:0002c110       ??$type_case_integer_parse_into_buffer@I$09@?$output_processor@_WV?$stream_output_adapter@_W@__crt_stdio_output@@V?$positional_parameter_base@_WV?$stream_output_adapter@_W@__crt_stdio_output@@@2@@__crt_stdio_output@@AAEXI_N@Z 1002d110 f i libucrtd:output.obj
 0001:0002c200       ??$type_case_integer_parse_into_buffer@I$09@?$output_processor@_WV?$stream_output_adapter@_W@__crt_stdio_output@@V?$standard_base@_WV?$stream_output_adapter@_W@__crt_stdio_output@@@2@@__crt_stdio_output@@AAEXI_N@Z 1002d200 f i libucrtd:output.obj
 0001:0002c2f0       ??$type_case_integer_parse_into_buffer@I$09@?$output_processor@_WV?$string_output_adapter@_W@__crt_stdio_output@@V?$format_validation_base@_WV?$string_output_adapter@_W@__crt_stdio_output@@@2@@__crt_stdio_output@@AAEXI_N@Z 1002d2f0 f i libucrtd:output.obj
 0001:0002c3e0       ??$type_case_integer_parse_into_buffer@I$09@?$output_processor@_WV?$string_output_adapter@_W@__crt_stdio_output@@V?$positional_parameter_base@_WV?$string_output_adapter@_W@__crt_stdio_output@@@2@@__crt_stdio_output@@AAEXI_N@Z 1002d3e0 f i libucrtd:output.obj
 0001:0002c4d0       ??$type_case_integer_parse_into_buffer@I$09@?$output_processor@_WV?$string_output_adapter@_W@__crt_stdio_output@@V?$standard_base@_WV?$string_output_adapter@_W@__crt_stdio_output@@@2@@__crt_stdio_output@@AAEXI_N@Z 1002d4d0 f i libucrtd:output.obj
 0001:0002c5c0       ??$type_case_integer_parse_into_buffer@I$0BA@@?$output_processor@DV?$stream_output_adapter@D@__crt_stdio_output@@V?$format_validation_base@DV?$stream_output_adapter@D@__crt_stdio_output@@@2@@__crt_stdio_output@@AAEXI_N@Z 1002d5c0 f i libucrtd:output.obj
 0001:0002c690       ??$type_case_integer_parse_into_buffer@I$0BA@@?$output_processor@DV?$stream_output_adapter@D@__crt_stdio_output@@V?$positional_parameter_base@DV?$stream_output_adapter@D@__crt_stdio_output@@@2@@__crt_stdio_output@@AAEXI_N@Z 1002d690 f i libucrtd:output.obj
 0001:0002c760       ??$type_case_integer_parse_into_buffer@I$0BA@@?$output_processor@DV?$stream_output_adapter@D@__crt_stdio_output@@V?$standard_base@DV?$stream_output_adapter@D@__crt_stdio_output@@@2@@__crt_stdio_output@@AAEXI_N@Z 1002d760 f i libucrtd:output.obj
 0001:0002c830       ??$type_case_integer_parse_into_buffer@I$0BA@@?$output_processor@DV?$string_output_adapter@D@__crt_stdio_output@@V?$format_validation_base@DV?$string_output_adapter@D@__crt_stdio_output@@@2@@__crt_stdio_output@@AAEXI_N@Z 1002d830 f i libucrtd:output.obj
 0001:0002c900       ??$type_case_integer_parse_into_buffer@I$0BA@@?$output_processor@DV?$string_output_adapter@D@__crt_stdio_output@@V?$positional_parameter_base@DV?$string_output_adapter@D@__crt_stdio_output@@@2@@__crt_stdio_output@@AAEXI_N@Z 1002d900 f i libucrtd:output.obj
 0001:0002c9d0       ??$type_case_integer_parse_into_buffer@I$0BA@@?$output_processor@DV?$string_output_adapter@D@__crt_stdio_output@@V?$standard_base@DV?$string_output_adapter@D@__crt_stdio_output@@@2@@__crt_stdio_output@@AAEXI_N@Z 1002d9d0 f i libucrtd:output.obj
 0001:0002caa0       ??$type_case_integer_parse_into_buffer@I$0BA@@?$output_processor@_WV?$stream_output_adapter@_W@__crt_stdio_output@@V?$format_validation_base@_WV?$stream_output_adapter@_W@__crt_stdio_output@@@2@@__crt_stdio_output@@AAEXI_N@Z 1002daa0 f i libucrtd:output.obj
 0001:0002cb80       ??$type_case_integer_parse_into_buffer@I$0BA@@?$output_processor@_WV?$stream_output_adapter@_W@__crt_stdio_output@@V?$positional_parameter_base@_WV?$stream_output_adapter@_W@__crt_stdio_output@@@2@@__crt_stdio_output@@AAEXI_N@Z 1002db80 f i libucrtd:output.obj
 0001:0002cc60       ??$type_case_integer_parse_into_buffer@I$0BA@@?$output_processor@_WV?$stream_output_adapter@_W@__crt_stdio_output@@V?$standard_base@_WV?$stream_output_adapter@_W@__crt_stdio_output@@@2@@__crt_stdio_output@@AAEXI_N@Z 1002dc60 f i libucrtd:output.obj
 0001:0002cd40       ??$type_case_integer_parse_into_buffer@I$0BA@@?$output_processor@_WV?$string_output_adapter@_W@__crt_stdio_output@@V?$format_validation_base@_WV?$string_output_adapter@_W@__crt_stdio_output@@@2@@__crt_stdio_output@@AAEXI_N@Z 1002dd40 f i libucrtd:output.obj
 0001:0002ce20       ??$type_case_integer_parse_into_buffer@I$0BA@@?$output_processor@_WV?$string_output_adapter@_W@__crt_stdio_output@@V?$positional_parameter_base@_WV?$string_output_adapter@_W@__crt_stdio_output@@@2@@__crt_stdio_output@@AAEXI_N@Z 1002de20 f i libucrtd:output.obj
 0001:0002cf00       ??$type_case_integer_parse_into_buffer@I$0BA@@?$output_processor@_WV?$string_output_adapter@_W@__crt_stdio_output@@V?$standard_base@_WV?$string_output_adapter@_W@__crt_stdio_output@@@2@@__crt_stdio_output@@AAEXI_N@Z 1002df00 f i libucrtd:output.obj
 0001:0002cfe0       ??$type_case_integer_parse_into_buffer@_K$07@?$output_processor@DV?$stream_output_adapter@D@__crt_stdio_output@@V?$format_validation_base@DV?$stream_output_adapter@D@__crt_stdio_output@@@2@@__crt_stdio_output@@AAEX_K_N@Z 1002dfe0 f i libucrtd:output.obj
 0001:0002d0d0       ??$type_case_integer_parse_into_buffer@_K$07@?$output_processor@DV?$stream_output_adapter@D@__crt_stdio_output@@V?$positional_parameter_base@DV?$stream_output_adapter@D@__crt_stdio_output@@@2@@__crt_stdio_output@@AAEX_K_N@Z 1002e0d0 f i libucrtd:output.obj
 0001:0002d1c0       ??$type_case_integer_parse_into_buffer@_K$07@?$output_processor@DV?$stream_output_adapter@D@__crt_stdio_output@@V?$standard_base@DV?$stream_output_adapter@D@__crt_stdio_output@@@2@@__crt_stdio_output@@AAEX_K_N@Z 1002e1c0 f i libucrtd:output.obj
 0001:0002d2b0       ??$type_case_integer_parse_into_buffer@_K$07@?$output_processor@DV?$string_output_adapter@D@__crt_stdio_output@@V?$format_validation_base@DV?$string_output_adapter@D@__crt_stdio_output@@@2@@__crt_stdio_output@@AAEX_K_N@Z 1002e2b0 f i libucrtd:output.obj
 0001:0002d3a0       ??$type_case_integer_parse_into_buffer@_K$07@?$output_processor@DV?$string_output_adapter@D@__crt_stdio_output@@V?$positional_parameter_base@DV?$string_output_adapter@D@__crt_stdio_output@@@2@@__crt_stdio_output@@AAEX_K_N@Z 1002e3a0 f i libucrtd:output.obj
 0001:0002d490       ??$type_case_integer_parse_into_buffer@_K$07@?$output_processor@DV?$string_output_adapter@D@__crt_stdio_output@@V?$standard_base@DV?$string_output_adapter@D@__crt_stdio_output@@@2@@__crt_stdio_output@@AAEX_K_N@Z 1002e490 f i libucrtd:output.obj
 0001:0002d580       ??$type_case_integer_parse_into_buffer@_K$07@?$output_processor@_WV?$stream_output_adapter@_W@__crt_stdio_output@@V?$format_validation_base@_WV?$stream_output_adapter@_W@__crt_stdio_output@@@2@@__crt_stdio_output@@AAEX_K_N@Z 1002e580 f i libucrtd:output.obj
 0001:0002d680       ??$type_case_integer_parse_into_buffer@_K$07@?$output_processor@_WV?$stream_output_adapter@_W@__crt_stdio_output@@V?$positional_parameter_base@_WV?$stream_output_adapter@_W@__crt_stdio_output@@@2@@__crt_stdio_output@@AAEX_K_N@Z 1002e680 f i libucrtd:output.obj
 0001:0002d780       ??$type_case_integer_parse_into_buffer@_K$07@?$output_processor@_WV?$stream_output_adapter@_W@__crt_stdio_output@@V?$standard_base@_WV?$stream_output_adapter@_W@__crt_stdio_output@@@2@@__crt_stdio_output@@AAEX_K_N@Z 1002e780 f i libucrtd:output.obj
 0001:0002d880       ??$type_case_integer_parse_into_buffer@_K$07@?$output_processor@_WV?$string_output_adapter@_W@__crt_stdio_output@@V?$format_validation_base@_WV?$string_output_adapter@_W@__crt_stdio_output@@@2@@__crt_stdio_output@@AAEX_K_N@Z 1002e880 f i libucrtd:output.obj
 0001:0002d980       ??$type_case_integer_parse_into_buffer@_K$07@?$output_processor@_WV?$string_output_adapter@_W@__crt_stdio_output@@V?$positional_parameter_base@_WV?$string_output_adapter@_W@__crt_stdio_output@@@2@@__crt_stdio_output@@AAEX_K_N@Z 1002e980 f i libucrtd:output.obj
 0001:0002da80       ??$type_case_integer_parse_into_buffer@_K$07@?$output_processor@_WV?$string_output_adapter@_W@__crt_stdio_output@@V?$standard_base@_WV?$string_output_adapter@_W@__crt_stdio_output@@@2@@__crt_stdio_output@@AAEX_K_N@Z 1002ea80 f i libucrtd:output.obj
 0001:0002db80       ??$type_case_integer_parse_into_buffer@_K$09@?$output_processor@DV?$stream_output_adapter@D@__crt_stdio_output@@V?$format_validation_base@DV?$stream_output_adapter@D@__crt_stdio_output@@@2@@__crt_stdio_output@@AAEX_K_N@Z 1002eb80 f i libucrtd:output.obj
 0001:0002dc70       ??$type_case_integer_parse_into_buffer@_K$09@?$output_processor@DV?$stream_output_adapter@D@__crt_stdio_output@@V?$positional_parameter_base@DV?$stream_output_adapter@D@__crt_stdio_output@@@2@@__crt_stdio_output@@AAEX_K_N@Z 1002ec70 f i libucrtd:output.obj
 0001:0002dd60       ??$type_case_integer_parse_into_buffer@_K$09@?$output_processor@DV?$stream_output_adapter@D@__crt_stdio_output@@V?$standard_base@DV?$stream_output_adapter@D@__crt_stdio_output@@@2@@__crt_stdio_output@@AAEX_K_N@Z 1002ed60 f i libucrtd:output.obj
 0001:0002de50       ??$type_case_integer_parse_into_buffer@_K$09@?$output_processor@DV?$string_output_adapter@D@__crt_stdio_output@@V?$format_validation_base@DV?$string_output_adapter@D@__crt_stdio_output@@@2@@__crt_stdio_output@@AAEX_K_N@Z 1002ee50 f i libucrtd:output.obj
 0001:0002df40       ??$type_case_integer_parse_into_buffer@_K$09@?$output_processor@DV?$string_output_adapter@D@__crt_stdio_output@@V?$positional_parameter_base@DV?$string_output_adapter@D@__crt_stdio_output@@@2@@__crt_stdio_output@@AAEX_K_N@Z 1002ef40 f i libucrtd:output.obj
 0001:0002e030       ??$type_case_integer_parse_into_buffer@_K$09@?$output_processor@DV?$string_output_adapter@D@__crt_stdio_output@@V?$standard_base@DV?$string_output_adapter@D@__crt_stdio_output@@@2@@__crt_stdio_output@@AAEX_K_N@Z 1002f030 f i libucrtd:output.obj
 0001:0002e120       ??$type_case_integer_parse_into_buffer@_K$09@?$output_processor@_WV?$stream_output_adapter@_W@__crt_stdio_output@@V?$format_validation_base@_WV?$stream_output_adapter@_W@__crt_stdio_output@@@2@@__crt_stdio_output@@AAEX_K_N@Z 1002f120 f i libucrtd:output.obj
 0001:0002e220       ??$type_case_integer_parse_into_buffer@_K$09@?$output_processor@_WV?$stream_output_adapter@_W@__crt_stdio_output@@V?$positional_parameter_base@_WV?$stream_output_adapter@_W@__crt_stdio_output@@@2@@__crt_stdio_output@@AAEX_K_N@Z 1002f220 f i libucrtd:output.obj
 0001:0002e320       ??$type_case_integer_parse_into_buffer@_K$09@?$output_processor@_WV?$stream_output_adapter@_W@__crt_stdio_output@@V?$standard_base@_WV?$stream_output_adapter@_W@__crt_stdio_output@@@2@@__crt_stdio_output@@AAEX_K_N@Z 1002f320 f i libucrtd:output.obj
 0001:0002e420       ??$type_case_integer_parse_into_buffer@_K$09@?$output_processor@_WV?$string_output_adapter@_W@__crt_stdio_output@@V?$format_validation_base@_WV?$string_output_adapter@_W@__crt_stdio_output@@@2@@__crt_stdio_output@@AAEX_K_N@Z 1002f420 f i libucrtd:output.obj
 0001:0002e520       ??$type_case_integer_parse_into_buffer@_K$09@?$output_processor@_WV?$string_output_adapter@_W@__crt_stdio_output@@V?$positional_parameter_base@_WV?$string_output_adapter@_W@__crt_stdio_output@@@2@@__crt_stdio_output@@AAEX_K_N@Z 1002f520 f i libucrtd:output.obj
 0001:0002e620       ??$type_case_integer_parse_into_buffer@_K$09@?$output_processor@_WV?$string_output_adapter@_W@__crt_stdio_output@@V?$standard_base@_WV?$string_output_adapter@_W@__crt_stdio_output@@@2@@__crt_stdio_output@@AAEX_K_N@Z 1002f620 f i libucrtd:output.obj
 0001:0002e720       ??$type_case_integer_parse_into_buffer@_K$0BA@@?$output_processor@DV?$stream_output_adapter@D@__crt_stdio_output@@V?$format_validation_base@DV?$stream_output_adapter@D@__crt_stdio_output@@@2@@__crt_stdio_output@@AAEX_K_N@Z 1002f720 f i libucrtd:output.obj
 0001:0002e810       ??$type_case_integer_parse_into_buffer@_K$0BA@@?$output_processor@DV?$stream_output_adapter@D@__crt_stdio_output@@V?$positional_parameter_base@DV?$stream_output_adapter@D@__crt_stdio_output@@@2@@__crt_stdio_output@@AAEX_K_N@Z 1002f810 f i libucrtd:output.obj
 0001:0002e900       ??$type_case_integer_parse_into_buffer@_K$0BA@@?$output_processor@DV?$stream_output_adapter@D@__crt_stdio_output@@V?$standard_base@DV?$stream_output_adapter@D@__crt_stdio_output@@@2@@__crt_stdio_output@@AAEX_K_N@Z 1002f900 f i libucrtd:output.obj
 0001:0002e9f0       ??$type_case_integer_parse_into_buffer@_K$0BA@@?$output_processor@DV?$string_output_adapter@D@__crt_stdio_output@@V?$format_validation_base@DV?$string_output_adapter@D@__crt_stdio_output@@@2@@__crt_stdio_output@@AAEX_K_N@Z 1002f9f0 f i libucrtd:output.obj
 0001:0002eae0       ??$type_case_integer_parse_into_buffer@_K$0BA@@?$output_processor@DV?$string_output_adapter@D@__crt_stdio_output@@V?$positional_parameter_base@DV?$string_output_adapter@D@__crt_stdio_output@@@2@@__crt_stdio_output@@AAEX_K_N@Z 1002fae0 f i libucrtd:output.obj
 0001:0002ebd0       ??$type_case_integer_parse_into_buffer@_K$0BA@@?$output_processor@DV?$string_output_adapter@D@__crt_stdio_output@@V?$standard_base@DV?$string_output_adapter@D@__crt_stdio_output@@@2@@__crt_stdio_output@@AAEX_K_N@Z 1002fbd0 f i libucrtd:output.obj
 0001:0002ecc0       ??$type_case_integer_parse_into_buffer@_K$0BA@@?$output_processor@_WV?$stream_output_adapter@_W@__crt_stdio_output@@V?$format_validation_base@_WV?$stream_output_adapter@_W@__crt_stdio_output@@@2@@__crt_stdio_output@@AAEX_K_N@Z 1002fcc0 f i libucrtd:output.obj
 0001:0002edc0       ??$type_case_integer_parse_into_buffer@_K$0BA@@?$output_processor@_WV?$stream_output_adapter@_W@__crt_stdio_output@@V?$positional_parameter_base@_WV?$stream_output_adapter@_W@__crt_stdio_output@@@2@@__crt_stdio_output@@AAEX_K_N@Z 1002fdc0 f i libucrtd:output.obj
 0001:0002eec0       ??$type_case_integer_parse_into_buffer@_K$0BA@@?$output_processor@_WV?$stream_output_adapter@_W@__crt_stdio_output@@V?$standard_base@_WV?$stream_output_adapter@_W@__crt_stdio_output@@@2@@__crt_stdio_output@@AAEX_K_N@Z 1002fec0 f i libucrtd:output.obj
 0001:0002efc0       ??$type_case_integer_parse_into_buffer@_K$0BA@@?$output_processor@_WV?$string_output_adapter@_W@__crt_stdio_output@@V?$format_validation_base@_WV?$string_output_adapter@_W@__crt_stdio_output@@@2@@__crt_stdio_output@@AAEX_K_N@Z 1002ffc0 f i libucrtd:output.obj
 0001:0002f0c0       ??$type_case_integer_parse_into_buffer@_K$0BA@@?$output_processor@_WV?$string_output_adapter@_W@__crt_stdio_output@@V?$positional_parameter_base@_WV?$string_output_adapter@_W@__crt_stdio_output@@@2@@__crt_stdio_output@@AAEX_K_N@Z 100300c0 f i libucrtd:output.obj
 0001:0002f1c0       ??$type_case_integer_parse_into_buffer@_K$0BA@@?$output_processor@_WV?$string_output_adapter@_W@__crt_stdio_output@@V?$standard_base@_WV?$string_output_adapter@_W@__crt_stdio_output@@@2@@__crt_stdio_output@@AAEX_K_N@Z 100301c0 f i libucrtd:output.obj
 0001:0002f2c0       ??$write_multiple_characters@V?$stream_output_adapter@D@__crt_stdio_output@@D@__crt_stdio_output@@YAXABV?$stream_output_adapter@D@0@DHQAHAAV__crt_cached_ptd_host@@@Z 100302c0 f i libucrtd:output.obj
 0001:0002f310       ??$write_multiple_characters@V?$stream_output_adapter@_W@__crt_stdio_output@@D@__crt_stdio_output@@YAXABV?$stream_output_adapter@_W@0@DHQAHAAV__crt_cached_ptd_host@@@Z 10030310 f i libucrtd:output.obj
 0001:0002f360       ??$write_multiple_characters@V?$string_output_adapter@D@__crt_stdio_output@@D@__crt_stdio_output@@YAXABV?$string_output_adapter@D@0@DHQAHAAV__crt_cached_ptd_host@@@Z 10030360 f i libucrtd:output.obj
 0001:0002f3b0       ??$write_multiple_characters@V?$string_output_adapter@_W@__crt_stdio_output@@D@__crt_stdio_output@@YAXABV?$string_output_adapter@_W@0@DHQAHAAV__crt_cached_ptd_host@@@Z 100303b0 f i libucrtd:output.obj
 0001:0002f700       ??0?$c_string_character_source@D@__crt_strtox@@QAE@QBDQAPBD@Z 10030700 f i libucrtd:output.obj
 0001:0002f740       ??0?$c_string_character_source@_W@__crt_strtox@@QAE@QB_WQAPB_W@Z 10030740 f i libucrtd:output.obj
 0001:0002f780       ??0?$cached@H@__crt_cached_ptd_host@@QAE@XZ 10030780 f i libucrtd:output.obj
 0001:0002f7a0       ??0?$cached@K@__crt_cached_ptd_host@@QAE@XZ 100307a0 f i libucrtd:output.obj
 0001:0002f7c0       ??0?$common_data@D@__crt_stdio_output@@IAE@AAV__crt_cached_ptd_host@@@Z 100307c0 f i libucrtd:output.obj
 0001:0002f860       ??0?$common_data@_W@__crt_stdio_output@@IAE@AAV__crt_cached_ptd_host@@@Z 10030860 f i libucrtd:output.obj
 0001:0002f900       ??0?$output_adapter_data@DV?$stream_output_adapter@D@__crt_stdio_output@@@__crt_stdio_output@@IAE@ABV?$stream_output_adapter@D@1@_KQBDAAV__crt_cached_ptd_host@@QAD@Z 10030900 f i libucrtd:output.obj
 0001:0002f980       ??0?$output_adapter_data@DV?$string_output_adapter@D@__crt_stdio_output@@@__crt_stdio_output@@IAE@ABV?$string_output_adapter@D@1@_KQBDAAV__crt_cached_ptd_host@@QAD@Z 10030980 f i libucrtd:output.obj
 0001:0002fa00       ??0?$output_adapter_data@_WV?$stream_output_adapter@_W@__crt_stdio_output@@@__crt_stdio_output@@IAE@ABV?$stream_output_adapter@_W@1@_KQB_WAAV__crt_cached_ptd_host@@QAD@Z 10030a00 f i libucrtd:output.obj
 0001:0002fa80       ??0?$output_adapter_data@_WV?$string_output_adapter@_W@__crt_stdio_output@@@__crt_stdio_output@@IAE@ABV?$string_output_adapter@_W@1@_KQB_WAAV__crt_cached_ptd_host@@QAD@Z 10030a80 f i libucrtd:output.obj
 0001:0002fb00       ??0?$output_processor@DV?$stream_output_adapter@D@__crt_stdio_output@@V?$format_validation_base@DV?$stream_output_adapter@D@__crt_stdio_output@@@2@@__crt_stdio_output@@QAE@ABV?$stream_output_adapter@D@1@_KQBDAAV__crt_cached_ptd_host@@QAD@Z 10030b00 f i libucrtd:output.obj
 0001:0002fb30       ??0?$output_processor@DV?$stream_output_adapter@D@__crt_stdio_output@@V?$positional_parameter_base@DV?$stream_output_adapter@D@__crt_stdio_output@@@2@@__crt_stdio_output@@QAE@ABV?$stream_output_adapter@D@1@_KQBDAAV__crt_cached_ptd_host@@QAD@Z 10030b30 f i libucrtd:output.obj
 0001:0002fb60       ??0?$output_processor@DV?$stream_output_adapter@D@__crt_stdio_output@@V?$standard_base@DV?$stream_output_adapter@D@__crt_stdio_output@@@2@@__crt_stdio_output@@QAE@ABV?$stream_output_adapter@D@1@_KQBDAAV__crt_cached_ptd_host@@QAD@Z 10030b60 f i libucrtd:output.obj
 0001:0002fb90       ??0?$output_processor@DV?$string_output_adapter@D@__crt_stdio_output@@V?$format_validation_base@DV?$string_output_adapter@D@__crt_stdio_output@@@2@@__crt_stdio_output@@QAE@ABV?$string_output_adapter@D@1@_KQBDAAV__crt_cached_ptd_host@@QAD@Z 10030b90 f i libucrtd:output.obj
 0001:0002fbc0       ??0?$output_processor@DV?$string_output_adapter@D@__crt_stdio_output@@V?$positional_parameter_base@DV?$string_output_adapter@D@__crt_stdio_output@@@2@@__crt_stdio_output@@QAE@ABV?$string_output_adapter@D@1@_KQBDAAV__crt_cached_ptd_host@@QAD@Z 10030bc0 f i libucrtd:output.obj
 0001:0002fbf0       ??0?$output_processor@DV?$string_output_adapter@D@__crt_stdio_output@@V?$standard_base@DV?$string_output_adapter@D@__crt_stdio_output@@@2@@__crt_stdio_output@@QAE@ABV?$string_output_adapter@D@1@_KQBDAAV__crt_cached_ptd_host@@QAD@Z 10030bf0 f i libucrtd:output.obj
 0001:0002fc20       ??0?$output_processor@_WV?$stream_output_adapter@_W@__crt_stdio_output@@V?$format_validation_base@_WV?$stream_output_adapter@_W@__crt_stdio_output@@@2@@__crt_stdio_output@@QAE@ABV?$stream_output_adapter@_W@1@_KQB_WAAV__crt_cached_ptd_host@@QAD@Z 10030c20 f i libucrtd:output.obj
 0001:0002fc50       ??0?$output_processor@_WV?$stream_output_adapter@_W@__crt_stdio_output@@V?$positional_parameter_base@_WV?$stream_output_adapter@_W@__crt_stdio_output@@@2@@__crt_stdio_output@@QAE@ABV?$stream_output_adapter@_W@1@_KQB_WAAV__crt_cached_ptd_host@@QAD@Z 10030c50 f i libucrtd:output.obj
 0001:0002fc80       ??0?$output_processor@_WV?$stream_output_adapter@_W@__crt_stdio_output@@V?$standard_base@_WV?$stream_output_adapter@_W@__crt_stdio_output@@@2@@__crt_stdio_output@@QAE@ABV?$stream_output_adapter@_W@1@_KQB_WAAV__crt_cached_ptd_host@@QAD@Z 10030c80 f i libucrtd:output.obj
 0001:0002fcb0       ??0?$output_processor@_WV?$string_output_adapter@_W@__crt_stdio_output@@V?$format_validation_base@_WV?$string_output_adapter@_W@__crt_stdio_output@@@2@@__crt_stdio_output@@QAE@ABV?$string_output_adapter@_W@1@_KQB_WAAV__crt_cached_ptd_host@@QAD@Z 10030cb0 f i libucrtd:output.obj
 0001:0002fce0       ??0?$output_processor@_WV?$string_output_adapter@_W@__crt_stdio_output@@V?$positional_parameter_base@_WV?$string_output_adapter@_W@__crt_stdio_output@@@2@@__crt_stdio_output@@QAE@ABV?$string_output_adapter@_W@1@_KQB_WAAV__crt_cached_ptd_host@@QAD@Z 10030ce0 f i libucrtd:output.obj
 0001:0002fd10       ??0?$output_processor@_WV?$string_output_adapter@_W@__crt_stdio_output@@V?$standard_base@_WV?$string_output_adapter@_W@__crt_stdio_output@@@2@@__crt_stdio_output@@QAE@ABV?$string_output_adapter@_W@1@_KQB_WAAV__crt_cached_ptd_host@@QAD@Z 10030d10 f i libucrtd:output.obj
 0001:0002fd40       ??0?$stream_output_adapter@D@__crt_stdio_output@@QAE@QAU_iobuf@@@Z 10030d40 f i libucrtd:output.obj
 0001:0002fd70       ??0?$stream_output_adapter@_W@__crt_stdio_output@@QAE@QAU_iobuf@@@Z 10030d70 f i libucrtd:output.obj
 0001:0002fda0       ??0?$string_output_adapter@D@__crt_stdio_output@@QAE@QAU?$string_output_adapter_context@D@1@@Z 10030da0 f i libucrtd:output.obj
 0001:0002fdc0       ??0?$string_output_adapter@_W@__crt_stdio_output@@QAE@QAU?$string_output_adapter_context@_W@1@@Z 10030dc0 f i libucrtd:output.obj
 0001:0002fde0       ??0__acrt_stdio_temporary_buffering_guard@@QAE@QAU_iobuf@@AAV__crt_cached_ptd_host@@@Z 10030de0 f i libucrtd:output.obj
 0001:0002fe20       ??0__crt_cached_ptd_host@@QAE@QAU__crt_locale_pointers@@@Z 10030e20 f i libucrtd:output.obj
 0001:0002feb0       ??0__crt_scoped_get_last_error_reset@@QAE@XZ 10030eb0 f i libucrtd:output.obj
 0001:0002fed0       ??0__crt_stdio_stream@@QAE@QAU_iobuf@@@Z 10030ed0 f i libucrtd:output.obj
 0001:0002fef0       ??0formatting_buffer@__crt_stdio_output@@QAE@XZ 10030ef0 f i libucrtd:output.obj
 0001:0002ff30       ??0guard@?$cached@H@__crt_cached_ptd_host@@QAE@AAU12@@Z 10030f30 f i libucrtd:output.obj
 0001:0002ff70       ??1?$c_string_character_source@D@__crt_strtox@@QAE@XZ 10030f70 f i libucrtd:output.obj
 0001:0002ffa0       ??1?$c_string_character_source@_W@__crt_strtox@@QAE@XZ 10030fa0 f i libucrtd:output.obj
 0001:0002ffd0       ??1?$common_data@D@__crt_stdio_output@@QAE@XZ 10030fd0 f i libucrtd:output.obj
 0001:0002fff0       ??1?$common_data@_W@__crt_stdio_output@@QAE@XZ 10030ff0 f i libucrtd:output.obj
 0001:00030010       ??1?$format_validation_base@DV?$stream_output_adapter@D@__crt_stdio_output@@@__crt_stdio_output@@QAE@XZ 10031010 f i libucrtd:output.obj
 0001:00030030       ??1?$format_validation_base@DV?$string_output_adapter@D@__crt_stdio_output@@@__crt_stdio_output@@QAE@XZ 10031030 f i libucrtd:output.obj
 0001:00030050       ??1?$format_validation_base@_WV?$stream_output_adapter@_W@__crt_stdio_output@@@__crt_stdio_output@@QAE@XZ 10031050 f i libucrtd:output.obj
 0001:00030070       ??1?$format_validation_base@_WV?$string_output_adapter@_W@__crt_stdio_output@@@__crt_stdio_output@@QAE@XZ 10031070 f i libucrtd:output.obj
 0001:00030090       ??1?$output_adapter_data@DV?$stream_output_adapter@D@__crt_stdio_output@@@__crt_stdio_output@@QAE@XZ 10031090 f i libucrtd:output.obj
 0001:000300b0       ??1?$output_adapter_data@DV?$string_output_adapter@D@__crt_stdio_output@@@__crt_stdio_output@@QAE@XZ 100310b0 f i libucrtd:output.obj
 0001:000300d0       ??1?$output_adapter_data@_WV?$stream_output_adapter@_W@__crt_stdio_output@@@__crt_stdio_output@@QAE@XZ 100310d0 f i libucrtd:output.obj
 0001:000300f0       ??1?$output_adapter_data@_WV?$string_output_adapter@_W@__crt_stdio_output@@@__crt_stdio_output@@QAE@XZ 100310f0 f i libucrtd:output.obj
 0001:00030110       ??1?$output_processor@DV?$stream_output_adapter@D@__crt_stdio_output@@V?$format_validation_base@DV?$stream_output_adapter@D@__crt_stdio_output@@@2@@__crt_stdio_output@@QAE@XZ 10031110 f i libucrtd:output.obj
 0001:00030130       ??1?$output_processor@DV?$stream_output_adapter@D@__crt_stdio_output@@V?$positional_parameter_base@DV?$stream_output_adapter@D@__crt_stdio_output@@@2@@__crt_stdio_output@@QAE@XZ 10031130 f i libucrtd:output.obj
 0001:00030150       ??1?$output_processor@DV?$stream_output_adapter@D@__crt_stdio_output@@V?$standard_base@DV?$stream_output_adapter@D@__crt_stdio_output@@@2@@__crt_stdio_output@@QAE@XZ 10031150 f i libucrtd:output.obj
 0001:00030170       ??1?$output_processor@DV?$string_output_adapter@D@__crt_stdio_output@@V?$format_validation_base@DV?$string_output_adapter@D@__crt_stdio_output@@@2@@__crt_stdio_output@@QAE@XZ 10031170 f i libucrtd:output.obj
 0001:00030190       ??1?$output_processor@DV?$string_output_adapter@D@__crt_stdio_output@@V?$positional_parameter_base@DV?$string_output_adapter@D@__crt_stdio_output@@@2@@__crt_stdio_output@@QAE@XZ 10031190 f i libucrtd:output.obj
 0001:000301b0       ??1?$output_processor@DV?$string_output_adapter@D@__crt_stdio_output@@V?$standard_base@DV?$string_output_adapter@D@__crt_stdio_output@@@2@@__crt_stdio_output@@QAE@XZ 100311b0 f i libucrtd:output.obj
 0001:000301d0       ??1?$output_processor@_WV?$stream_output_adapter@_W@__crt_stdio_output@@V?$format_validation_base@_WV?$stream_output_adapter@_W@__crt_stdio_output@@@2@@__crt_stdio_output@@QAE@XZ 100311d0 f i libucrtd:output.obj
 0001:000301f0       ??1?$output_processor@_WV?$stream_output_adapter@_W@__crt_stdio_output@@V?$positional_parameter_base@_WV?$stream_output_adapter@_W@__crt_stdio_output@@@2@@__crt_stdio_output@@QAE@XZ 100311f0 f i libucrtd:output.obj
 0001:00030210       ??1?$output_processor@_WV?$stream_output_adapter@_W@__crt_stdio_output@@V?$standard_base@_WV?$stream_output_adapter@_W@__crt_stdio_output@@@2@@__crt_stdio_output@@QAE@XZ 10031210 f i libucrtd:output.obj
 0001:00030230       ??1?$output_processor@_WV?$string_output_adapter@_W@__crt_stdio_output@@V?$format_validation_base@_WV?$string_output_adapter@_W@__crt_stdio_output@@@2@@__crt_stdio_output@@QAE@XZ 10031230 f i libucrtd:output.obj
 0001:00030250       ??1?$output_processor@_WV?$string_output_adapter@_W@__crt_stdio_output@@V?$positional_parameter_base@_WV?$string_output_adapter@_W@__crt_stdio_output@@@2@@__crt_stdio_output@@QAE@XZ 10031250 f i libucrtd:output.obj
 0001:00030270       ??1?$output_processor@_WV?$string_output_adapter@_W@__crt_stdio_output@@V?$standard_base@_WV?$string_output_adapter@_W@__crt_stdio_output@@@2@@__crt_stdio_output@@QAE@XZ 10031270 f i libucrtd:output.obj
 0001:00030290       ??1?$positional_parameter_base@DV?$stream_output_adapter@D@__crt_stdio_output@@@__crt_stdio_output@@QAE@XZ 10031290 f i libucrtd:output.obj
 0001:000302b0       ??1?$positional_parameter_base@DV?$string_output_adapter@D@__crt_stdio_output@@@__crt_stdio_output@@QAE@XZ 100312b0 f i libucrtd:output.obj
 0001:000302d0       ??1?$positional_parameter_base@_WV?$stream_output_adapter@_W@__crt_stdio_output@@@__crt_stdio_output@@QAE@XZ 100312d0 f i libucrtd:output.obj
 0001:000302f0       ??1?$positional_parameter_base@_WV?$string_output_adapter@_W@__crt_stdio_output@@@__crt_stdio_output@@QAE@XZ 100312f0 f i libucrtd:output.obj
 0001:00030310       ??1?$standard_base@DV?$stream_output_adapter@D@__crt_stdio_output@@@__crt_stdio_output@@QAE@XZ 10031310 f i libucrtd:output.obj
 0001:00030330       ??1?$standard_base@DV?$string_output_adapter@D@__crt_stdio_output@@@__crt_stdio_output@@QAE@XZ 10031330 f i libucrtd:output.obj
 0001:00030350       ??1?$standard_base@_WV?$stream_output_adapter@_W@__crt_stdio_output@@@__crt_stdio_output@@QAE@XZ 10031350 f i libucrtd:output.obj
 0001:00030370       ??1?$standard_base@_WV?$string_output_adapter@_W@__crt_stdio_output@@@__crt_stdio_output@@QAE@XZ 10031370 f i libucrtd:output.obj
 0001:00030390       ??1__acrt_stdio_temporary_buffering_guard@@QAE@XZ 10031390 f i libucrtd:output.obj
 0001:000303c0       ??1__crt_cached_ptd_host@@QAE@XZ 100313c0 f i libucrtd:output.obj
 0001:00030450       ??1__crt_scoped_get_last_error_reset@@QAE@XZ 10031450 f i libucrtd:output.obj
 0001:00030470       ??1formatting_buffer@__crt_stdio_output@@QAE@XZ 10031470 f i libucrtd:output.obj
 0001:00030490       ??1guard@?$cached@H@__crt_cached_ptd_host@@QAE@XZ 10031490 f i libucrtd:output.obj
 0001:000304c0       ??4?$__crt_unique_heap_ptr@DU__crt_internal_free_policy@@@@QAEAAV0@$$QAV0@@Z 100314c0 f i libucrtd:output.obj
 0001:000304f0       ??A?$spectre_mitigated_lookup_table@Ustate_transition_pair@__crt_stdio_output@@$0IA@@__crt_stdio_output@@QBEABUstate_transition_pair@1@I@Z 100314f0 f i libucrtd:output.obj
 0001:00030510       ??C__crt_stdio_stream@@QBEPAU__crt_stdio_stream_data@@XZ 10031510 f i libucrtd:output.obj
 0001:00030d70       ?adjust_hexit@?$output_processor@DV?$stream_output_adapter@D@__crt_stdio_output@@V?$format_validation_base@DV?$stream_output_adapter@D@__crt_stdio_output@@@2@@__crt_stdio_output@@CADH_N@Z 10031d70 f i libucrtd:output.obj
 0001:00030db0       ?adjust_hexit@?$output_processor@DV?$stream_output_adapter@D@__crt_stdio_output@@V?$positional_parameter_base@DV?$stream_output_adapter@D@__crt_stdio_output@@@2@@__crt_stdio_output@@CADH_N@Z 10031db0 f i libucrtd:output.obj
 0001:00030df0       ?adjust_hexit@?$output_processor@DV?$stream_output_adapter@D@__crt_stdio_output@@V?$standard_base@DV?$stream_output_adapter@D@__crt_stdio_output@@@2@@__crt_stdio_output@@CADH_N@Z 10031df0 f i libucrtd:output.obj
 0001:00030e30       ?adjust_hexit@?$output_processor@DV?$string_output_adapter@D@__crt_stdio_output@@V?$format_validation_base@DV?$string_output_adapter@D@__crt_stdio_output@@@2@@__crt_stdio_output@@CADH_N@Z 10031e30 f i libucrtd:output.obj
 0001:00030e70       ?adjust_hexit@?$output_processor@DV?$string_output_adapter@D@__crt_stdio_output@@V?$positional_parameter_base@DV?$string_output_adapter@D@__crt_stdio_output@@@2@@__crt_stdio_output@@CADH_N@Z 10031e70 f i libucrtd:output.obj
 0001:00030eb0       ?adjust_hexit@?$output_processor@DV?$string_output_adapter@D@__crt_stdio_output@@V?$standard_base@DV?$string_output_adapter@D@__crt_stdio_output@@@2@@__crt_stdio_output@@CADH_N@Z 10031eb0 f i libucrtd:output.obj
 0001:00030ef0       ?adjust_hexit@?$output_processor@_WV?$stream_output_adapter@_W@__crt_stdio_output@@V?$format_validation_base@_WV?$stream_output_adapter@_W@__crt_stdio_output@@@2@@__crt_stdio_output@@CADH_N@Z 10031ef0 f i libucrtd:output.obj
 0001:00030f30       ?adjust_hexit@?$output_processor@_WV?$stream_output_adapter@_W@__crt_stdio_output@@V?$positional_parameter_base@_WV?$stream_output_adapter@_W@__crt_stdio_output@@@2@@__crt_stdio_output@@CADH_N@Z 10031f30 f i libucrtd:output.obj
 0001:00030f70       ?adjust_hexit@?$output_processor@_WV?$stream_output_adapter@_W@__crt_stdio_output@@V?$standard_base@_WV?$stream_output_adapter@_W@__crt_stdio_output@@@2@@__crt_stdio_output@@CADH_N@Z 10031f70 f i libucrtd:output.obj
 0001:00030fb0       ?adjust_hexit@?$output_processor@_WV?$string_output_adapter@_W@__crt_stdio_output@@V?$format_validation_base@_WV?$string_output_adapter@_W@__crt_stdio_output@@@2@@__crt_stdio_output@@CADH_N@Z 10031fb0 f i libucrtd:output.obj
 0001:00030ff0       ?adjust_hexit@?$output_processor@_WV?$string_output_adapter@_W@__crt_stdio_output@@V?$positional_parameter_base@_WV?$string_output_adapter@_W@__crt_stdio_output@@@2@@__crt_stdio_output@@CADH_N@Z 10031ff0 f i libucrtd:output.obj
 0001:00031030       ?adjust_hexit@?$output_processor@_WV?$string_output_adapter@_W@__crt_stdio_output@@V?$standard_base@_WV?$string_output_adapter@_W@__crt_stdio_output@@@2@@__crt_stdio_output@@CADH_N@Z 10032030 f i libucrtd:output.obj
 0001:00031070       ?advance_to_next_pass@?$positional_parameter_base@DV?$stream_output_adapter@D@__crt_stdio_output@@@__crt_stdio_output@@IAE_NXZ 10032070 f i libucrtd:output.obj
 0001:00031110       ?advance_to_next_pass@?$positional_parameter_base@DV?$string_output_adapter@D@__crt_stdio_output@@@__crt_stdio_output@@IAE_NXZ 10032110 f i libucrtd:output.obj
 0001:000311b0       ?advance_to_next_pass@?$positional_parameter_base@_WV?$stream_output_adapter@_W@__crt_stdio_output@@@__crt_stdio_output@@IAE_NXZ 100321b0 f i libucrtd:output.obj
 0001:00031250       ?advance_to_next_pass@?$positional_parameter_base@_WV?$string_output_adapter@_W@__crt_stdio_output@@@__crt_stdio_output@@IAE_NXZ 10032250 f i libucrtd:output.obj
 0001:000312f0       ?advance_to_next_pass@?$standard_base@DV?$stream_output_adapter@D@__crt_stdio_output@@@__crt_stdio_output@@IAE_NXZ 100322f0 f i libucrtd:output.obj
 0001:00031340       ?advance_to_next_pass@?$standard_base@DV?$string_output_adapter@D@__crt_stdio_output@@@__crt_stdio_output@@IAE_NXZ 10032340 f i libucrtd:output.obj
 0001:00031390       ?advance_to_next_pass@?$standard_base@_WV?$stream_output_adapter@_W@__crt_stdio_output@@@__crt_stdio_output@@IAE_NXZ 10032390 f i libucrtd:output.obj
 0001:000313e0       ?advance_to_next_pass@?$standard_base@_WV?$string_output_adapter@_W@__crt_stdio_output@@@__crt_stdio_output@@IAE_NXZ 100323e0 f i libucrtd:output.obj
 0001:00031430       ?check@?$cached@H@__crt_cached_ptd_host@@QBE_NH@Z 10032430 f i libucrtd:output.obj
 0001:00031470       ?check_synchronize_global_state_index@__crt_cached_ptd_host@@AAEIABV__crt_scoped_get_last_error_reset@@@Z 10032470 f i libucrtd:output.obj
 0001:000314a0       ?check_synchronize_per_thread_data@__crt_cached_ptd_host@@AAEPAU__acrt_ptd@@XZ 100324a0 f i libucrtd:output.obj
 0001:000314d0       ?create_guard@?$cached@H@__crt_cached_ptd_host@@QAE?AVguard@12@XZ 100324d0 f i libucrtd:output.obj
 0001:000314f0       ?crop_zeroes@__crt_stdio_output@@YAXPADQAU__crt_locale_pointers@@@Z 100324f0 f i libucrtd:output.obj
 0001:000315f0       ?disable@guard@?$cached@H@__crt_cached_ptd_host@@QAEXXZ 100325f0 f i libucrtd:output.obj
 0001:00031610       ?enable@guard@?$cached@H@__crt_cached_ptd_host@@QAEXXZ 10032610 f i libucrtd:output.obj
 0001:00031630       ?find_next_state@?$output_processor@DV?$stream_output_adapter@D@__crt_stdio_output@@V?$format_validation_base@DV?$stream_output_adapter@D@__crt_stdio_output@@@2@@__crt_stdio_output@@ABE?AW4state@2@DW432@@Z 10032630 f i libucrtd:output.obj
 0001:000316d0       ?find_next_state@?$output_processor@DV?$stream_output_adapter@D@__crt_stdio_output@@V?$positional_parameter_base@DV?$stream_output_adapter@D@__crt_stdio_output@@@2@@__crt_stdio_output@@ABE?AW4state@2@DW432@@Z 100326d0 f i libucrtd:output.obj
 0001:00031770       ?find_next_state@?$output_processor@DV?$stream_output_adapter@D@__crt_stdio_output@@V?$standard_base@DV?$stream_output_adapter@D@__crt_stdio_output@@@2@@__crt_stdio_output@@ABE?AW4state@2@DW432@@Z 10032770 f i libucrtd:output.obj
 0001:00031810       ?find_next_state@?$output_processor@DV?$string_output_adapter@D@__crt_stdio_output@@V?$format_validation_base@DV?$string_output_adapter@D@__crt_stdio_output@@@2@@__crt_stdio_output@@ABE?AW4state@2@DW432@@Z 10032810 f i libucrtd:output.obj
 0001:000318b0       ?find_next_state@?$output_processor@DV?$string_output_adapter@D@__crt_stdio_output@@V?$positional_parameter_base@DV?$string_output_adapter@D@__crt_stdio_output@@@2@@__crt_stdio_output@@ABE?AW4state@2@DW432@@Z 100328b0 f i libucrtd:output.obj
 0001:00031950       ?find_next_state@?$output_processor@DV?$string_output_adapter@D@__crt_stdio_output@@V?$standard_base@DV?$string_output_adapter@D@__crt_stdio_output@@@2@@__crt_stdio_output@@ABE?AW4state@2@DW432@@Z 10032950 f i libucrtd:output.obj
 0001:000319f0       ?find_next_state@?$output_processor@_WV?$stream_output_adapter@_W@__crt_stdio_output@@V?$format_validation_base@_WV?$stream_output_adapter@_W@__crt_stdio_output@@@2@@__crt_stdio_output@@ABE?AW4state@2@_WW432@@Z 100329f0 f i libucrtd:output.obj
 0001:00031a90       ?find_next_state@?$output_processor@_WV?$stream_output_adapter@_W@__crt_stdio_output@@V?$positional_parameter_base@_WV?$stream_output_adapter@_W@__crt_stdio_output@@@2@@__crt_stdio_output@@ABE?AW4state@2@_WW432@@Z 10032a90 f i libucrtd:output.obj
 0001:00031b30       ?find_next_state@?$output_processor@_WV?$stream_output_adapter@_W@__crt_stdio_output@@V?$standard_base@_WV?$stream_output_adapter@_W@__crt_stdio_output@@@2@@__crt_stdio_output@@ABE?AW4state@2@_WW432@@Z 10032b30 f i libucrtd:output.obj
 0001:00031bd0       ?find_next_state@?$output_processor@_WV?$string_output_adapter@_W@__crt_stdio_output@@V?$format_validation_base@_WV?$string_output_adapter@_W@__crt_stdio_output@@@2@@__crt_stdio_output@@ABE?AW4state@2@_WW432@@Z 10032bd0 f i libucrtd:output.obj
 0001:00031c70       ?find_next_state@?$output_processor@_WV?$string_output_adapter@_W@__crt_stdio_output@@V?$positional_parameter_base@_WV?$string_output_adapter@_W@__crt_stdio_output@@@2@@__crt_stdio_output@@ABE?AW4state@2@_WW432@@Z 10032c70 f i libucrtd:output.obj
 0001:00031d10       ?find_next_state@?$output_processor@_WV?$string_output_adapter@_W@__crt_stdio_output@@V?$standard_base@_WV?$string_output_adapter@_W@__crt_stdio_output@@@2@@__crt_stdio_output@@ABE?AW4state@2@_WW432@@Z 10032d10 f i libucrtd:output.obj
 0001:00031db0       ?force_decimal_point@__crt_stdio_output@@YAXPADQAU__crt_locale_pointers@@@Z 10032db0 f i libucrtd:output.obj
 0001:00031e80       ?force_synchronize_global_state_index@__crt_cached_ptd_host@@AAEIABV__crt_scoped_get_last_error_reset@@@Z 10032e80 f i libucrtd:output.obj
 0001:00031eb0       ?force_synchronize_per_thread_data@__crt_cached_ptd_host@@AAEPAU__acrt_ptd@@XZ 10032eb0 f i libucrtd:output.obj
 0001:00031f00       ?get@?$c_string_character_source@D@__crt_strtox@@QAEDXZ 10032f00 f i libucrtd:output.obj
 0001:00031f30       ?get@?$c_string_character_source@_W@__crt_strtox@@QAE_WXZ 10032f30 f i libucrtd:output.obj
 0001:00031f60       ?get_current_state_index@__crt_state_management@@YAIABV__crt_scoped_get_last_error_reset@@@Z 10032f60 f i libucrtd:output.obj
 0001:00031f70       ?get_errno@__crt_cached_ptd_host@@QAE@XZ 10032f70 f i libucrtd:output.obj
 0001:00031f90       ?get_flags@__crt_stdio_stream@@QBEJXZ 10032f90 f i libucrtd:output.obj
 0001:00031fb0       ?get_locale@__crt_cached_ptd_host@@QAEPAU__crt_locale_pointers@@XZ 10032fb0 f i libucrtd:output.obj
 0001:00031fd0       ?get_parameter_type@?$positional_parameter_base@DV?$stream_output_adapter@D@__crt_stdio_output@@@__crt_stdio_output@@CA?AW4parameter_type@12@F@Z 10032fd0 f i libucrtd:output.obj
 0001:00031fe0       ?get_parameter_type@?$positional_parameter_base@DV?$stream_output_adapter@D@__crt_stdio_output@@@__crt_stdio_output@@CA?AW4parameter_type@12@G@Z 10032fe0 f i libucrtd:output.obj
 0001:00031ff0       ?get_parameter_type@?$positional_parameter_base@DV?$stream_output_adapter@D@__crt_stdio_output@@@__crt_stdio_output@@CA?AW4parameter_type@12@H@Z 10032ff0 f i libucrtd:output.obj
 0001:00032000       ?get_parameter_type@?$positional_parameter_base@DV?$stream_output_adapter@D@__crt_stdio_output@@@__crt_stdio_output@@CA?AW4parameter_type@12@I@Z 10033000 f i libucrtd:output.obj
 0001:00032010       ?get_parameter_type@?$positional_parameter_base@DV?$stream_output_adapter@D@__crt_stdio_output@@@__crt_stdio_output@@CA?AW4parameter_type@12@U_CRT_DOUBLE@@@Z 10033010 f i libucrtd:output.obj
 0001:00032020       ?get_parameter_type@?$positional_parameter_base@DV?$stream_output_adapter@D@__crt_stdio_output@@@__crt_stdio_output@@CA?AW4parameter_type@12@_J@Z 10033020 f i libucrtd:output.obj
 0001:00032030       ?get_parameter_type@?$positional_parameter_base@DV?$stream_output_adapter@D@__crt_stdio_output@@@__crt_stdio_output@@CA?AW4parameter_type@12@_K@Z 10033030 f i libucrtd:output.obj
 0001:00032040       ?get_parameter_type@?$positional_parameter_base@DV?$stream_output_adapter@D@__crt_stdio_output@@@__crt_stdio_output@@CA?AW4parameter_type@12@_W@Z 10033040 f i libucrtd:output.obj
 0001:00032050       ?get_parameter_type@?$positional_parameter_base@DV?$string_output_adapter@D@__crt_stdio_output@@@__crt_stdio_output@@CA?AW4parameter_type@12@F@Z 10033050 f i libucrtd:output.obj
 0001:00032060       ?get_parameter_type@?$positional_parameter_base@DV?$string_output_adapter@D@__crt_stdio_output@@@__crt_stdio_output@@CA?AW4parameter_type@12@G@Z 10033060 f i libucrtd:output.obj
 0001:00032070       ?get_parameter_type@?$positional_parameter_base@DV?$string_output_adapter@D@__crt_stdio_output@@@__crt_stdio_output@@CA?AW4parameter_type@12@H@Z 10033070 f i libucrtd:output.obj
 0001:00032080       ?get_parameter_type@?$positional_parameter_base@DV?$string_output_adapter@D@__crt_stdio_output@@@__crt_stdio_output@@CA?AW4parameter_type@12@I@Z 10033080 f i libucrtd:output.obj
 0001:00032090       ?get_parameter_type@?$positional_parameter_base@DV?$string_output_adapter@D@__crt_stdio_output@@@__crt_stdio_output@@CA?AW4parameter_type@12@U_CRT_DOUBLE@@@Z 10033090 f i libucrtd:output.obj
 0001:000320a0       ?get_parameter_type@?$positional_parameter_base@DV?$string_output_adapter@D@__crt_stdio_output@@@__crt_stdio_output@@CA?AW4parameter_type@12@_J@Z 100330a0 f i libucrtd:output.obj
 0001:000320b0       ?get_parameter_type@?$positional_parameter_base@DV?$string_output_adapter@D@__crt_stdio_output@@@__crt_stdio_output@@CA?AW4parameter_type@12@_K@Z 100330b0 f i libucrtd:output.obj
 0001:000320c0       ?get_parameter_type@?$positional_parameter_base@DV?$string_output_adapter@D@__crt_stdio_output@@@__crt_stdio_output@@CA?AW4parameter_type@12@_W@Z 100330c0 f i libucrtd:output.obj
 0001:000320d0       ?get_parameter_type@?$positional_parameter_base@_WV?$stream_output_adapter@_W@__crt_stdio_output@@@__crt_stdio_output@@CA?AW4parameter_type@12@F@Z 100330d0 f i libucrtd:output.obj
 0001:000320e0       ?get_parameter_type@?$positional_parameter_base@_WV?$stream_output_adapter@_W@__crt_stdio_output@@@__crt_stdio_output@@CA?AW4parameter_type@12@G@Z 100330e0 f i libucrtd:output.obj
 0001:000320f0       ?get_parameter_type@?$positional_parameter_base@_WV?$stream_output_adapter@_W@__crt_stdio_output@@@__crt_stdio_output@@CA?AW4parameter_type@12@H@Z 100330f0 f i libucrtd:output.obj
 0001:00032100       ?get_parameter_type@?$positional_parameter_base@_WV?$stream_output_adapter@_W@__crt_stdio_output@@@__crt_stdio_output@@CA?AW4parameter_type@12@I@Z 10033100 f i libucrtd:output.obj
 0001:00032110       ?get_parameter_type@?$positional_parameter_base@_WV?$stream_output_adapter@_W@__crt_stdio_output@@@__crt_stdio_output@@CA?AW4parameter_type@12@U_CRT_DOUBLE@@@Z 10033110 f i libucrtd:output.obj
 0001:00032120       ?get_parameter_type@?$positional_parameter_base@_WV?$stream_output_adapter@_W@__crt_stdio_output@@@__crt_stdio_output@@CA?AW4parameter_type@12@_J@Z 10033120 f i libucrtd:output.obj
 0001:00032130       ?get_parameter_type@?$positional_parameter_base@_WV?$stream_output_adapter@_W@__crt_stdio_output@@@__crt_stdio_output@@CA?AW4parameter_type@12@_K@Z 10033130 f i libucrtd:output.obj
 0001:00032140       ?get_parameter_type@?$positional_parameter_base@_WV?$stream_output_adapter@_W@__crt_stdio_output@@@__crt_stdio_output@@CA?AW4parameter_type@12@_W@Z 10033140 f i libucrtd:output.obj
 0001:00032150       ?get_parameter_type@?$positional_parameter_base@_WV?$string_output_adapter@_W@__crt_stdio_output@@@__crt_stdio_output@@CA?AW4parameter_type@12@F@Z 10033150 f i libucrtd:output.obj
 0001:00032160       ?get_parameter_type@?$positional_parameter_base@_WV?$string_output_adapter@_W@__crt_stdio_output@@@__crt_stdio_output@@CA?AW4parameter_type@12@G@Z 10033160 f i libucrtd:output.obj
 0001:00032170       ?get_parameter_type@?$positional_parameter_base@_WV?$string_output_adapter@_W@__crt_stdio_output@@@__crt_stdio_output@@CA?AW4parameter_type@12@H@Z 10033170 f i libucrtd:output.obj
 0001:00032180       ?get_parameter_type@?$positional_parameter_base@_WV?$string_output_adapter@_W@__crt_stdio_output@@@__crt_stdio_output@@CA?AW4parameter_type@12@I@Z 10033180 f i libucrtd:output.obj
 0001:00032190       ?get_parameter_type@?$positional_parameter_base@_WV?$string_output_adapter@_W@__crt_stdio_output@@@__crt_stdio_output@@CA?AW4parameter_type@12@U_CRT_DOUBLE@@@Z 10033190 f i libucrtd:output.obj
 0001:000321a0       ?get_parameter_type@?$positional_parameter_base@_WV?$string_output_adapter@_W@__crt_stdio_output@@@__crt_stdio_output@@CA?AW4parameter_type@12@_J@Z 100331a0 f i libucrtd:output.obj
 0001:000321b0       ?get_parameter_type@?$positional_parameter_base@_WV?$string_output_adapter@_W@__crt_stdio_output@@@__crt_stdio_output@@CA?AW4parameter_type@12@_K@Z 100331b0 f i libucrtd:output.obj
 0001:000321c0       ?get_parameter_type@?$positional_parameter_base@_WV?$string_output_adapter@_W@__crt_stdio_output@@@__crt_stdio_output@@CA?AW4parameter_type@12@_W@Z 100331c0 f i libucrtd:output.obj
 0001:000321d0       ?get_raw_ptd@__crt_cached_ptd_host@@QAEPAU__acrt_ptd@@XZ 100331d0 f i libucrtd:output.obj
 0001:000321f0       ?has_flag@?$output_processor@DV?$stream_output_adapter@D@__crt_stdio_output@@V?$format_validation_base@DV?$stream_output_adapter@D@__crt_stdio_output@@@2@@__crt_stdio_output@@ABE_NI@Z 100331f0 f i libucrtd:output.obj
 0001:00032220       ?has_flag@?$output_processor@DV?$stream_output_adapter@D@__crt_stdio_output@@V?$positional_parameter_base@DV?$stream_output_adapter@D@__crt_stdio_output@@@2@@__crt_stdio_output@@ABE_NI@Z 10033220 f i libucrtd:output.obj
 0001:00032250       ?has_flag@?$output_processor@DV?$stream_output_adapter@D@__crt_stdio_output@@V?$standard_base@DV?$stream_output_adapter@D@__crt_stdio_output@@@2@@__crt_stdio_output@@ABE_NI@Z 10033250 f i libucrtd:output.obj
 0001:00032280       ?has_flag@?$output_processor@DV?$string_output_adapter@D@__crt_stdio_output@@V?$format_validation_base@DV?$string_output_adapter@D@__crt_stdio_output@@@2@@__crt_stdio_output@@ABE_NI@Z 10033280 f i libucrtd:output.obj
 0001:000322b0       ?has_flag@?$output_processor@DV?$string_output_adapter@D@__crt_stdio_output@@V?$positional_parameter_base@DV?$string_output_adapter@D@__crt_stdio_output@@@2@@__crt_stdio_output@@ABE_NI@Z 100332b0 f i libucrtd:output.obj
 0001:000322e0       ?has_flag@?$output_processor@DV?$string_output_adapter@D@__crt_stdio_output@@V?$standard_base@DV?$string_output_adapter@D@__crt_stdio_output@@@2@@__crt_stdio_output@@ABE_NI@Z 100332e0 f i libucrtd:output.obj
 0001:00032310       ?has_flag@?$output_processor@_WV?$stream_output_adapter@_W@__crt_stdio_output@@V?$format_validation_base@_WV?$stream_output_adapter@_W@__crt_stdio_output@@@2@@__crt_stdio_output@@ABE_NI@Z 10033310 f i libucrtd:output.obj
 0001:00032340       ?has_flag@?$output_processor@_WV?$stream_output_adapter@_W@__crt_stdio_output@@V?$positional_parameter_base@_WV?$stream_output_adapter@_W@__crt_stdio_output@@@2@@__crt_stdio_output@@ABE_NI@Z 10033340 f i libucrtd:output.obj
 0001:00032370       ?has_flag@?$output_processor@_WV?$stream_output_adapter@_W@__crt_stdio_output@@V?$standard_base@_WV?$stream_output_adapter@_W@__crt_stdio_output@@@2@@__crt_stdio_output@@ABE_NI@Z 10033370 f i libucrtd:output.obj
 0001:000323a0       ?has_flag@?$output_processor@_WV?$string_output_adapter@_W@__crt_stdio_output@@V?$format_validation_base@_WV?$string_output_adapter@_W@__crt_stdio_output@@@2@@__crt_stdio_output@@ABE_NI@Z 100333a0 f i libucrtd:output.obj
 0001:000323d0       ?has_flag@?$output_processor@_WV?$string_output_adapter@_W@__crt_stdio_output@@V?$positional_parameter_base@_WV?$string_output_adapter@_W@__crt_stdio_output@@@2@@__crt_stdio_output@@ABE_NI@Z 100333d0 f i libucrtd:output.obj
 0001:00032400       ?has_flag@?$output_processor@_WV?$string_output_adapter@_W@__crt_stdio_output@@V?$standard_base@_WV?$string_output_adapter@_W@__crt_stdio_output@@@2@@__crt_stdio_output@@ABE_NI@Z 10033400 f i libucrtd:output.obj
 0001:00032430       ?is_positional_parameter_reappearance_consistent@?$positional_parameter_base@DV?$stream_output_adapter@D@__crt_stdio_output@@@__crt_stdio_output@@AAE_NABUparameter_data@12@W4parameter_type@12@DW4length_modifier@2@@Z 10033430 f i libucrtd:output.obj
 0001:00032660       ?is_positional_parameter_reappearance_consistent@?$positional_parameter_base@DV?$string_output_adapter@D@__crt_stdio_output@@@__crt_stdio_output@@AAE_NABUparameter_data@12@W4parameter_type@12@DW4length_modifier@2@@Z 10033660 f i libucrtd:output.obj
 0001:00032890       ?is_positional_parameter_reappearance_consistent@?$positional_parameter_base@_WV?$stream_output_adapter@_W@__crt_stdio_output@@@__crt_stdio_output@@AAE_NABUparameter_data@12@W4parameter_type@12@_WW4length_modifier@2@@Z 10033890 f i libucrtd:output.obj
 0001:00032ac0       ?is_positional_parameter_reappearance_consistent@?$positional_parameter_base@_WV?$string_output_adapter@_W@__crt_stdio_output@@@__crt_stdio_output@@AAE_NABUparameter_data@12@W4parameter_type@12@_WW4length_modifier@2@@Z 10033ac0 f i libucrtd:output.obj
 0001:00032cf0       ?is_string_backed@__crt_stdio_stream@@QBE_NXZ 10033cf0 f i libucrtd:output.obj
 0001:00032d30       ?maximum_signed_value@__crt_strtox@@YAJK@Z 10033d30 f i libucrtd:output.obj
 0001:00032d40       ?minimum_signed_value@__crt_strtox@@YAJK@Z 10033d40 f i libucrtd:output.obj
 0001:00032d50       ?narrow_null_string@?$output_processor@DV?$stream_output_adapter@D@__crt_stdio_output@@V?$format_validation_base@DV?$stream_output_adapter@D@__crt_stdio_output@@@2@@__crt_stdio_output@@CAPADXZ 10033d50 f i libucrtd:output.obj
 0001:00032d60       ?narrow_null_string@?$output_processor@DV?$stream_output_adapter@D@__crt_stdio_output@@V?$positional_parameter_base@DV?$stream_output_adapter@D@__crt_stdio_output@@@2@@__crt_stdio_output@@CAPADXZ 10033d60 f i libucrtd:output.obj
 0001:00032d70       ?narrow_null_string@?$output_processor@DV?$stream_output_adapter@D@__crt_stdio_output@@V?$standard_base@DV?$stream_output_adapter@D@__crt_stdio_output@@@2@@__crt_stdio_output@@CAPADXZ 10033d70 f i libucrtd:output.obj
 0001:00032d80       ?narrow_null_string@?$output_processor@DV?$string_output_adapter@D@__crt_stdio_output@@V?$format_validation_base@DV?$string_output_adapter@D@__crt_stdio_output@@@2@@__crt_stdio_output@@CAPADXZ 10033d80 f i libucrtd:output.obj
 0001:00032d90       ?narrow_null_string@?$output_processor@DV?$string_output_adapter@D@__crt_stdio_output@@V?$positional_parameter_base@DV?$string_output_adapter@D@__crt_stdio_output@@@2@@__crt_stdio_output@@CAPADXZ 10033d90 f i libucrtd:output.obj
 0001:00032da0       ?narrow_null_string@?$output_processor@DV?$string_output_adapter@D@__crt_stdio_output@@V?$standard_base@DV?$string_output_adapter@D@__crt_stdio_output@@@2@@__crt_stdio_output@@CAPADXZ 10033da0 f i libucrtd:output.obj
 0001:00032db0       ?narrow_null_string@?$output_processor@_WV?$stream_output_adapter@_W@__crt_stdio_output@@V?$format_validation_base@_WV?$stream_output_adapter@_W@__crt_stdio_output@@@2@@__crt_stdio_output@@CAPADXZ 10033db0 f i libucrtd:output.obj
 0001:00032dc0       ?narrow_null_string@?$output_processor@_WV?$stream_output_adapter@_W@__crt_stdio_output@@V?$positional_parameter_base@_WV?$stream_output_adapter@_W@__crt_stdio_output@@@2@@__crt_stdio_output@@CAPADXZ 10033dc0 f i libucrtd:output.obj
 0001:00032dd0       ?narrow_null_string@?$output_processor@_WV?$stream_output_adapter@_W@__crt_stdio_output@@V?$standard_base@_WV?$stream_output_adapter@_W@__crt_stdio_output@@@2@@__crt_stdio_output@@CAPADXZ 10033dd0 f i libucrtd:output.obj
 0001:00032de0       ?narrow_null_string@?$output_processor@_WV?$string_output_adapter@_W@__crt_stdio_output@@V?$format_validation_base@_WV?$string_output_adapter@_W@__crt_stdio_output@@@2@@__crt_stdio_output@@CAPADXZ 10033de0 f i libucrtd:output.obj
 0001:00032df0       ?narrow_null_string@?$output_processor@_WV?$string_output_adapter@_W@__crt_stdio_output@@V?$positional_parameter_base@_WV?$string_output_adapter@_W@__crt_stdio_output@@@2@@__crt_stdio_output@@CAPADXZ 10033df0 f i libucrtd:output.obj
 0001:00032e00       ?narrow_null_string@?$output_processor@_WV?$string_output_adapter@_W@__crt_stdio_output@@V?$standard_base@_WV?$string_output_adapter@_W@__crt_stdio_output@@@2@@__crt_stdio_output@@CAPADXZ 10033e00 f i libucrtd:output.obj
 0001:00032e10       ?parse_digit@__crt_strtox@@YAID@Z 10033e10 f i libucrtd:output.obj
 0001:00032e70       ?parse_digit@__crt_strtox@@YAI_W@Z 10033e70 f i libucrtd:output.obj
 0001:00032ec0       ?parse_int_from_format_string@?$output_processor@DV?$stream_output_adapter@D@__crt_stdio_output@@V?$format_validation_base@DV?$stream_output_adapter@D@__crt_stdio_output@@@2@@__crt_stdio_output@@AAE_NQAH@Z 10033ec0 f i libucrtd:output.obj
 0001:00032f80       ?parse_int_from_format_string@?$output_processor@DV?$stream_output_adapter@D@__crt_stdio_output@@V?$positional_parameter_base@DV?$stream_output_adapter@D@__crt_stdio_output@@@2@@__crt_stdio_output@@AAE_NQAH@Z 10033f80 f i libucrtd:output.obj
 0001:00033040       ?parse_int_from_format_string@?$output_processor@DV?$stream_output_adapter@D@__crt_stdio_output@@V?$standard_base@DV?$stream_output_adapter@D@__crt_stdio_output@@@2@@__crt_stdio_output@@AAE_NQAH@Z 10034040 f i libucrtd:output.obj
 0001:00033100       ?parse_int_from_format_string@?$output_processor@DV?$string_output_adapter@D@__crt_stdio_output@@V?$format_validation_base@DV?$string_output_adapter@D@__crt_stdio_output@@@2@@__crt_stdio_output@@AAE_NQAH@Z 10034100 f i libucrtd:output.obj
 0001:000331c0       ?parse_int_from_format_string@?$output_processor@DV?$string_output_adapter@D@__crt_stdio_output@@V?$positional_parameter_base@DV?$string_output_adapter@D@__crt_stdio_output@@@2@@__crt_stdio_output@@AAE_NQAH@Z 100341c0 f i libucrtd:output.obj
 0001:00033280       ?parse_int_from_format_string@?$output_processor@DV?$string_output_adapter@D@__crt_stdio_output@@V?$standard_base@DV?$string_output_adapter@D@__crt_stdio_output@@@2@@__crt_stdio_output@@AAE_NQAH@Z 10034280 f i libucrtd:output.obj
 0001:00033340       ?parse_int_from_format_string@?$output_processor@_WV?$stream_output_adapter@_W@__crt_stdio_output@@V?$format_validation_base@_WV?$stream_output_adapter@_W@__crt_stdio_output@@@2@@__crt_stdio_output@@AAE_NQAH@Z 10034340 f i libucrtd:output.obj
 0001:00033400       ?parse_int_from_format_string@?$output_processor@_WV?$stream_output_adapter@_W@__crt_stdio_output@@V?$positional_parameter_base@_WV?$stream_output_adapter@_W@__crt_stdio_output@@@2@@__crt_stdio_output@@AAE_NQAH@Z 10034400 f i libucrtd:output.obj
 0001:000334c0       ?parse_int_from_format_string@?$output_processor@_WV?$stream_output_adapter@_W@__crt_stdio_output@@V?$standard_base@_WV?$stream_output_adapter@_W@__crt_stdio_output@@@2@@__crt_stdio_output@@AAE_NQAH@Z 100344c0 f i libucrtd:output.obj
 0001:00033580       ?parse_int_from_format_string@?$output_processor@_WV?$string_output_adapter@_W@__crt_stdio_output@@V?$format_validation_base@_WV?$string_output_adapter@_W@__crt_stdio_output@@@2@@__crt_stdio_output@@AAE_NQAH@Z 10034580 f i libucrtd:output.obj
 0001:00033640       ?parse_int_from_format_string@?$output_processor@_WV?$string_output_adapter@_W@__crt_stdio_output@@V?$positional_parameter_base@_WV?$string_output_adapter@_W@__crt_stdio_output@@@2@@__crt_stdio_output@@AAE_NQAH@Z 10034640 f i libucrtd:output.obj
 0001:00033700       ?parse_int_from_format_string@?$output_processor@_WV?$string_output_adapter@_W@__crt_stdio_output@@V?$standard_base@_WV?$string_output_adapter@_W@__crt_stdio_output@@@2@@__crt_stdio_output@@AAE_NQAH@Z 10034700 f i libucrtd:output.obj
 0001:000337c0       ?process@?$output_processor@DV?$stream_output_adapter@D@__crt_stdio_output@@V?$format_validation_base@DV?$stream_output_adapter@D@__crt_stdio_output@@@2@@__crt_stdio_output@@QAEHXZ 100347c0 f i libucrtd:output.obj
 0001:00033aa0       ?process@?$output_processor@DV?$stream_output_adapter@D@__crt_stdio_output@@V?$positional_parameter_base@DV?$stream_output_adapter@D@__crt_stdio_output@@@2@@__crt_stdio_output@@QAEHXZ 10034aa0 f i libucrtd:output.obj
 0001:00033d80       ?process@?$output_processor@DV?$stream_output_adapter@D@__crt_stdio_output@@V?$standard_base@DV?$stream_output_adapter@D@__crt_stdio_output@@@2@@__crt_stdio_output@@QAEHXZ 10034d80 f i libucrtd:output.obj
 0001:00034060       ?process@?$output_processor@DV?$string_output_adapter@D@__crt_stdio_output@@V?$format_validation_base@DV?$string_output_adapter@D@__crt_stdio_output@@@2@@__crt_stdio_output@@QAEHXZ 10035060 f i libucrtd:output.obj
 0001:00034340       ?process@?$output_processor@DV?$string_output_adapter@D@__crt_stdio_output@@V?$positional_parameter_base@DV?$string_output_adapter@D@__crt_stdio_output@@@2@@__crt_stdio_output@@QAEHXZ 10035340 f i libucrtd:output.obj
 0001:00034620       ?process@?$output_processor@DV?$string_output_adapter@D@__crt_stdio_output@@V?$standard_base@DV?$string_output_adapter@D@__crt_stdio_output@@@2@@__crt_stdio_output@@QAEHXZ 10035620 f i libucrtd:output.obj
 0001:00034900       ?process@?$output_processor@_WV?$stream_output_adapter@_W@__crt_stdio_output@@V?$format_validation_base@_WV?$stream_output_adapter@_W@__crt_stdio_output@@@2@@__crt_stdio_output@@QAEHXZ 10035900 f i libucrtd:output.obj
 0001:00034be0       ?process@?$output_processor@_WV?$stream_output_adapter@_W@__crt_stdio_output@@V?$positional_parameter_base@_WV?$stream_output_adapter@_W@__crt_stdio_output@@@2@@__crt_stdio_output@@QAEHXZ 10035be0 f i libucrtd:output.obj
 0001:00034ec0       ?process@?$output_processor@_WV?$stream_output_adapter@_W@__crt_stdio_output@@V?$standard_base@_WV?$stream_output_adapter@_W@__crt_stdio_output@@@2@@__crt_stdio_output@@QAEHXZ 10035ec0 f i libucrtd:output.obj
 0001:000351a0       ?process@?$output_processor@_WV?$string_output_adapter@_W@__crt_stdio_output@@V?$format_validation_base@_WV?$string_output_adapter@_W@__crt_stdio_output@@@2@@__crt_stdio_output@@QAEHXZ 100361a0 f i libucrtd:output.obj
 0001:00035480       ?process@?$output_processor@_WV?$string_output_adapter@_W@__crt_stdio_output@@V?$positional_parameter_base@_WV?$string_output_adapter@_W@__crt_stdio_output@@@2@@__crt_stdio_output@@QAEHXZ 10036480 f i libucrtd:output.obj
 0001:00035760       ?process@?$output_processor@_WV?$string_output_adapter@_W@__crt_stdio_output@@V?$standard_base@_WV?$string_output_adapter@_W@__crt_stdio_output@@@2@@__crt_stdio_output@@QAEHXZ 10036760 f i libucrtd:output.obj
 0001:00035a40       ?public_stream@__crt_stdio_stream@@QBEPAU_iobuf@@XZ 10036a40 f i libucrtd:output.obj
 0001:00035a60       ?restore_state@?$c_string_character_source@D@__crt_strtox@@QAE_NQBD@Z 10036a60 f i libucrtd:output.obj
 0001:00035a80       ?restore_state@?$c_string_character_source@_W@__crt_strtox@@QAE_NQB_W@Z 10036a80 f i libucrtd:output.obj
 0001:00035aa0       ?save_state@?$c_string_character_source@D@__crt_strtox@@QBEPBDXZ 10036aa0 f i libucrtd:output.obj
 0001:00035ac0       ?save_state@?$c_string_character_source@_W@__crt_strtox@@QBEPB_WXZ 10036ac0 f i libucrtd:output.obj
 0001:00035ae0       ?set@?$cached@H@__crt_cached_ptd_host@@QAEHH@Z 10036ae0 f i libucrtd:output.obj
 0001:00035b10       ?set_flag@?$output_processor@DV?$stream_output_adapter@D@__crt_stdio_output@@V?$format_validation_base@DV?$stream_output_adapter@D@__crt_stdio_output@@@2@@__crt_stdio_output@@AAEXI@Z 10036b10 f i libucrtd:output.obj
 0001:00035b30       ?set_flag@?$output_processor@DV?$stream_output_adapter@D@__crt_stdio_output@@V?$positional_parameter_base@DV?$stream_output_adapter@D@__crt_stdio_output@@@2@@__crt_stdio_output@@AAEXI@Z 10036b30 f i libucrtd:output.obj
 0001:00035b50       ?set_flag@?$output_processor@DV?$stream_output_adapter@D@__crt_stdio_output@@V?$standard_base@DV?$stream_output_adapter@D@__crt_stdio_output@@@2@@__crt_stdio_output@@AAEXI@Z 10036b50 f i libucrtd:output.obj
 0001:00035b70       ?set_flag@?$output_processor@DV?$string_output_adapter@D@__crt_stdio_output@@V?$format_validation_base@DV?$string_output_adapter@D@__crt_stdio_output@@@2@@__crt_stdio_output@@AAEXI@Z 10036b70 f i libucrtd:output.obj
 0001:00035b90       ?set_flag@?$output_processor@DV?$string_output_adapter@D@__crt_stdio_output@@V?$positional_parameter_base@DV?$string_output_adapter@D@__crt_stdio_output@@@2@@__crt_stdio_output@@AAEXI@Z 10036b90 f i libucrtd:output.obj
 0001:00035bb0       ?set_flag@?$output_processor@DV?$string_output_adapter@D@__crt_stdio_output@@V?$standard_base@DV?$string_output_adapter@D@__crt_stdio_output@@@2@@__crt_stdio_output@@AAEXI@Z 10036bb0 f i libucrtd:output.obj
 0001:00035bd0       ?set_flag@?$output_processor@_WV?$stream_output_adapter@_W@__crt_stdio_output@@V?$format_validation_base@_WV?$stream_output_adapter@_W@__crt_stdio_output@@@2@@__crt_stdio_output@@AAEXI@Z 10036bd0 f i libucrtd:output.obj
 0001:00035bf0       ?set_flag@?$output_processor@_WV?$stream_output_adapter@_W@__crt_stdio_output@@V?$positional_parameter_base@_WV?$stream_output_adapter@_W@__crt_stdio_output@@@2@@__crt_stdio_output@@AAEXI@Z 10036bf0 f i libucrtd:output.obj
 0001:00035c10       ?set_flag@?$output_processor@_WV?$stream_output_adapter@_W@__crt_stdio_output@@V?$standard_base@_WV?$stream_output_adapter@_W@__crt_stdio_output@@@2@@__crt_stdio_output@@AAEXI@Z 10036c10 f i libucrtd:output.obj
 0001:00035c30       ?set_flag@?$output_processor@_WV?$string_output_adapter@_W@__crt_stdio_output@@V?$format_validation_base@_WV?$string_output_adapter@_W@__crt_stdio_output@@@2@@__crt_stdio_output@@AAEXI@Z 10036c30 f i libucrtd:output.obj
 0001:00035c50       ?set_flag@?$output_processor@_WV?$string_output_adapter@_W@__crt_stdio_output@@V?$positional_parameter_base@_WV?$string_output_adapter@_W@__crt_stdio_output@@@2@@__crt_stdio_output@@AAEXI@Z 10036c50 f i libucrtd:output.obj
 0001:00035c70       ?set_flag@?$output_processor@_WV?$string_output_adapter@_W@__crt_stdio_output@@V?$standard_base@_WV?$string_output_adapter@_W@__crt_stdio_output@@@2@@__crt_stdio_output@@AAEXI@Z 10036c70 f i libucrtd:output.obj
 0001:00035c90       ?should_format@?$positional_parameter_base@DV?$stream_output_adapter@D@__crt_stdio_output@@@__crt_stdio_output@@IAE_NXZ 10036c90 f i libucrtd:output.obj
 0001:00035cd0       ?should_format@?$positional_parameter_base@DV?$string_output_adapter@D@__crt_stdio_output@@@__crt_stdio_output@@IAE_NXZ 10036cd0 f i libucrtd:output.obj
 0001:00035d10       ?should_format@?$positional_parameter_base@_WV?$stream_output_adapter@_W@__crt_stdio_output@@@__crt_stdio_output@@IAE_NXZ 10036d10 f i libucrtd:output.obj
 0001:00035d50       ?should_format@?$positional_parameter_base@_WV?$string_output_adapter@_W@__crt_stdio_output@@@__crt_stdio_output@@IAE_NXZ 10036d50 f i libucrtd:output.obj
 0001:00035d90       ?should_format@?$standard_base@DV?$stream_output_adapter@D@__crt_stdio_output@@@__crt_stdio_output@@IAE_NXZ 10036d90 f i libucrtd:output.obj
 0001:00035da0       ?should_format@?$standard_base@DV?$string_output_adapter@D@__crt_stdio_output@@@__crt_stdio_output@@IAE_NXZ 10036da0 f i libucrtd:output.obj
 0001:00035db0       ?should_format@?$standard_base@_WV?$stream_output_adapter@_W@__crt_stdio_output@@@__crt_stdio_output@@IAE_NXZ 10036db0 f i libucrtd:output.obj
 0001:00035dc0       ?should_format@?$standard_base@_WV?$string_output_adapter@_W@__crt_stdio_output@@@__crt_stdio_output@@IAE_NXZ 10036dc0 f i libucrtd:output.obj
 0001:00035dd0       ?should_skip_normal_state_processing@?$positional_parameter_base@DV?$stream_output_adapter@D@__crt_stdio_output@@@__crt_stdio_output@@IAE_NXZ 10036dd0 f i libucrtd:output.obj
 0001:00035e20       ?should_skip_normal_state_processing@?$positional_parameter_base@DV?$string_output_adapter@D@__crt_stdio_output@@@__crt_stdio_output@@IAE_NXZ 10036e20 f i libucrtd:output.obj
 0001:00035e70       ?should_skip_normal_state_processing@?$positional_parameter_base@_WV?$stream_output_adapter@_W@__crt_stdio_output@@@__crt_stdio_output@@IAE_NXZ 10036e70 f i libucrtd:output.obj
 0001:00035ec0       ?should_skip_normal_state_processing@?$positional_parameter_base@_WV?$string_output_adapter@_W@__crt_stdio_output@@@__crt_stdio_output@@IAE_NXZ 10036ec0 f i libucrtd:output.obj
 0001:00035f10       ?should_skip_normal_state_processing@?$standard_base@DV?$stream_output_adapter@D@__crt_stdio_output@@@__crt_stdio_output@@IAE_NXZ 10036f10 f i libucrtd:output.obj
 0001:00035f20       ?should_skip_normal_state_processing@?$standard_base@DV?$string_output_adapter@D@__crt_stdio_output@@@__crt_stdio_output@@IAE_NXZ 10036f20 f i libucrtd:output.obj
 0001:00035f30       ?should_skip_normal_state_processing@?$standard_base@_WV?$stream_output_adapter@_W@__crt_stdio_output@@@__crt_stdio_output@@IAE_NXZ 10036f30 f i libucrtd:output.obj
 0001:00035f40       ?should_skip_normal_state_processing@?$standard_base@_WV?$string_output_adapter@_W@__crt_stdio_output@@@__crt_stdio_output@@IAE_NXZ 10036f40 f i libucrtd:output.obj
 0001:00035f50       ?should_skip_type_state_output@?$positional_parameter_base@DV?$stream_output_adapter@D@__crt_stdio_output@@@__crt_stdio_output@@IBE_NXZ 10036f50 f i libucrtd:output.obj
 0001:00035f90       ?should_skip_type_state_output@?$positional_parameter_base@DV?$string_output_adapter@D@__crt_stdio_output@@@__crt_stdio_output@@IBE_NXZ 10036f90 f i libucrtd:output.obj
 0001:00035fd0       ?should_skip_type_state_output@?$positional_parameter_base@_WV?$stream_output_adapter@_W@__crt_stdio_output@@@__crt_stdio_output@@IBE_NXZ 10036fd0 f i libucrtd:output.obj
 0001:00036010       ?should_skip_type_state_output@?$positional_parameter_base@_WV?$string_output_adapter@_W@__crt_stdio_output@@@__crt_stdio_output@@IBE_NXZ 10037010 f i libucrtd:output.obj
 0001:00036050       ?should_skip_type_state_output@?$standard_base@DV?$stream_output_adapter@D@__crt_stdio_output@@@__crt_stdio_output@@IBE_NXZ 10037050 f i libucrtd:output.obj
 0001:00036060       ?should_skip_type_state_output@?$standard_base@DV?$string_output_adapter@D@__crt_stdio_output@@@__crt_stdio_output@@IBE_NXZ 10037060 f i libucrtd:output.obj
 0001:00036070       ?should_skip_type_state_output@?$standard_base@_WV?$stream_output_adapter@_W@__crt_stdio_output@@@__crt_stdio_output@@IBE_NXZ 10037070 f i libucrtd:output.obj
 0001:00036080       ?should_skip_type_state_output@?$standard_base@_WV?$string_output_adapter@_W@__crt_stdio_output@@@__crt_stdio_output@@IBE_NXZ 10037080 f i libucrtd:output.obj
 0001:00036090       ?state_case_dot@?$output_processor@DV?$stream_output_adapter@D@__crt_stdio_output@@V?$format_validation_base@DV?$stream_output_adapter@D@__crt_stdio_output@@@2@@__crt_stdio_output@@AAE_NXZ 10037090 f i libucrtd:output.obj
 0001:000360b0       ?state_case_dot@?$output_processor@DV?$stream_output_adapter@D@__crt_stdio_output@@V?$positional_parameter_base@DV?$stream_output_adapter@D@__crt_stdio_output@@@2@@__crt_stdio_output@@AAE_NXZ 100370b0 f i libucrtd:output.obj
 0001:000360d0       ?state_case_dot@?$output_processor@DV?$stream_output_adapter@D@__crt_stdio_output@@V?$standard_base@DV?$stream_output_adapter@D@__crt_stdio_output@@@2@@__crt_stdio_output@@AAE_NXZ 100370d0 f i libucrtd:output.obj
 0001:000360f0       ?state_case_dot@?$output_processor@DV?$string_output_adapter@D@__crt_stdio_output@@V?$format_validation_base@DV?$string_output_adapter@D@__crt_stdio_output@@@2@@__crt_stdio_output@@AAE_NXZ 100370f0 f i libucrtd:output.obj
 0001:00036110       ?state_case_dot@?$output_processor@DV?$string_output_adapter@D@__crt_stdio_output@@V?$positional_parameter_base@DV?$string_output_adapter@D@__crt_stdio_output@@@2@@__crt_stdio_output@@AAE_NXZ 10037110 f i libucrtd:output.obj
 0001:00036130       ?state_case_dot@?$output_processor@DV?$string_output_adapter@D@__crt_stdio_output@@V?$standard_base@DV?$string_output_adapter@D@__crt_stdio_output@@@2@@__crt_stdio_output@@AAE_NXZ 10037130 f i libucrtd:output.obj
 0001:00036150       ?state_case_dot@?$output_processor@_WV?$stream_output_adapter@_W@__crt_stdio_output@@V?$format_validation_base@_WV?$stream_output_adapter@_W@__crt_stdio_output@@@2@@__crt_stdio_output@@AAE_NXZ 10037150 f i libucrtd:output.obj
 0001:00036170       ?state_case_dot@?$output_processor@_WV?$stream_output_adapter@_W@__crt_stdio_output@@V?$positional_parameter_base@_WV?$stream_output_adapter@_W@__crt_stdio_output@@@2@@__crt_stdio_output@@AAE_NXZ 10037170 f i libucrtd:output.obj
 0001:00036190       ?state_case_dot@?$output_processor@_WV?$stream_output_adapter@_W@__crt_stdio_output@@V?$standard_base@_WV?$stream_output_adapter@_W@__crt_stdio_output@@@2@@__crt_stdio_output@@AAE_NXZ 10037190 f i libucrtd:output.obj
 0001:000361b0       ?state_case_dot@?$output_processor@_WV?$string_output_adapter@_W@__crt_stdio_output@@V?$format_validation_base@_WV?$string_output_adapter@_W@__crt_stdio_output@@@2@@__crt_stdio_output@@AAE_NXZ 100371b0 f i libucrtd:output.obj
 0001:000361d0       ?state_case_dot@?$output_processor@_WV?$string_output_adapter@_W@__crt_stdio_output@@V?$positional_parameter_base@_WV?$string_output_adapter@_W@__crt_stdio_output@@@2@@__crt_stdio_output@@AAE_NXZ 100371d0 f i libucrtd:output.obj
 0001:000361f0       ?state_case_dot@?$output_processor@_WV?$string_output_adapter@_W@__crt_stdio_output@@V?$standard_base@_WV?$string_output_adapter@_W@__crt_stdio_output@@@2@@__crt_stdio_output@@AAE_NXZ 100371f0 f i libucrtd:output.obj
 0001:00036210       ?state_case_flag@?$output_processor@DV?$stream_output_adapter@D@__crt_stdio_output@@V?$format_validation_base@DV?$stream_output_adapter@D@__crt_stdio_output@@@2@@__crt_stdio_output@@AAE_NXZ 10037210 f i libucrtd:output.obj
 0001:000362c0       ?state_case_flag@?$output_processor@DV?$stream_output_adapter@D@__crt_stdio_output@@V?$positional_parameter_base@DV?$stream_output_adapter@D@__crt_stdio_output@@@2@@__crt_stdio_output@@AAE_NXZ 100372c0 f i libucrtd:output.obj
 0001:00036370       ?state_case_flag@?$output_processor@DV?$stream_output_adapter@D@__crt_stdio_output@@V?$standard_base@DV?$stream_output_adapter@D@__crt_stdio_output@@@2@@__crt_stdio_output@@AAE_NXZ 10037370 f i libucrtd:output.obj
 0001:00036420       ?state_case_flag@?$output_processor@DV?$string_output_adapter@D@__crt_stdio_output@@V?$format_validation_base@DV?$string_output_adapter@D@__crt_stdio_output@@@2@@__crt_stdio_output@@AAE_NXZ 10037420 f i libucrtd:output.obj
 0001:000364d0       ?state_case_flag@?$output_processor@DV?$string_output_adapter@D@__crt_stdio_output@@V?$positional_parameter_base@DV?$string_output_adapter@D@__crt_stdio_output@@@2@@__crt_stdio_output@@AAE_NXZ 100374d0 f i libucrtd:output.obj
 0001:00036580       ?state_case_flag@?$output_processor@DV?$string_output_adapter@D@__crt_stdio_output@@V?$standard_base@DV?$string_output_adapter@D@__crt_stdio_output@@@2@@__crt_stdio_output@@AAE_NXZ 10037580 f i libucrtd:output.obj
 0001:00036630       ?state_case_flag@?$output_processor@_WV?$stream_output_adapter@_W@__crt_stdio_output@@V?$format_validation_base@_WV?$stream_output_adapter@_W@__crt_stdio_output@@@2@@__crt_stdio_output@@AAE_NXZ 10037630 f i libucrtd:output.obj
 0001:000366e0       ?state_case_flag@?$output_processor@_WV?$stream_output_adapter@_W@__crt_stdio_output@@V?$positional_parameter_base@_WV?$stream_output_adapter@_W@__crt_stdio_output@@@2@@__crt_stdio_output@@AAE_NXZ 100376e0 f i libucrtd:output.obj
 0001:00036790       ?state_case_flag@?$output_processor@_WV?$stream_output_adapter@_W@__crt_stdio_output@@V?$standard_base@_WV?$stream_output_adapter@_W@__crt_stdio_output@@@2@@__crt_stdio_output@@AAE_NXZ 10037790 f i libucrtd:output.obj
 0001:00036840       ?state_case_flag@?$output_processor@_WV?$string_output_adapter@_W@__crt_stdio_output@@V?$format_validation_base@_WV?$string_output_adapter@_W@__crt_stdio_output@@@2@@__crt_stdio_output@@AAE_NXZ 10037840 f i libucrtd:output.obj
 0001:000368f0       ?state_case_flag@?$output_processor@_WV?$string_output_adapter@_W@__crt_stdio_output@@V?$positional_parameter_base@_WV?$string_output_adapter@_W@__crt_stdio_output@@@2@@__crt_stdio_output@@AAE_NXZ 100378f0 f i libucrtd:output.obj
 0001:000369a0       ?state_case_flag@?$output_processor@_WV?$string_output_adapter@_W@__crt_stdio_output@@V?$standard_base@_WV?$string_output_adapter@_W@__crt_stdio_output@@@2@@__crt_stdio_output@@AAE_NXZ 100379a0 f i libucrtd:output.obj
 0001:00036a50       ?state_case_normal@?$output_processor@DV?$stream_output_adapter@D@__crt_stdio_output@@V?$format_validation_base@DV?$stream_output_adapter@D@__crt_stdio_output@@@2@@__crt_stdio_output@@AAE_NXZ 10037a50 f i libucrtd:output.obj
 0001:00036b10       ?state_case_normal@?$output_processor@DV?$stream_output_adapter@D@__crt_stdio_output@@V?$positional_parameter_base@DV?$stream_output_adapter@D@__crt_stdio_output@@@2@@__crt_stdio_output@@AAE_NXZ 10037b10 f i libucrtd:output.obj
 0001:00036bd0       ?state_case_normal@?$output_processor@DV?$stream_output_adapter@D@__crt_stdio_output@@V?$standard_base@DV?$stream_output_adapter@D@__crt_stdio_output@@@2@@__crt_stdio_output@@AAE_NXZ 10037bd0 f i libucrtd:output.obj
 0001:00036c90       ?state_case_normal@?$output_processor@DV?$string_output_adapter@D@__crt_stdio_output@@V?$format_validation_base@DV?$string_output_adapter@D@__crt_stdio_output@@@2@@__crt_stdio_output@@AAE_NXZ 10037c90 f i libucrtd:output.obj
 0001:00036d50       ?state_case_normal@?$output_processor@DV?$string_output_adapter@D@__crt_stdio_output@@V?$positional_parameter_base@DV?$string_output_adapter@D@__crt_stdio_output@@@2@@__crt_stdio_output@@AAE_NXZ 10037d50 f i libucrtd:output.obj
 0001:00036e10       ?state_case_normal@?$output_processor@DV?$string_output_adapter@D@__crt_stdio_output@@V?$standard_base@DV?$string_output_adapter@D@__crt_stdio_output@@@2@@__crt_stdio_output@@AAE_NXZ 10037e10 f i libucrtd:output.obj
 0001:00036ed0       ?state_case_normal@?$output_processor@_WV?$stream_output_adapter@_W@__crt_stdio_output@@V?$format_validation_base@_WV?$stream_output_adapter@_W@__crt_stdio_output@@@2@@__crt_stdio_output@@AAE_NXZ 10037ed0 f i libucrtd:output.obj
 0001:00036f90       ?state_case_normal@?$output_processor@_WV?$stream_output_adapter@_W@__crt_stdio_output@@V?$positional_parameter_base@_WV?$stream_output_adapter@_W@__crt_stdio_output@@@2@@__crt_stdio_output@@AAE_NXZ 10037f90 f i libucrtd:output.obj
 0001:00037050       ?state_case_normal@?$output_processor@_WV?$stream_output_adapter@_W@__crt_stdio_output@@V?$standard_base@_WV?$stream_output_adapter@_W@__crt_stdio_output@@@2@@__crt_stdio_output@@AAE_NXZ 10038050 f i libucrtd:output.obj
 0001:00037110       ?state_case_normal@?$output_processor@_WV?$string_output_adapter@_W@__crt_stdio_output@@V?$format_validation_base@_WV?$string_output_adapter@_W@__crt_stdio_output@@@2@@__crt_stdio_output@@AAE_NXZ 10038110 f i libucrtd:output.obj
 0001:000371d0       ?state_case_normal@?$output_processor@_WV?$string_output_adapter@_W@__crt_stdio_output@@V?$positional_parameter_base@_WV?$string_output_adapter@_W@__crt_stdio_output@@@2@@__crt_stdio_output@@AAE_NXZ 100381d0 f i libucrtd:output.obj
 0001:00037290       ?state_case_normal@?$output_processor@_WV?$string_output_adapter@_W@__crt_stdio_output@@V?$standard_base@_WV?$string_output_adapter@_W@__crt_stdio_output@@@2@@__crt_stdio_output@@AAE_NXZ 10038290 f i libucrtd:output.obj
 0001:00037350       ?state_case_normal_common@?$output_processor@DV?$stream_output_adapter@D@__crt_stdio_output@@V?$format_validation_base@DV?$stream_output_adapter@D@__crt_stdio_output@@@2@@__crt_stdio_output@@AAE_NXZ 10038350 f i libucrtd:output.obj
 0001:000373a0       ?state_case_normal_common@?$output_processor@DV?$stream_output_adapter@D@__crt_stdio_output@@V?$positional_parameter_base@DV?$stream_output_adapter@D@__crt_stdio_output@@@2@@__crt_stdio_output@@AAE_NXZ 100383a0 f i libucrtd:output.obj
 0001:000373f0       ?state_case_normal_common@?$output_processor@DV?$stream_output_adapter@D@__crt_stdio_output@@V?$standard_base@DV?$stream_output_adapter@D@__crt_stdio_output@@@2@@__crt_stdio_output@@AAE_NXZ 100383f0 f i libucrtd:output.obj
 0001:00037440       ?state_case_normal_common@?$output_processor@DV?$string_output_adapter@D@__crt_stdio_output@@V?$format_validation_base@DV?$string_output_adapter@D@__crt_stdio_output@@@2@@__crt_stdio_output@@AAE_NXZ 10038440 f i libucrtd:output.obj
 0001:00037490       ?state_case_normal_common@?$output_processor@DV?$string_output_adapter@D@__crt_stdio_output@@V?$positional_parameter_base@DV?$string_output_adapter@D@__crt_stdio_output@@@2@@__crt_stdio_output@@AAE_NXZ 10038490 f i libucrtd:output.obj
 0001:000374e0       ?state_case_normal_common@?$output_processor@DV?$string_output_adapter@D@__crt_stdio_output@@V?$standard_base@DV?$string_output_adapter@D@__crt_stdio_output@@@2@@__crt_stdio_output@@AAE_NXZ 100384e0 f i libucrtd:output.obj
 0001:00037530       ?state_case_normal_common@?$output_processor@_WV?$stream_output_adapter@_W@__crt_stdio_output@@V?$format_validation_base@_WV?$stream_output_adapter@_W@__crt_stdio_output@@@2@@__crt_stdio_output@@AAE_NXZ 10038530 f i libucrtd:output.obj
 0001:00037580       ?state_case_normal_common@?$output_processor@_WV?$stream_output_adapter@_W@__crt_stdio_output@@V?$positional_parameter_base@_WV?$stream_output_adapter@_W@__crt_stdio_output@@@2@@__crt_stdio_output@@AAE_NXZ 10038580 f i libucrtd:output.obj
 0001:000375d0       ?state_case_normal_common@?$output_processor@_WV?$stream_output_adapter@_W@__crt_stdio_output@@V?$standard_base@_WV?$stream_output_adapter@_W@__crt_stdio_output@@@2@@__crt_stdio_output@@AAE_NXZ 100385d0 f i libucrtd:output.obj
 0001:00037620       ?state_case_normal_common@?$output_processor@_WV?$string_output_adapter@_W@__crt_stdio_output@@V?$format_validation_base@_WV?$string_output_adapter@_W@__crt_stdio_output@@@2@@__crt_stdio_output@@AAE_NXZ 10038620 f i libucrtd:output.obj
 0001:00037670       ?state_case_normal_common@?$output_processor@_WV?$string_output_adapter@_W@__crt_stdio_output@@V?$positional_parameter_base@_WV?$string_output_adapter@_W@__crt_stdio_output@@@2@@__crt_stdio_output@@AAE_NXZ 10038670 f i libucrtd:output.obj
 0001:000376c0       ?state_case_normal_common@?$output_processor@_WV?$string_output_adapter@_W@__crt_stdio_output@@V?$standard_base@_WV?$string_output_adapter@_W@__crt_stdio_output@@@2@@__crt_stdio_output@@AAE_NXZ 100386c0 f i libucrtd:output.obj
 0001:00037710       ?state_case_normal_tchar@?$output_processor@DV?$stream_output_adapter@D@__crt_stdio_output@@V?$format_validation_base@DV?$stream_output_adapter@D@__crt_stdio_output@@@2@@__crt_stdio_output@@AAE_ND@Z 10038710 f i libucrtd:output.obj
 0001:00037840       ?state_case_normal_tchar@?$output_processor@DV?$stream_output_adapter@D@__crt_stdio_output@@V?$positional_parameter_base@DV?$stream_output_adapter@D@__crt_stdio_output@@@2@@__crt_stdio_output@@AAE_ND@Z 10038840 f i libucrtd:output.obj
 0001:00037970       ?state_case_normal_tchar@?$output_processor@DV?$stream_output_adapter@D@__crt_stdio_output@@V?$standard_base@DV?$stream_output_adapter@D@__crt_stdio_output@@@2@@__crt_stdio_output@@AAE_ND@Z 10038970 f i libucrtd:output.obj
 0001:00037aa0       ?state_case_normal_tchar@?$output_processor@DV?$string_output_adapter@D@__crt_stdio_output@@V?$format_validation_base@DV?$string_output_adapter@D@__crt_stdio_output@@@2@@__crt_stdio_output@@AAE_ND@Z 10038aa0 f i libucrtd:output.obj
 0001:00037bd0       ?state_case_normal_tchar@?$output_processor@DV?$string_output_adapter@D@__crt_stdio_output@@V?$positional_parameter_base@DV?$string_output_adapter@D@__crt_stdio_output@@@2@@__crt_stdio_output@@AAE_ND@Z 10038bd0 f i libucrtd:output.obj
 0001:00037d00       ?state_case_normal_tchar@?$output_processor@DV?$string_output_adapter@D@__crt_stdio_output@@V?$standard_base@DV?$string_output_adapter@D@__crt_stdio_output@@@2@@__crt_stdio_output@@AAE_ND@Z 10038d00 f i libucrtd:output.obj
 0001:00037e30       ?state_case_normal_tchar@?$output_processor@_WV?$stream_output_adapter@_W@__crt_stdio_output@@V?$format_validation_base@_WV?$stream_output_adapter@_W@__crt_stdio_output@@@2@@__crt_stdio_output@@AAE_N_W@Z 10038e30 f i libucrtd:output.obj
 0001:00037e50       ?state_case_normal_tchar@?$output_processor@_WV?$stream_output_adapter@_W@__crt_stdio_output@@V?$positional_parameter_base@_WV?$stream_output_adapter@_W@__crt_stdio_output@@@2@@__crt_stdio_output@@AAE_N_W@Z 10038e50 f i libucrtd:output.obj
 0001:00037e70       ?state_case_normal_tchar@?$output_processor@_WV?$stream_output_adapter@_W@__crt_stdio_output@@V?$standard_base@_WV?$stream_output_adapter@_W@__crt_stdio_output@@@2@@__crt_stdio_output@@AAE_N_W@Z 10038e70 f i libucrtd:output.obj
 0001:00037e90       ?state_case_normal_tchar@?$output_processor@_WV?$string_output_adapter@_W@__crt_stdio_output@@V?$format_validation_base@_WV?$string_output_adapter@_W@__crt_stdio_output@@@2@@__crt_stdio_output@@AAE_N_W@Z 10038e90 f i libucrtd:output.obj
 0001:00037eb0       ?state_case_normal_tchar@?$output_processor@_WV?$string_output_adapter@_W@__crt_stdio_output@@V?$positional_parameter_base@_WV?$string_output_adapter@_W@__crt_stdio_output@@@2@@__crt_stdio_output@@AAE_N_W@Z 10038eb0 f i libucrtd:output.obj
 0001:00037ed0       ?state_case_normal_tchar@?$output_processor@_WV?$string_output_adapter@_W@__crt_stdio_output@@V?$standard_base@_WV?$string_output_adapter@_W@__crt_stdio_output@@@2@@__crt_stdio_output@@AAE_N_W@Z 10038ed0 f i libucrtd:output.obj
 0001:00037ef0       ?state_case_percent@?$output_processor@DV?$stream_output_adapter@D@__crt_stdio_output@@V?$format_validation_base@DV?$stream_output_adapter@D@__crt_stdio_output@@@2@@__crt_stdio_output@@AAE_NXZ 10038ef0 f i libucrtd:output.obj
 0001:00037f40       ?state_case_percent@?$output_processor@DV?$stream_output_adapter@D@__crt_stdio_output@@V?$positional_parameter_base@DV?$stream_output_adapter@D@__crt_stdio_output@@@2@@__crt_stdio_output@@AAE_NXZ 10038f40 f i libucrtd:output.obj
 0001:00037f90       ?state_case_percent@?$output_processor@DV?$stream_output_adapter@D@__crt_stdio_output@@V?$standard_base@DV?$stream_output_adapter@D@__crt_stdio_output@@@2@@__crt_stdio_output@@AAE_NXZ 10038f90 f i libucrtd:output.obj
 0001:00037fe0       ?state_case_percent@?$output_processor@DV?$string_output_adapter@D@__crt_stdio_output@@V?$format_validation_base@DV?$string_output_adapter@D@__crt_stdio_output@@@2@@__crt_stdio_output@@AAE_NXZ 10038fe0 f i libucrtd:output.obj
 0001:00038030       ?state_case_percent@?$output_processor@DV?$string_output_adapter@D@__crt_stdio_output@@V?$positional_parameter_base@DV?$string_output_adapter@D@__crt_stdio_output@@@2@@__crt_stdio_output@@AAE_NXZ 10039030 f i libucrtd:output.obj
 0001:00038080       ?state_case_percent@?$output_processor@DV?$string_output_adapter@D@__crt_stdio_output@@V?$standard_base@DV?$string_output_adapter@D@__crt_stdio_output@@@2@@__crt_stdio_output@@AAE_NXZ 10039080 f i libucrtd:output.obj
 0001:000380d0       ?state_case_percent@?$output_processor@_WV?$stream_output_adapter@_W@__crt_stdio_output@@V?$format_validation_base@_WV?$stream_output_adapter@_W@__crt_stdio_output@@@2@@__crt_stdio_output@@AAE_NXZ 100390d0 f i libucrtd:output.obj
 0001:00038120       ?state_case_percent@?$output_processor@_WV?$stream_output_adapter@_W@__crt_stdio_output@@V?$positional_parameter_base@_WV?$stream_output_adapter@_W@__crt_stdio_output@@@2@@__crt_stdio_output@@AAE_NXZ 10039120 f i libucrtd:output.obj
 0001:00038170       ?state_case_percent@?$output_processor@_WV?$stream_output_adapter@_W@__crt_stdio_output@@V?$standard_base@_WV?$stream_output_adapter@_W@__crt_stdio_output@@@2@@__crt_stdio_output@@AAE_NXZ 10039170 f i libucrtd:output.obj
 0001:000381c0       ?state_case_percent@?$output_processor@_WV?$string_output_adapter@_W@__crt_stdio_output@@V?$format_validation_base@_WV?$string_output_adapter@_W@__crt_stdio_output@@@2@@__crt_stdio_output@@AAE_NXZ 100391c0 f i libucrtd:output.obj
 0001:00038210       ?state_case_percent@?$output_processor@_WV?$string_output_adapter@_W@__crt_stdio_output@@V?$positional_parameter_base@_WV?$string_output_adapter@_W@__crt_stdio_output@@@2@@__crt_stdio_output@@AAE_NXZ 10039210 f i libucrtd:output.obj
 0001:00038260       ?state_case_percent@?$output_processor@_WV?$string_output_adapter@_W@__crt_stdio_output@@V?$standard_base@_WV?$string_output_adapter@_W@__crt_stdio_output@@@2@@__crt_stdio_output@@AAE_NXZ 10039260 f i libucrtd:output.obj
 0001:000382b0       ?state_case_precision@?$output_processor@DV?$stream_output_adapter@D@__crt_stdio_output@@V?$format_validation_base@DV?$stream_output_adapter@D@__crt_stdio_output@@@2@@__crt_stdio_output@@AAE_NXZ 100392b0 f i libucrtd:output.obj
 0001:00038320       ?state_case_precision@?$output_processor@DV?$stream_output_adapter@D@__crt_stdio_output@@V?$positional_parameter_base@DV?$stream_output_adapter@D@__crt_stdio_output@@@2@@__crt_stdio_output@@AAE_NXZ 10039320 f i libucrtd:output.obj
 0001:00038390       ?state_case_precision@?$output_processor@DV?$stream_output_adapter@D@__crt_stdio_output@@V?$standard_base@DV?$stream_output_adapter@D@__crt_stdio_output@@@2@@__crt_stdio_output@@AAE_NXZ 10039390 f i libucrtd:output.obj
 0001:00038400       ?state_case_precision@?$output_processor@DV?$string_output_adapter@D@__crt_stdio_output@@V?$format_validation_base@DV?$string_output_adapter@D@__crt_stdio_output@@@2@@__crt_stdio_output@@AAE_NXZ 10039400 f i libucrtd:output.obj
 0001:00038470       ?state_case_precision@?$output_processor@DV?$string_output_adapter@D@__crt_stdio_output@@V?$positional_parameter_base@DV?$string_output_adapter@D@__crt_stdio_output@@@2@@__crt_stdio_output@@AAE_NXZ 10039470 f i libucrtd:output.obj
 0001:000384e0       ?state_case_precision@?$output_processor@DV?$string_output_adapter@D@__crt_stdio_output@@V?$standard_base@DV?$string_output_adapter@D@__crt_stdio_output@@@2@@__crt_stdio_output@@AAE_NXZ 100394e0 f i libucrtd:output.obj
 0001:00038550       ?state_case_precision@?$output_processor@_WV?$stream_output_adapter@_W@__crt_stdio_output@@V?$format_validation_base@_WV?$stream_output_adapter@_W@__crt_stdio_output@@@2@@__crt_stdio_output@@AAE_NXZ 10039550 f i libucrtd:output.obj
 0001:000385c0       ?state_case_precision@?$output_processor@_WV?$stream_output_adapter@_W@__crt_stdio_output@@V?$positional_parameter_base@_WV?$stream_output_adapter@_W@__crt_stdio_output@@@2@@__crt_stdio_output@@AAE_NXZ 100395c0 f i libucrtd:output.obj
 0001:00038630       ?state_case_precision@?$output_processor@_WV?$stream_output_adapter@_W@__crt_stdio_output@@V?$standard_base@_WV?$stream_output_adapter@_W@__crt_stdio_output@@@2@@__crt_stdio_output@@AAE_NXZ 10039630 f i libucrtd:output.obj
 0001:000386a0       ?state_case_precision@?$output_processor@_WV?$string_output_adapter@_W@__crt_stdio_output@@V?$format_validation_base@_WV?$string_output_adapter@_W@__crt_stdio_output@@@2@@__crt_stdio_output@@AAE_NXZ 100396a0 f i libucrtd:output.obj
 0001:00038710       ?state_case_precision@?$output_processor@_WV?$string_output_adapter@_W@__crt_stdio_output@@V?$positional_parameter_base@_WV?$string_output_adapter@_W@__crt_stdio_output@@@2@@__crt_stdio_output@@AAE_NXZ 10039710 f i libucrtd:output.obj
 0001:00038780       ?state_case_precision@?$output_processor@_WV?$string_output_adapter@_W@__crt_stdio_output@@V?$standard_base@_WV?$string_output_adapter@_W@__crt_stdio_output@@@2@@__crt_stdio_output@@AAE_NXZ 10039780 f i libucrtd:output.obj
 0001:000387f0       ?state_case_size@?$output_processor@DV?$stream_output_adapter@D@__crt_stdio_output@@V?$format_validation_base@DV?$stream_output_adapter@D@__crt_stdio_output@@@2@@__crt_stdio_output@@AAE_NXZ 100397f0 f i libucrtd:output.obj
 0001:00038be0       ?state_case_size@?$output_processor@DV?$stream_output_adapter@D@__crt_stdio_output@@V?$positional_parameter_base@DV?$stream_output_adapter@D@__crt_stdio_output@@@2@@__crt_stdio_output@@AAE_NXZ 10039be0 f i libucrtd:output.obj
 0001:00038fd0       ?state_case_size@?$output_processor@DV?$stream_output_adapter@D@__crt_stdio_output@@V?$standard_base@DV?$stream_output_adapter@D@__crt_stdio_output@@@2@@__crt_stdio_output@@AAE_NXZ 10039fd0 f i libucrtd:output.obj
 0001:000393c0       ?state_case_size@?$output_processor@DV?$string_output_adapter@D@__crt_stdio_output@@V?$format_validation_base@DV?$string_output_adapter@D@__crt_stdio_output@@@2@@__crt_stdio_output@@AAE_NXZ 1003a3c0 f i libucrtd:output.obj
 0001:000397b0       ?state_case_size@?$output_processor@DV?$string_output_adapter@D@__crt_stdio_output@@V?$positional_parameter_base@DV?$string_output_adapter@D@__crt_stdio_output@@@2@@__crt_stdio_output@@AAE_NXZ 1003a7b0 f i libucrtd:output.obj
 0001:00039ba0       ?state_case_size@?$output_processor@DV?$string_output_adapter@D@__crt_stdio_output@@V?$standard_base@DV?$string_output_adapter@D@__crt_stdio_output@@@2@@__crt_stdio_output@@AAE_NXZ 1003aba0 f i libucrtd:output.obj
 0001:00039f90       ?state_case_size@?$output_processor@_WV?$stream_output_adapter@_W@__crt_stdio_output@@V?$format_validation_base@_WV?$stream_output_adapter@_W@__crt_stdio_output@@@2@@__crt_stdio_output@@AAE_NXZ 1003af90 f i libucrtd:output.obj
 0001:0003a380       ?state_case_size@?$output_processor@_WV?$stream_output_adapter@_W@__crt_stdio_output@@V?$positional_parameter_base@_WV?$stream_output_adapter@_W@__crt_stdio_output@@@2@@__crt_stdio_output@@AAE_NXZ 1003b380 f i libucrtd:output.obj
 0001:0003a770       ?state_case_size@?$output_processor@_WV?$stream_output_adapter@_W@__crt_stdio_output@@V?$standard_base@_WV?$stream_output_adapter@_W@__crt_stdio_output@@@2@@__crt_stdio_output@@AAE_NXZ 1003b770 f i libucrtd:output.obj
 0001:0003ab60       ?state_case_size@?$output_processor@_WV?$string_output_adapter@_W@__crt_stdio_output@@V?$format_validation_base@_WV?$string_output_adapter@_W@__crt_stdio_output@@@2@@__crt_stdio_output@@AAE_NXZ 1003bb60 f i libucrtd:output.obj
 0001:0003af50       ?state_case_size@?$output_processor@_WV?$string_output_adapter@_W@__crt_stdio_output@@V?$positional_parameter_base@_WV?$string_output_adapter@_W@__crt_stdio_output@@@2@@__crt_stdio_output@@AAE_NXZ 1003bf50 f i libucrtd:output.obj
 0001:0003b340       ?state_case_size@?$output_processor@_WV?$string_output_adapter@_W@__crt_stdio_output@@V?$standard_base@_WV?$string_output_adapter@_W@__crt_stdio_output@@@2@@__crt_stdio_output@@AAE_NXZ 1003c340 f i libucrtd:output.obj
 0001:0003b730       ?state_case_type@?$output_processor@DV?$stream_output_adapter@D@__crt_stdio_output@@V?$format_validation_base@DV?$stream_output_adapter@D@__crt_stdio_output@@@2@@__crt_stdio_output@@AAE_NXZ 1003c730 f i libucrtd:output.obj
 0001:0003bb00       ?state_case_type@?$output_processor@DV?$stream_output_adapter@D@__crt_stdio_output@@V?$positional_parameter_base@DV?$stream_output_adapter@D@__crt_stdio_output@@@2@@__crt_stdio_output@@AAE_NXZ 1003cb00 f i libucrtd:output.obj
 0001:0003bed0       ?state_case_type@?$output_processor@DV?$stream_output_adapter@D@__crt_stdio_output@@V?$standard_base@DV?$stream_output_adapter@D@__crt_stdio_output@@@2@@__crt_stdio_output@@AAE_NXZ 1003ced0 f i libucrtd:output.obj
 0001:0003c2a0       ?state_case_type@?$output_processor@DV?$string_output_adapter@D@__crt_stdio_output@@V?$format_validation_base@DV?$string_output_adapter@D@__crt_stdio_output@@@2@@__crt_stdio_output@@AAE_NXZ 1003d2a0 f i libucrtd:output.obj
 0001:0003c670       ?state_case_type@?$output_processor@DV?$string_output_adapter@D@__crt_stdio_output@@V?$positional_parameter_base@DV?$string_output_adapter@D@__crt_stdio_output@@@2@@__crt_stdio_output@@AAE_NXZ 1003d670 f i libucrtd:output.obj
 0001:0003ca40       ?state_case_type@?$output_processor@DV?$string_output_adapter@D@__crt_stdio_output@@V?$standard_base@DV?$string_output_adapter@D@__crt_stdio_output@@@2@@__crt_stdio_output@@AAE_NXZ 1003da40 f i libucrtd:output.obj
 0001:0003ce10       ?state_case_type@?$output_processor@_WV?$stream_output_adapter@_W@__crt_stdio_output@@V?$format_validation_base@_WV?$stream_output_adapter@_W@__crt_stdio_output@@@2@@__crt_stdio_output@@AAE_NXZ 1003de10 f i libucrtd:output.obj
 0001:0003d210       ?state_case_type@?$output_processor@_WV?$stream_output_adapter@_W@__crt_stdio_output@@V?$positional_parameter_base@_WV?$stream_output_adapter@_W@__crt_stdio_output@@@2@@__crt_stdio_output@@AAE_NXZ 1003e210 f i libucrtd:output.obj
 0001:0003d610       ?state_case_type@?$output_processor@_WV?$stream_output_adapter@_W@__crt_stdio_output@@V?$standard_base@_WV?$stream_output_adapter@_W@__crt_stdio_output@@@2@@__crt_stdio_output@@AAE_NXZ 1003e610 f i libucrtd:output.obj
 0001:0003da10       ?state_case_type@?$output_processor@_WV?$string_output_adapter@_W@__crt_stdio_output@@V?$format_validation_base@_WV?$string_output_adapter@_W@__crt_stdio_output@@@2@@__crt_stdio_output@@AAE_NXZ 1003ea10 f i libucrtd:output.obj
 0001:0003de10       ?state_case_type@?$output_processor@_WV?$string_output_adapter@_W@__crt_stdio_output@@V?$positional_parameter_base@_WV?$string_output_adapter@_W@__crt_stdio_output@@@2@@__crt_stdio_output@@AAE_NXZ 1003ee10 f i libucrtd:output.obj
 0001:0003e210       ?state_case_type@?$output_processor@_WV?$string_output_adapter@_W@__crt_stdio_output@@V?$standard_base@_WV?$string_output_adapter@_W@__crt_stdio_output@@@2@@__crt_stdio_output@@AAE_NXZ 1003f210 f i libucrtd:output.obj
 0001:0003e610       ?state_case_width@?$output_processor@DV?$stream_output_adapter@D@__crt_stdio_output@@V?$format_validation_base@DV?$stream_output_adapter@D@__crt_stdio_output@@@2@@__crt_stdio_output@@AAE_NXZ 1003f610 f i libucrtd:output.obj
 0001:0003e690       ?state_case_width@?$output_processor@DV?$stream_output_adapter@D@__crt_stdio_output@@V?$positional_parameter_base@DV?$stream_output_adapter@D@__crt_stdio_output@@@2@@__crt_stdio_output@@AAE_NXZ 1003f690 f i libucrtd:output.obj
 0001:0003e710       ?state_case_width@?$output_processor@DV?$stream_output_adapter@D@__crt_stdio_output@@V?$standard_base@DV?$stream_output_adapter@D@__crt_stdio_output@@@2@@__crt_stdio_output@@AAE_NXZ 1003f710 f i libucrtd:output.obj
 0001:0003e790       ?state_case_width@?$output_processor@DV?$string_output_adapter@D@__crt_stdio_output@@V?$format_validation_base@DV?$string_output_adapter@D@__crt_stdio_output@@@2@@__crt_stdio_output@@AAE_NXZ 1003f790 f i libucrtd:output.obj
 0001:0003e810       ?state_case_width@?$output_processor@DV?$string_output_adapter@D@__crt_stdio_output@@V?$positional_parameter_base@DV?$string_output_adapter@D@__crt_stdio_output@@@2@@__crt_stdio_output@@AAE_NXZ 1003f810 f i libucrtd:output.obj
 0001:0003e890       ?state_case_width@?$output_processor@DV?$string_output_adapter@D@__crt_stdio_output@@V?$standard_base@DV?$string_output_adapter@D@__crt_stdio_output@@@2@@__crt_stdio_output@@AAE_NXZ 1003f890 f i libucrtd:output.obj
 0001:0003e910       ?state_case_width@?$output_processor@_WV?$stream_output_adapter@_W@__crt_stdio_output@@V?$format_validation_base@_WV?$stream_output_adapter@_W@__crt_stdio_output@@@2@@__crt_stdio_output@@AAE_NXZ 1003f910 f i libucrtd:output.obj
 0001:0003e990       ?state_case_width@?$output_processor@_WV?$stream_output_adapter@_W@__crt_stdio_output@@V?$positional_parameter_base@_WV?$stream_output_adapter@_W@__crt_stdio_output@@@2@@__crt_stdio_output@@AAE_NXZ 1003f990 f i libucrtd:output.obj
 0001:0003ea10       ?state_case_width@?$output_processor@_WV?$stream_output_adapter@_W@__crt_stdio_output@@V?$standard_base@_WV?$stream_output_adapter@_W@__crt_stdio_output@@@2@@__crt_stdio_output@@AAE_NXZ 1003fa10 f i libucrtd:output.obj
 0001:0003ea90       ?state_case_width@?$output_processor@_WV?$string_output_adapter@_W@__crt_stdio_output@@V?$format_validation_base@_WV?$string_output_adapter@_W@__crt_stdio_output@@@2@@__crt_stdio_output@@AAE_NXZ 1003fa90 f i libucrtd:output.obj
 0001:0003eb10       ?state_case_width@?$output_processor@_WV?$string_output_adapter@_W@__crt_stdio_output@@V?$positional_parameter_base@_WV?$string_output_adapter@_W@__crt_stdio_output@@@2@@__crt_stdio_output@@AAE_NXZ 1003fb10 f i libucrtd:output.obj
 0001:0003eb90       ?state_case_width@?$output_processor@_WV?$string_output_adapter@_W@__crt_stdio_output@@V?$standard_base@_WV?$string_output_adapter@_W@__crt_stdio_output@@@2@@__crt_stdio_output@@AAE_NXZ 1003fb90 f i libucrtd:output.obj
 0001:0003ec10       ?state_count@?$format_validation_base@DV?$stream_output_adapter@D@__crt_stdio_output@@@__crt_stdio_output@@KAIXZ 1003fc10 f i libucrtd:output.obj
 0001:0003ec20       ?state_count@?$format_validation_base@DV?$string_output_adapter@D@__crt_stdio_output@@@__crt_stdio_output@@KAIXZ 1003fc20 f i libucrtd:output.obj
 0001:0003ec30       ?state_count@?$format_validation_base@_WV?$stream_output_adapter@_W@__crt_stdio_output@@@__crt_stdio_output@@KAIXZ 1003fc30 f i libucrtd:output.obj
 0001:0003ec40       ?state_count@?$format_validation_base@_WV?$string_output_adapter@_W@__crt_stdio_output@@@__crt_stdio_output@@KAIXZ 1003fc40 f i libucrtd:output.obj
 0001:0003ec50       ?state_count@?$standard_base@DV?$stream_output_adapter@D@__crt_stdio_output@@@__crt_stdio_output@@KAIXZ 1003fc50 f i libucrtd:output.obj
 0001:0003ec60       ?state_count@?$standard_base@DV?$string_output_adapter@D@__crt_stdio_output@@@__crt_stdio_output@@KAIXZ 1003fc60 f i libucrtd:output.obj
 0001:0003ec70       ?state_count@?$standard_base@_WV?$stream_output_adapter@_W@__crt_stdio_output@@@__crt_stdio_output@@KAIXZ 1003fc70 f i libucrtd:output.obj
 0001:0003ec80       ?state_count@?$standard_base@_WV?$string_output_adapter@_W@__crt_stdio_output@@@__crt_stdio_output@@KAIXZ 1003fc80 f i libucrtd:output.obj
 0001:0003ec90       ?state_transition_table@?$format_validation_base@DV?$stream_output_adapter@D@__crt_stdio_output@@@__crt_stdio_output@@KAABV?$spectre_mitigated_lookup_table@Ustate_transition_pair@__crt_stdio_output@@$0IA@@2@XZ 1003fc90 f i libucrtd:output.obj
 0001:0003eca0       ?state_transition_table@?$format_validation_base@DV?$string_output_adapter@D@__crt_stdio_output@@@__crt_stdio_output@@KAABV?$spectre_mitigated_lookup_table@Ustate_transition_pair@__crt_stdio_output@@$0IA@@2@XZ 1003fca0 f i libucrtd:output.obj
 0001:0003ecb0       ?state_transition_table@?$format_validation_base@_WV?$stream_output_adapter@_W@__crt_stdio_output@@@__crt_stdio_output@@KAABV?$spectre_mitigated_lookup_table@Ustate_transition_pair@__crt_stdio_output@@$0IA@@2@XZ 1003fcb0 f i libucrtd:output.obj
 0001:0003ecc0       ?state_transition_table@?$format_validation_base@_WV?$string_output_adapter@_W@__crt_stdio_output@@@__crt_stdio_output@@KAABV?$spectre_mitigated_lookup_table@Ustate_transition_pair@__crt_stdio_output@@$0IA@@2@XZ 1003fcc0 f i libucrtd:output.obj
 0001:0003ecd0       ?state_transition_table@?$standard_base@DV?$stream_output_adapter@D@__crt_stdio_output@@@__crt_stdio_output@@KAABV?$spectre_mitigated_lookup_table@Ustate_transition_pair@__crt_stdio_output@@$0IA@@2@XZ 1003fcd0 f i libucrtd:output.obj
 0001:0003ece0       ?state_transition_table@?$standard_base@DV?$string_output_adapter@D@__crt_stdio_output@@@__crt_stdio_output@@KAABV?$spectre_mitigated_lookup_table@Ustate_transition_pair@__crt_stdio_output@@$0IA@@2@XZ 1003fce0 f i libucrtd:output.obj
 0001:0003ecf0       ?state_transition_table@?$standard_base@_WV?$stream_output_adapter@_W@__crt_stdio_output@@@__crt_stdio_output@@KAABV?$spectre_mitigated_lookup_table@Ustate_transition_pair@__crt_stdio_output@@$0IA@@2@XZ 1003fcf0 f i libucrtd:output.obj
 0001:0003ed00       ?state_transition_table@?$standard_base@_WV?$string_output_adapter@_W@__crt_stdio_output@@@__crt_stdio_output@@KAABV?$spectre_mitigated_lookup_table@Ustate_transition_pair@__crt_stdio_output@@$0IA@@2@XZ 1003fd00 f i libucrtd:output.obj
 0001:0003ed10       ?tchar_string@?$common_data@D@__crt_stdio_output@@IAEAAPADD@Z 1003fd10 f i libucrtd:output.obj
 0001:0003ed30       ?tchar_string@?$common_data@D@__crt_stdio_output@@IAEAAPADXZ 1003fd30 f i libucrtd:output.obj
 0001:0003ed50       ?tchar_string@?$common_data@_W@__crt_stdio_output@@IAEAAPA_WXZ 1003fd50 f i libucrtd:output.obj
 0001:0003ed70       ?tchar_string@?$common_data@_W@__crt_stdio_output@@IAEAAPA_W_W@Z 1003fd70 f i libucrtd:output.obj
 0001:0003ed90       ?to_integer_size@__crt_stdio_output@@YAIW4length_modifier@1@@Z 1003fd90 f i libucrtd:output.obj
 0001:0003ee30       ?type_case_X@?$output_processor@DV?$stream_output_adapter@D@__crt_stdio_output@@V?$format_validation_base@DV?$stream_output_adapter@D@__crt_stdio_output@@@2@@__crt_stdio_output@@AAE_NXZ 1003fe30 f i libucrtd:output.obj
 0001:0003ee50       ?type_case_X@?$output_processor@DV?$stream_output_adapter@D@__crt_stdio_output@@V?$positional_parameter_base@DV?$stream_output_adapter@D@__crt_stdio_output@@@2@@__crt_stdio_output@@AAE_NXZ 1003fe50 f i libucrtd:output.obj
 0001:0003ee70       ?type_case_X@?$output_processor@DV?$stream_output_adapter@D@__crt_stdio_output@@V?$standard_base@DV?$stream_output_adapter@D@__crt_stdio_output@@@2@@__crt_stdio_output@@AAE_NXZ 1003fe70 f i libucrtd:output.obj
 0001:0003ee90       ?type_case_X@?$output_processor@DV?$string_output_adapter@D@__crt_stdio_output@@V?$format_validation_base@DV?$string_output_adapter@D@__crt_stdio_output@@@2@@__crt_stdio_output@@AAE_NXZ 1003fe90 f i libucrtd:output.obj
 0001:0003eeb0       ?type_case_X@?$output_processor@DV?$string_output_adapter@D@__crt_stdio_output@@V?$positional_parameter_base@DV?$string_output_adapter@D@__crt_stdio_output@@@2@@__crt_stdio_output@@AAE_NXZ 1003feb0 f i libucrtd:output.obj
 0001:0003eed0       ?type_case_X@?$output_processor@DV?$string_output_adapter@D@__crt_stdio_output@@V?$standard_base@DV?$string_output_adapter@D@__crt_stdio_output@@@2@@__crt_stdio_output@@AAE_NXZ 1003fed0 f i libucrtd:output.obj
 0001:0003eef0       ?type_case_X@?$output_processor@_WV?$stream_output_adapter@_W@__crt_stdio_output@@V?$format_validation_base@_WV?$stream_output_adapter@_W@__crt_stdio_output@@@2@@__crt_stdio_output@@AAE_NXZ 1003fef0 f i libucrtd:output.obj
 0001:0003ef10       ?type_case_X@?$output_processor@_WV?$stream_output_adapter@_W@__crt_stdio_output@@V?$positional_parameter_base@_WV?$stream_output_adapter@_W@__crt_stdio_output@@@2@@__crt_stdio_output@@AAE_NXZ 1003ff10 f i libucrtd:output.obj
 0001:0003ef30       ?type_case_X@?$output_processor@_WV?$stream_output_adapter@_W@__crt_stdio_output@@V?$standard_base@_WV?$stream_output_adapter@_W@__crt_stdio_output@@@2@@__crt_stdio_output@@AAE_NXZ 1003ff30 f i libucrtd:output.obj
 0001:0003ef50       ?type_case_X@?$output_processor@_WV?$string_output_adapter@_W@__crt_stdio_output@@V?$format_validation_base@_WV?$string_output_adapter@_W@__crt_stdio_output@@@2@@__crt_stdio_output@@AAE_NXZ 1003ff50 f i libucrtd:output.obj
 0001:0003ef70       ?type_case_X@?$output_processor@_WV?$string_output_adapter@_W@__crt_stdio_output@@V?$positional_parameter_base@_WV?$string_output_adapter@_W@__crt_stdio_output@@@2@@__crt_stdio_output@@AAE_NXZ 1003ff70 f i libucrtd:output.obj
 0001:0003ef90       ?type_case_X@?$output_processor@_WV?$string_output_adapter@_W@__crt_stdio_output@@V?$standard_base@_WV?$string_output_adapter@_W@__crt_stdio_output@@@2@@__crt_stdio_output@@AAE_NXZ 1003ff90 f i libucrtd:output.obj
 0001:0003efb0       ?type_case_Z@?$output_processor@DV?$stream_output_adapter@D@__crt_stdio_output@@V?$format_validation_base@DV?$stream_output_adapter@D@__crt_stdio_output@@@2@@__crt_stdio_output@@AAE_NXZ 1003ffb0 f i libucrtd:output.obj
 0001:0003f0a0       ?type_case_Z@?$output_processor@DV?$stream_output_adapter@D@__crt_stdio_output@@V?$positional_parameter_base@DV?$stream_output_adapter@D@__crt_stdio_output@@@2@@__crt_stdio_output@@AAE_NXZ 100400a0 f i libucrtd:output.obj
 0001:0003f190       ?type_case_Z@?$output_processor@DV?$stream_output_adapter@D@__crt_stdio_output@@V?$standard_base@DV?$stream_output_adapter@D@__crt_stdio_output@@@2@@__crt_stdio_output@@AAE_NXZ 10040190 f i libucrtd:output.obj
 0001:0003f280       ?type_case_Z@?$output_processor@DV?$string_output_adapter@D@__crt_stdio_output@@V?$format_validation_base@DV?$string_output_adapter@D@__crt_stdio_output@@@2@@__crt_stdio_output@@AAE_NXZ 10040280 f i libucrtd:output.obj
 0001:0003f370       ?type_case_Z@?$output_processor@DV?$string_output_adapter@D@__crt_stdio_output@@V?$positional_parameter_base@DV?$string_output_adapter@D@__crt_stdio_output@@@2@@__crt_stdio_output@@AAE_NXZ 10040370 f i libucrtd:output.obj
 0001:0003f460       ?type_case_Z@?$output_processor@DV?$string_output_adapter@D@__crt_stdio_output@@V?$standard_base@DV?$string_output_adapter@D@__crt_stdio_output@@@2@@__crt_stdio_output@@AAE_NXZ 10040460 f i libucrtd:output.obj
 0001:0003f550       ?type_case_Z@?$output_processor@_WV?$stream_output_adapter@_W@__crt_stdio_output@@V?$format_validation_base@_WV?$stream_output_adapter@_W@__crt_stdio_output@@@2@@__crt_stdio_output@@AAE_NXZ 10040550 f i libucrtd:output.obj
 0001:0003f640       ?type_case_Z@?$output_processor@_WV?$stream_output_adapter@_W@__crt_stdio_output@@V?$positional_parameter_base@_WV?$stream_output_adapter@_W@__crt_stdio_output@@@2@@__crt_stdio_output@@AAE_NXZ 10040640 f i libucrtd:output.obj
 0001:0003f730       ?type_case_Z@?$output_processor@_WV?$stream_output_adapter@_W@__crt_stdio_output@@V?$standard_base@_WV?$stream_output_adapter@_W@__crt_stdio_output@@@2@@__crt_stdio_output@@AAE_NXZ 10040730 f i libucrtd:output.obj
 0001:0003f820       ?type_case_Z@?$output_processor@_WV?$string_output_adapter@_W@__crt_stdio_output@@V?$format_validation_base@_WV?$string_output_adapter@_W@__crt_stdio_output@@@2@@__crt_stdio_output@@AAE_NXZ 10040820 f i libucrtd:output.obj
 0001:0003f910       ?type_case_Z@?$output_processor@_WV?$string_output_adapter@_W@__crt_stdio_output@@V?$positional_parameter_base@_WV?$string_output_adapter@_W@__crt_stdio_output@@@2@@__crt_stdio_output@@AAE_NXZ 10040910 f i libucrtd:output.obj
 0001:0003fa00       ?type_case_Z@?$output_processor@_WV?$string_output_adapter@_W@__crt_stdio_output@@V?$standard_base@_WV?$string_output_adapter@_W@__crt_stdio_output@@@2@@__crt_stdio_output@@AAE_NXZ 10040a00 f i libucrtd:output.obj
 0001:0003faf0       ?type_case_a@?$output_processor@DV?$stream_output_adapter@D@__crt_stdio_output@@V?$format_validation_base@DV?$stream_output_adapter@D@__crt_stdio_output@@@2@@__crt_stdio_output@@AAE_NXZ 10040af0 f i libucrtd:output.obj
 0001:0003fdc0       ?type_case_a@?$output_processor@DV?$stream_output_adapter@D@__crt_stdio_output@@V?$positional_parameter_base@DV?$stream_output_adapter@D@__crt_stdio_output@@@2@@__crt_stdio_output@@AAE_NXZ 10040dc0 f i libucrtd:output.obj
 0001:00040090       ?type_case_a@?$output_processor@DV?$stream_output_adapter@D@__crt_stdio_output@@V?$standard_base@DV?$stream_output_adapter@D@__crt_stdio_output@@@2@@__crt_stdio_output@@AAE_NXZ 10041090 f i libucrtd:output.obj
 0001:00040360       ?type_case_a@?$output_processor@DV?$string_output_adapter@D@__crt_stdio_output@@V?$format_validation_base@DV?$string_output_adapter@D@__crt_stdio_output@@@2@@__crt_stdio_output@@AAE_NXZ 10041360 f i libucrtd:output.obj
 0001:00040630       ?type_case_a@?$output_processor@DV?$string_output_adapter@D@__crt_stdio_output@@V?$positional_parameter_base@DV?$string_output_adapter@D@__crt_stdio_output@@@2@@__crt_stdio_output@@AAE_NXZ 10041630 f i libucrtd:output.obj
 0001:00040900       ?type_case_a@?$output_processor@DV?$string_output_adapter@D@__crt_stdio_output@@V?$standard_base@DV?$string_output_adapter@D@__crt_stdio_output@@@2@@__crt_stdio_output@@AAE_NXZ 10041900 f i libucrtd:output.obj
 0001:00040bd0       ?type_case_a@?$output_processor@_WV?$stream_output_adapter@_W@__crt_stdio_output@@V?$format_validation_base@_WV?$stream_output_adapter@_W@__crt_stdio_output@@@2@@__crt_stdio_output@@AAE_NXZ 10041bd0 f i libucrtd:output.obj
 0001:00040ea0       ?type_case_a@?$output_processor@_WV?$stream_output_adapter@_W@__crt_stdio_output@@V?$positional_parameter_base@_WV?$stream_output_adapter@_W@__crt_stdio_output@@@2@@__crt_stdio_output@@AAE_NXZ 10041ea0 f i libucrtd:output.obj
 0001:00041170       ?type_case_a@?$output_processor@_WV?$stream_output_adapter@_W@__crt_stdio_output@@V?$standard_base@_WV?$stream_output_adapter@_W@__crt_stdio_output@@@2@@__crt_stdio_output@@AAE_NXZ 10042170 f i libucrtd:output.obj
 0001:00041440       ?type_case_a@?$output_processor@_WV?$string_output_adapter@_W@__crt_stdio_output@@V?$format_validation_base@_WV?$string_output_adapter@_W@__crt_stdio_output@@@2@@__crt_stdio_output@@AAE_NXZ 10042440 f i libucrtd:output.obj
 0001:00041710       ?type_case_a@?$output_processor@_WV?$string_output_adapter@_W@__crt_stdio_output@@V?$positional_parameter_base@_WV?$string_output_adapter@_W@__crt_stdio_output@@@2@@__crt_stdio_output@@AAE_NXZ 10042710 f i libucrtd:output.obj
 0001:000419e0       ?type_case_a@?$output_processor@_WV?$string_output_adapter@_W@__crt_stdio_output@@V?$standard_base@_WV?$string_output_adapter@_W@__crt_stdio_output@@@2@@__crt_stdio_output@@AAE_NXZ 100429e0 f i libucrtd:output.obj
 0001:00041cb0       ?type_case_c@?$output_processor@DV?$stream_output_adapter@D@__crt_stdio_output@@V?$format_validation_base@DV?$stream_output_adapter@D@__crt_stdio_output@@@2@@__crt_stdio_output@@AAE_NXZ 10042cb0 f i libucrtd:output.obj
 0001:00041cd0       ?type_case_c@?$output_processor@DV?$stream_output_adapter@D@__crt_stdio_output@@V?$positional_parameter_base@DV?$stream_output_adapter@D@__crt_stdio_output@@@2@@__crt_stdio_output@@AAE_NXZ 10042cd0 f i libucrtd:output.obj
 0001:00041cf0       ?type_case_c@?$output_processor@DV?$stream_output_adapter@D@__crt_stdio_output@@V?$standard_base@DV?$stream_output_adapter@D@__crt_stdio_output@@@2@@__crt_stdio_output@@AAE_NXZ 10042cf0 f i libucrtd:output.obj
 0001:00041d10       ?type_case_c@?$output_processor@DV?$string_output_adapter@D@__crt_stdio_output@@V?$format_validation_base@DV?$string_output_adapter@D@__crt_stdio_output@@@2@@__crt_stdio_output@@AAE_NXZ 10042d10 f i libucrtd:output.obj
 0001:00041d30       ?type_case_c@?$output_processor@DV?$string_output_adapter@D@__crt_stdio_output@@V?$positional_parameter_base@DV?$string_output_adapter@D@__crt_stdio_output@@@2@@__crt_stdio_output@@AAE_NXZ 10042d30 f i libucrtd:output.obj
 0001:00041d50       ?type_case_c@?$output_processor@DV?$string_output_adapter@D@__crt_stdio_output@@V?$standard_base@DV?$string_output_adapter@D@__crt_stdio_output@@@2@@__crt_stdio_output@@AAE_NXZ 10042d50 f i libucrtd:output.obj
 0001:00041d70       ?type_case_c@?$output_processor@_WV?$stream_output_adapter@_W@__crt_stdio_output@@V?$format_validation_base@_WV?$stream_output_adapter@_W@__crt_stdio_output@@@2@@__crt_stdio_output@@AAE_NXZ 10042d70 f i libucrtd:output.obj
 0001:00041d90       ?type_case_c@?$output_processor@_WV?$stream_output_adapter@_W@__crt_stdio_output@@V?$positional_parameter_base@_WV?$stream_output_adapter@_W@__crt_stdio_output@@@2@@__crt_stdio_output@@AAE_NXZ 10042d90 f i libucrtd:output.obj
 0001:00041db0       ?type_case_c@?$output_processor@_WV?$stream_output_adapter@_W@__crt_stdio_output@@V?$standard_base@_WV?$stream_output_adapter@_W@__crt_stdio_output@@@2@@__crt_stdio_output@@AAE_NXZ 10042db0 f i libucrtd:output.obj
 0001:00041dd0       ?type_case_c@?$output_processor@_WV?$string_output_adapter@_W@__crt_stdio_output@@V?$format_validation_base@_WV?$string_output_adapter@_W@__crt_stdio_output@@@2@@__crt_stdio_output@@AAE_NXZ 10042dd0 f i libucrtd:output.obj
 0001:00041df0       ?type_case_c@?$output_processor@_WV?$string_output_adapter@_W@__crt_stdio_output@@V?$positional_parameter_base@_WV?$string_output_adapter@_W@__crt_stdio_output@@@2@@__crt_stdio_output@@AAE_NXZ 10042df0 f i libucrtd:output.obj
 0001:00041e10       ?type_case_c@?$output_processor@_WV?$string_output_adapter@_W@__crt_stdio_output@@V?$standard_base@_WV?$string_output_adapter@_W@__crt_stdio_output@@@2@@__crt_stdio_output@@AAE_NXZ 10042e10 f i libucrtd:output.obj
 0001:00041e30       ?type_case_c_tchar@?$output_processor@DV?$stream_output_adapter@D@__crt_stdio_output@@V?$format_validation_base@DV?$stream_output_adapter@D@__crt_stdio_output@@@2@@__crt_stdio_output@@AAE_ND@Z 10042e30 f i libucrtd:output.obj
 0001:00041f60       ?type_case_c_tchar@?$output_processor@DV?$stream_output_adapter@D@__crt_stdio_output@@V?$positional_parameter_base@DV?$stream_output_adapter@D@__crt_stdio_output@@@2@@__crt_stdio_output@@AAE_ND@Z 10042f60 f i libucrtd:output.obj
 0001:00042090       ?type_case_c_tchar@?$output_processor@DV?$stream_output_adapter@D@__crt_stdio_output@@V?$standard_base@DV?$stream_output_adapter@D@__crt_stdio_output@@@2@@__crt_stdio_output@@AAE_ND@Z 10043090 f i libucrtd:output.obj
 0001:000421c0       ?type_case_c_tchar@?$output_processor@DV?$string_output_adapter@D@__crt_stdio_output@@V?$format_validation_base@DV?$string_output_adapter@D@__crt_stdio_output@@@2@@__crt_stdio_output@@AAE_ND@Z 100431c0 f i libucrtd:output.obj
 0001:000422f0       ?type_case_c_tchar@?$output_processor@DV?$string_output_adapter@D@__crt_stdio_output@@V?$positional_parameter_base@DV?$string_output_adapter@D@__crt_stdio_output@@@2@@__crt_stdio_output@@AAE_ND@Z 100432f0 f i libucrtd:output.obj
 0001:00042420       ?type_case_c_tchar@?$output_processor@DV?$string_output_adapter@D@__crt_stdio_output@@V?$standard_base@DV?$string_output_adapter@D@__crt_stdio_output@@@2@@__crt_stdio_output@@AAE_ND@Z 10043420 f i libucrtd:output.obj
 0001:00042550       ?type_case_c_tchar@?$output_processor@_WV?$stream_output_adapter@_W@__crt_stdio_output@@V?$format_validation_base@_WV?$stream_output_adapter@_W@__crt_stdio_output@@@2@@__crt_stdio_output@@AAE_N_W@Z 10043550 f i libucrtd:output.obj
 0001:00042670       ?type_case_c_tchar@?$output_processor@_WV?$stream_output_adapter@_W@__crt_stdio_output@@V?$positional_parameter_base@_WV?$stream_output_adapter@_W@__crt_stdio_output@@@2@@__crt_stdio_output@@AAE_N_W@Z 10043670 f i libucrtd:output.obj
 0001:00042790       ?type_case_c_tchar@?$output_processor@_WV?$stream_output_adapter@_W@__crt_stdio_output@@V?$standard_base@_WV?$stream_output_adapter@_W@__crt_stdio_output@@@2@@__crt_stdio_output@@AAE_N_W@Z 10043790 f i libucrtd:output.obj
 0001:000428b0       ?type_case_c_tchar@?$output_processor@_WV?$string_output_adapter@_W@__crt_stdio_output@@V?$format_validation_base@_WV?$string_output_adapter@_W@__crt_stdio_output@@@2@@__crt_stdio_output@@AAE_N_W@Z 100438b0 f i libucrtd:output.obj
 0001:000429d0       ?type_case_c_tchar@?$output_processor@_WV?$string_output_adapter@_W@__crt_stdio_output@@V?$positional_parameter_base@_WV?$string_output_adapter@_W@__crt_stdio_output@@@2@@__crt_stdio_output@@AAE_N_W@Z 100439d0 f i libucrtd:output.obj
 0001:00042af0       ?type_case_c_tchar@?$output_processor@_WV?$string_output_adapter@_W@__crt_stdio_output@@V?$standard_base@_WV?$string_output_adapter@_W@__crt_stdio_output@@@2@@__crt_stdio_output@@AAE_N_W@Z 10043af0 f i libucrtd:output.obj
 0001:00042c10       ?type_case_d@?$output_processor@DV?$stream_output_adapter@D@__crt_stdio_output@@V?$format_validation_base@DV?$stream_output_adapter@D@__crt_stdio_output@@@2@@__crt_stdio_output@@AAE_NXZ 10043c10 f i libucrtd:output.obj
 0001:00042c40       ?type_case_d@?$output_processor@DV?$stream_output_adapter@D@__crt_stdio_output@@V?$positional_parameter_base@DV?$stream_output_adapter@D@__crt_stdio_output@@@2@@__crt_stdio_output@@AAE_NXZ 10043c40 f i libucrtd:output.obj
 0001:00042c70       ?type_case_d@?$output_processor@DV?$stream_output_adapter@D@__crt_stdio_output@@V?$standard_base@DV?$stream_output_adapter@D@__crt_stdio_output@@@2@@__crt_stdio_output@@AAE_NXZ 10043c70 f i libucrtd:output.obj
 0001:00042ca0       ?type_case_d@?$output_processor@DV?$string_output_adapter@D@__crt_stdio_output@@V?$format_validation_base@DV?$string_output_adapter@D@__crt_stdio_output@@@2@@__crt_stdio_output@@AAE_NXZ 10043ca0 f i libucrtd:output.obj
 0001:00042cd0       ?type_case_d@?$output_processor@DV?$string_output_adapter@D@__crt_stdio_output@@V?$positional_parameter_base@DV?$string_output_adapter@D@__crt_stdio_output@@@2@@__crt_stdio_output@@AAE_NXZ 10043cd0 f i libucrtd:output.obj
 0001:00042d00       ?type_case_d@?$output_processor@DV?$string_output_adapter@D@__crt_stdio_output@@V?$standard_base@DV?$string_output_adapter@D@__crt_stdio_output@@@2@@__crt_stdio_output@@AAE_NXZ 10043d00 f i libucrtd:output.obj
 0001:00042d30       ?type_case_d@?$output_processor@_WV?$stream_output_adapter@_W@__crt_stdio_output@@V?$format_validation_base@_WV?$stream_output_adapter@_W@__crt_stdio_output@@@2@@__crt_stdio_output@@AAE_NXZ 10043d30 f i libucrtd:output.obj
 0001:00042d60       ?type_case_d@?$output_processor@_WV?$stream_output_adapter@_W@__crt_stdio_output@@V?$positional_parameter_base@_WV?$stream_output_adapter@_W@__crt_stdio_output@@@2@@__crt_stdio_output@@AAE_NXZ 10043d60 f i libucrtd:output.obj
 0001:00042d90       ?type_case_d@?$output_processor@_WV?$stream_output_adapter@_W@__crt_stdio_output@@V?$standard_base@_WV?$stream_output_adapter@_W@__crt_stdio_output@@@2@@__crt_stdio_output@@AAE_NXZ 10043d90 f i libucrtd:output.obj
 0001:00042dc0       ?type_case_d@?$output_processor@_WV?$string_output_adapter@_W@__crt_stdio_output@@V?$format_validation_base@_WV?$string_output_adapter@_W@__crt_stdio_output@@@2@@__crt_stdio_output@@AAE_NXZ 10043dc0 f i libucrtd:output.obj
 0001:00042df0       ?type_case_d@?$output_processor@_WV?$string_output_adapter@_W@__crt_stdio_output@@V?$positional_parameter_base@_WV?$string_output_adapter@_W@__crt_stdio_output@@@2@@__crt_stdio_output@@AAE_NXZ 10043df0 f i libucrtd:output.obj
 0001:00042e20       ?type_case_d@?$output_processor@_WV?$string_output_adapter@_W@__crt_stdio_output@@V?$standard_base@_WV?$string_output_adapter@_W@__crt_stdio_output@@@2@@__crt_stdio_output@@AAE_NXZ 10043e20 f i libucrtd:output.obj
 0001:00042e50       ?type_case_n@?$output_processor@DV?$stream_output_adapter@D@__crt_stdio_output@@V?$format_validation_base@DV?$stream_output_adapter@D@__crt_stdio_output@@@2@@__crt_stdio_output@@AAE_NXZ 10043e50 f i libucrtd:output.obj
 0001:00043070       ?type_case_n@?$output_processor@DV?$stream_output_adapter@D@__crt_stdio_output@@V?$positional_parameter_base@DV?$stream_output_adapter@D@__crt_stdio_output@@@2@@__crt_stdio_output@@AAE_NXZ 10044070 f i libucrtd:output.obj
 0001:00043290       ?type_case_n@?$output_processor@DV?$stream_output_adapter@D@__crt_stdio_output@@V?$standard_base@DV?$stream_output_adapter@D@__crt_stdio_output@@@2@@__crt_stdio_output@@AAE_NXZ 10044290 f i libucrtd:output.obj
 0001:000434b0       ?type_case_n@?$output_processor@DV?$string_output_adapter@D@__crt_stdio_output@@V?$format_validation_base@DV?$string_output_adapter@D@__crt_stdio_output@@@2@@__crt_stdio_output@@AAE_NXZ 100444b0 f i libucrtd:output.obj
 0001:000436d0       ?type_case_n@?$output_processor@DV?$string_output_adapter@D@__crt_stdio_output@@V?$positional_parameter_base@DV?$string_output_adapter@D@__crt_stdio_output@@@2@@__crt_stdio_output@@AAE_NXZ 100446d0 f i libucrtd:output.obj
 0001:000438f0       ?type_case_n@?$output_processor@DV?$string_output_adapter@D@__crt_stdio_output@@V?$standard_base@DV?$string_output_adapter@D@__crt_stdio_output@@@2@@__crt_stdio_output@@AAE_NXZ 100448f0 f i libucrtd:output.obj
 0001:00043b10       ?type_case_n@?$output_processor@_WV?$stream_output_adapter@_W@__crt_stdio_output@@V?$format_validation_base@_WV?$stream_output_adapter@_W@__crt_stdio_output@@@2@@__crt_stdio_output@@AAE_NXZ 10044b10 f i libucrtd:output.obj
 0001:00043d30       ?type_case_n@?$output_processor@_WV?$stream_output_adapter@_W@__crt_stdio_output@@V?$positional_parameter_base@_WV?$stream_output_adapter@_W@__crt_stdio_output@@@2@@__crt_stdio_output@@AAE_NXZ 10044d30 f i libucrtd:output.obj
 0001:00043f50       ?type_case_n@?$output_processor@_WV?$stream_output_adapter@_W@__crt_stdio_output@@V?$standard_base@_WV?$stream_output_adapter@_W@__crt_stdio_output@@@2@@__crt_stdio_output@@AAE_NXZ 10044f50 f i libucrtd:output.obj
 0001:00044170       ?type_case_n@?$output_processor@_WV?$string_output_adapter@_W@__crt_stdio_output@@V?$format_validation_base@_WV?$string_output_adapter@_W@__crt_stdio_output@@@2@@__crt_stdio_output@@AAE_NXZ 10045170 f i libucrtd:output.obj
 0001:00044390       ?type_case_n@?$output_processor@_WV?$string_output_adapter@_W@__crt_stdio_output@@V?$positional_parameter_base@_WV?$string_output_adapter@_W@__crt_stdio_output@@@2@@__crt_stdio_output@@AAE_NXZ 10045390 f i libucrtd:output.obj
 0001:000445b0       ?type_case_n@?$output_processor@_WV?$string_output_adapter@_W@__crt_stdio_output@@V?$standard_base@_WV?$string_output_adapter@_W@__crt_stdio_output@@@2@@__crt_stdio_output@@AAE_NXZ 100455b0 f i libucrtd:output.obj
 0001:000447d0       ?type_case_o@?$output_processor@DV?$stream_output_adapter@D@__crt_stdio_output@@V?$format_validation_base@DV?$stream_output_adapter@D@__crt_stdio_output@@@2@@__crt_stdio_output@@AAE_NXZ 100457d0 f i libucrtd:output.obj
 0001:00044810       ?type_case_o@?$output_processor@DV?$stream_output_adapter@D@__crt_stdio_output@@V?$positional_parameter_base@DV?$stream_output_adapter@D@__crt_stdio_output@@@2@@__crt_stdio_output@@AAE_NXZ 10045810 f i libucrtd:output.obj
 0001:00044850       ?type_case_o@?$output_processor@DV?$stream_output_adapter@D@__crt_stdio_output@@V?$standard_base@DV?$stream_output_adapter@D@__crt_stdio_output@@@2@@__crt_stdio_output@@AAE_NXZ 10045850 f i libucrtd:output.obj
 0001:00044890       ?type_case_o@?$output_processor@DV?$string_output_adapter@D@__crt_stdio_output@@V?$format_validation_base@DV?$string_output_adapter@D@__crt_stdio_output@@@2@@__crt_stdio_output@@AAE_NXZ 10045890 f i libucrtd:output.obj
 0001:000448d0       ?type_case_o@?$output_processor@DV?$string_output_adapter@D@__crt_stdio_output@@V?$positional_parameter_base@DV?$string_output_adapter@D@__crt_stdio_output@@@2@@__crt_stdio_output@@AAE_NXZ 100458d0 f i libucrtd:output.obj
 0001:00044910       ?type_case_o@?$output_processor@DV?$string_output_adapter@D@__crt_stdio_output@@V?$standard_base@DV?$string_output_adapter@D@__crt_stdio_output@@@2@@__crt_stdio_output@@AAE_NXZ 10045910 f i libucrtd:output.obj
 0001:00044950       ?type_case_o@?$output_processor@_WV?$stream_output_adapter@_W@__crt_stdio_output@@V?$format_validation_base@_WV?$stream_output_adapter@_W@__crt_stdio_output@@@2@@__crt_stdio_output@@AAE_NXZ 10045950 f i libucrtd:output.obj
 0001:00044990       ?type_case_o@?$output_processor@_WV?$stream_output_adapter@_W@__crt_stdio_output@@V?$positional_parameter_base@_WV?$stream_output_adapter@_W@__crt_stdio_output@@@2@@__crt_stdio_output@@AAE_NXZ 10045990 f i libucrtd:output.obj
 0001:000449d0       ?type_case_o@?$output_processor@_WV?$stream_output_adapter@_W@__crt_stdio_output@@V?$standard_base@_WV?$stream_output_adapter@_W@__crt_stdio_output@@@2@@__crt_stdio_output@@AAE_NXZ 100459d0 f i libucrtd:output.obj
 0001:00044a10       ?type_case_o@?$output_processor@_WV?$string_output_adapter@_W@__crt_stdio_output@@V?$format_validation_base@_WV?$string_output_adapter@_W@__crt_stdio_output@@@2@@__crt_stdio_output@@AAE_NXZ 10045a10 f i libucrtd:output.obj
 0001:00044a50       ?type_case_o@?$output_processor@_WV?$string_output_adapter@_W@__crt_stdio_output@@V?$positional_parameter_base@_WV?$string_output_adapter@_W@__crt_stdio_output@@@2@@__crt_stdio_output@@AAE_NXZ 10045a50 f i libucrtd:output.obj
 0001:00044a90       ?type_case_o@?$output_processor@_WV?$string_output_adapter@_W@__crt_stdio_output@@V?$standard_base@_WV?$string_output_adapter@_W@__crt_stdio_output@@@2@@__crt_stdio_output@@AAE_NXZ 10045a90 f i libucrtd:output.obj
 0001:00044ad0       ?type_case_p@?$output_processor@DV?$stream_output_adapter@D@__crt_stdio_output@@V?$format_validation_base@DV?$stream_output_adapter@D@__crt_stdio_output@@@2@@__crt_stdio_output@@AAE_NXZ 10045ad0 f i libucrtd:output.obj
 0001:00044b00       ?type_case_p@?$output_processor@DV?$stream_output_adapter@D@__crt_stdio_output@@V?$positional_parameter_base@DV?$stream_output_adapter@D@__crt_stdio_output@@@2@@__crt_stdio_output@@AAE_NXZ 10045b00 f i libucrtd:output.obj
 0001:00044b30       ?type_case_p@?$output_processor@DV?$stream_output_adapter@D@__crt_stdio_output@@V?$standard_base@DV?$stream_output_adapter@D@__crt_stdio_output@@@2@@__crt_stdio_output@@AAE_NXZ 10045b30 f i libucrtd:output.obj
 0001:00044b60       ?type_case_p@?$output_processor@DV?$string_output_adapter@D@__crt_stdio_output@@V?$format_validation_base@DV?$string_output_adapter@D@__crt_stdio_output@@@2@@__crt_stdio_output@@AAE_NXZ 10045b60 f i libucrtd:output.obj
 0001:00044b90       ?type_case_p@?$output_processor@DV?$string_output_adapter@D@__crt_stdio_output@@V?$positional_parameter_base@DV?$string_output_adapter@D@__crt_stdio_output@@@2@@__crt_stdio_output@@AAE_NXZ 10045b90 f i libucrtd:output.obj
 0001:00044bc0       ?type_case_p@?$output_processor@DV?$string_output_adapter@D@__crt_stdio_output@@V?$standard_base@DV?$string_output_adapter@D@__crt_stdio_output@@@2@@__crt_stdio_output@@AAE_NXZ 10045bc0 f i libucrtd:output.obj
 0001:00044bf0       ?type_case_p@?$output_processor@_WV?$stream_output_adapter@_W@__crt_stdio_output@@V?$format_validation_base@_WV?$stream_output_adapter@_W@__crt_stdio_output@@@2@@__crt_stdio_output@@AAE_NXZ 10045bf0 f i libucrtd:output.obj
 0001:00044c20       ?type_case_p@?$output_processor@_WV?$stream_output_adapter@_W@__crt_stdio_output@@V?$positional_parameter_base@_WV?$stream_output_adapter@_W@__crt_stdio_output@@@2@@__crt_stdio_output@@AAE_NXZ 10045c20 f i libucrtd:output.obj
 0001:00044c50       ?type_case_p@?$output_processor@_WV?$stream_output_adapter@_W@__crt_stdio_output@@V?$standard_base@_WV?$stream_output_adapter@_W@__crt_stdio_output@@@2@@__crt_stdio_output@@AAE_NXZ 10045c50 f i libucrtd:output.obj
 0001:00044c80       ?type_case_p@?$output_processor@_WV?$string_output_adapter@_W@__crt_stdio_output@@V?$format_validation_base@_WV?$string_output_adapter@_W@__crt_stdio_output@@@2@@__crt_stdio_output@@AAE_NXZ 10045c80 f i libucrtd:output.obj
 0001:00044cb0       ?type_case_p@?$output_processor@_WV?$string_output_adapter@_W@__crt_stdio_output@@V?$positional_parameter_base@_WV?$string_output_adapter@_W@__crt_stdio_output@@@2@@__crt_stdio_output@@AAE_NXZ 10045cb0 f i libucrtd:output.obj
 0001:00044ce0       ?type_case_p@?$output_processor@_WV?$string_output_adapter@_W@__crt_stdio_output@@V?$standard_base@_WV?$string_output_adapter@_W@__crt_stdio_output@@@2@@__crt_stdio_output@@AAE_NXZ 10045ce0 f i libucrtd:output.obj
 0001:00044d10       ?type_case_s@?$output_processor@DV?$stream_output_adapter@D@__crt_stdio_output@@V?$format_validation_base@DV?$stream_output_adapter@D@__crt_stdio_output@@@2@@__crt_stdio_output@@AAE_NXZ 10045d10 f i libucrtd:output.obj
 0001:00044e00       ?type_case_s@?$output_processor@DV?$stream_output_adapter@D@__crt_stdio_output@@V?$positional_parameter_base@DV?$stream_output_adapter@D@__crt_stdio_output@@@2@@__crt_stdio_output@@AAE_NXZ 10045e00 f i libucrtd:output.obj
 0001:00044ef0       ?type_case_s@?$output_processor@DV?$stream_output_adapter@D@__crt_stdio_output@@V?$standard_base@DV?$stream_output_adapter@D@__crt_stdio_output@@@2@@__crt_stdio_output@@AAE_NXZ 10045ef0 f i libucrtd:output.obj
 0001:00044fe0       ?type_case_s@?$output_processor@DV?$string_output_adapter@D@__crt_stdio_output@@V?$format_validation_base@DV?$string_output_adapter@D@__crt_stdio_output@@@2@@__crt_stdio_output@@AAE_NXZ 10045fe0 f i libucrtd:output.obj
 0001:000450d0       ?type_case_s@?$output_processor@DV?$string_output_adapter@D@__crt_stdio_output@@V?$positional_parameter_base@DV?$string_output_adapter@D@__crt_stdio_output@@@2@@__crt_stdio_output@@AAE_NXZ 100460d0 f i libucrtd:output.obj
 0001:000451c0       ?type_case_s@?$output_processor@DV?$string_output_adapter@D@__crt_stdio_output@@V?$standard_base@DV?$string_output_adapter@D@__crt_stdio_output@@@2@@__crt_stdio_output@@AAE_NXZ 100461c0 f i libucrtd:output.obj
 0001:000452b0       ?type_case_s@?$output_processor@_WV?$stream_output_adapter@_W@__crt_stdio_output@@V?$format_validation_base@_WV?$stream_output_adapter@_W@__crt_stdio_output@@@2@@__crt_stdio_output@@AAE_NXZ 100462b0 f i libucrtd:output.obj
 0001:000453a0       ?type_case_s@?$output_processor@_WV?$stream_output_adapter@_W@__crt_stdio_output@@V?$positional_parameter_base@_WV?$stream_output_adapter@_W@__crt_stdio_output@@@2@@__crt_stdio_output@@AAE_NXZ 100463a0 f i libucrtd:output.obj
 0001:00045490       ?type_case_s@?$output_processor@_WV?$stream_output_adapter@_W@__crt_stdio_output@@V?$standard_base@_WV?$stream_output_adapter@_W@__crt_stdio_output@@@2@@__crt_stdio_output@@AAE_NXZ 10046490 f i libucrtd:output.obj
 0001:00045580       ?type_case_s@?$output_processor@_WV?$string_output_adapter@_W@__crt_stdio_output@@V?$format_validation_base@_WV?$string_output_adapter@_W@__crt_stdio_output@@@2@@__crt_stdio_output@@AAE_NXZ 10046580 f i libucrtd:output.obj
 0001:00045670       ?type_case_s@?$output_processor@_WV?$string_output_adapter@_W@__crt_stdio_output@@V?$positional_parameter_base@_WV?$string_output_adapter@_W@__crt_stdio_output@@@2@@__crt_stdio_output@@AAE_NXZ 10046670 f i libucrtd:output.obj
 0001:00045760       ?type_case_s@?$output_processor@_WV?$string_output_adapter@_W@__crt_stdio_output@@V?$standard_base@_WV?$string_output_adapter@_W@__crt_stdio_output@@@2@@__crt_stdio_output@@AAE_NXZ 10046760 f i libucrtd:output.obj
 0001:00045850       ?type_case_s_compute_narrow_string_length@?$output_processor@DV?$stream_output_adapter@D@__crt_stdio_output@@V?$format_validation_base@DV?$stream_output_adapter@D@__crt_stdio_output@@@2@@__crt_stdio_output@@AAEHHD@Z 10046850 f i libucrtd:output.obj
 0001:00045880       ?type_case_s_compute_narrow_string_length@?$output_processor@DV?$stream_output_adapter@D@__crt_stdio_output@@V?$positional_parameter_base@DV?$stream_output_adapter@D@__crt_stdio_output@@@2@@__crt_stdio_output@@AAEHHD@Z 10046880 f i libucrtd:output.obj
 0001:000458b0       ?type_case_s_compute_narrow_string_length@?$output_processor@DV?$stream_output_adapter@D@__crt_stdio_output@@V?$standard_base@DV?$stream_output_adapter@D@__crt_stdio_output@@@2@@__crt_stdio_output@@AAEHHD@Z 100468b0 f i libucrtd:output.obj
 0001:000458e0       ?type_case_s_compute_narrow_string_length@?$output_processor@DV?$string_output_adapter@D@__crt_stdio_output@@V?$format_validation_base@DV?$string_output_adapter@D@__crt_stdio_output@@@2@@__crt_stdio_output@@AAEHHD@Z 100468e0 f i libucrtd:output.obj
 0001:00045910       ?type_case_s_compute_narrow_string_length@?$output_processor@DV?$string_output_adapter@D@__crt_stdio_output@@V?$positional_parameter_base@DV?$string_output_adapter@D@__crt_stdio_output@@@2@@__crt_stdio_output@@AAEHHD@Z 10046910 f i libucrtd:output.obj
 0001:00045940       ?type_case_s_compute_narrow_string_length@?$output_processor@DV?$string_output_adapter@D@__crt_stdio_output@@V?$standard_base@DV?$string_output_adapter@D@__crt_stdio_output@@@2@@__crt_stdio_output@@AAEHHD@Z 10046940 f i libucrtd:output.obj
 0001:00045970       ?type_case_s_compute_narrow_string_length@?$output_processor@_WV?$stream_output_adapter@_W@__crt_stdio_output@@V?$format_validation_base@_WV?$stream_output_adapter@_W@__crt_stdio_output@@@2@@__crt_stdio_output@@AAEHH_W@Z 10046970 f i libucrtd:output.obj
 0001:000459f0       ?type_case_s_compute_narrow_string_length@?$output_processor@_WV?$stream_output_adapter@_W@__crt_stdio_output@@V?$positional_parameter_base@_WV?$stream_output_adapter@_W@__crt_stdio_output@@@2@@__crt_stdio_output@@AAEHH_W@Z 100469f0 f i libucrtd:output.obj
 0001:00045a70       ?type_case_s_compute_narrow_string_length@?$output_processor@_WV?$stream_output_adapter@_W@__crt_stdio_output@@V?$standard_base@_WV?$stream_output_adapter@_W@__crt_stdio_output@@@2@@__crt_stdio_output@@AAEHH_W@Z 10046a70 f i libucrtd:output.obj
 0001:00045af0       ?type_case_s_compute_narrow_string_length@?$output_processor@_WV?$string_output_adapter@_W@__crt_stdio_output@@V?$format_validation_base@_WV?$string_output_adapter@_W@__crt_stdio_output@@@2@@__crt_stdio_output@@AAEHH_W@Z 10046af0 f i libucrtd:output.obj
 0001:00045b70       ?type_case_s_compute_narrow_string_length@?$output_processor@_WV?$string_output_adapter@_W@__crt_stdio_output@@V?$positional_parameter_base@_WV?$string_output_adapter@_W@__crt_stdio_output@@@2@@__crt_stdio_output@@AAEHH_W@Z 10046b70 f i libucrtd:output.obj
 0001:00045bf0       ?type_case_s_compute_narrow_string_length@?$output_processor@_WV?$string_output_adapter@_W@__crt_stdio_output@@V?$standard_base@_WV?$string_output_adapter@_W@__crt_stdio_output@@@2@@__crt_stdio_output@@AAEHH_W@Z 10046bf0 f i libucrtd:output.obj
 0001:00045c70       ?type_case_u@?$output_processor@DV?$stream_output_adapter@D@__crt_stdio_output@@V?$format_validation_base@DV?$stream_output_adapter@D@__crt_stdio_output@@@2@@__crt_stdio_output@@AAE_NXZ 10046c70 f i libucrtd:output.obj
 0001:00045c90       ?type_case_u@?$output_processor@DV?$stream_output_adapter@D@__crt_stdio_output@@V?$positional_parameter_base@DV?$stream_output_adapter@D@__crt_stdio_output@@@2@@__crt_stdio_output@@AAE_NXZ 10046c90 f i libucrtd:output.obj
 0001:00045cb0       ?type_case_u@?$output_processor@DV?$stream_output_adapter@D@__crt_stdio_output@@V?$standard_base@DV?$stream_output_adapter@D@__crt_stdio_output@@@2@@__crt_stdio_output@@AAE_NXZ 10046cb0 f i libucrtd:output.obj
 0001:00045cd0       ?type_case_u@?$output_processor@DV?$string_output_adapter@D@__crt_stdio_output@@V?$format_validation_base@DV?$string_output_adapter@D@__crt_stdio_output@@@2@@__crt_stdio_output@@AAE_NXZ 10046cd0 f i libucrtd:output.obj
 0001:00045cf0       ?type_case_u@?$output_processor@DV?$string_output_adapter@D@__crt_stdio_output@@V?$positional_parameter_base@DV?$string_output_adapter@D@__crt_stdio_output@@@2@@__crt_stdio_output@@AAE_NXZ 10046cf0 f i libucrtd:output.obj
 0001:00045d10       ?type_case_u@?$output_processor@DV?$string_output_adapter@D@__crt_stdio_output@@V?$standard_base@DV?$string_output_adapter@D@__crt_stdio_output@@@2@@__crt_stdio_output@@AAE_NXZ 10046d10 f i libucrtd:output.obj
 0001:00045d30       ?type_case_u@?$output_processor@_WV?$stream_output_adapter@_W@__crt_stdio_output@@V?$format_validation_base@_WV?$stream_output_adapter@_W@__crt_stdio_output@@@2@@__crt_stdio_output@@AAE_NXZ 10046d30 f i libucrtd:output.obj
 0001:00045d50       ?type_case_u@?$output_processor@_WV?$stream_output_adapter@_W@__crt_stdio_output@@V?$positional_parameter_base@_WV?$stream_output_adapter@_W@__crt_stdio_output@@@2@@__crt_stdio_output@@AAE_NXZ 10046d50 f i libucrtd:output.obj
 0001:00045d70       ?type_case_u@?$output_processor@_WV?$stream_output_adapter@_W@__crt_stdio_output@@V?$standard_base@_WV?$stream_output_adapter@_W@__crt_stdio_output@@@2@@__crt_stdio_output@@AAE_NXZ 10046d70 f i libucrtd:output.obj
 0001:00045d90       ?type_case_u@?$output_processor@_WV?$string_output_adapter@_W@__crt_stdio_output@@V?$format_validation_base@_WV?$string_output_adapter@_W@__crt_stdio_output@@@2@@__crt_stdio_output@@AAE_NXZ 10046d90 f i libucrtd:output.obj
 0001:00045db0       ?type_case_u@?$output_processor@_WV?$string_output_adapter@_W@__crt_stdio_output@@V?$positional_parameter_base@_WV?$string_output_adapter@_W@__crt_stdio_output@@@2@@__crt_stdio_output@@AAE_NXZ 10046db0 f i libucrtd:output.obj
 0001:00045dd0       ?type_case_u@?$output_processor@_WV?$string_output_adapter@_W@__crt_stdio_output@@V?$standard_base@_WV?$string_output_adapter@_W@__crt_stdio_output@@@2@@__crt_stdio_output@@AAE_NXZ 10046dd0 f i libucrtd:output.obj
 0001:00045df0       ?type_case_x@?$output_processor@DV?$stream_output_adapter@D@__crt_stdio_output@@V?$format_validation_base@DV?$stream_output_adapter@D@__crt_stdio_output@@@2@@__crt_stdio_output@@AAE_NXZ 10046df0 f i libucrtd:output.obj
 0001:00045e10       ?type_case_x@?$output_processor@DV?$stream_output_adapter@D@__crt_stdio_output@@V?$positional_parameter_base@DV?$stream_output_adapter@D@__crt_stdio_output@@@2@@__crt_stdio_output@@AAE_NXZ 10046e10 f i libucrtd:output.obj
 0001:00045e30       ?type_case_x@?$output_processor@DV?$stream_output_adapter@D@__crt_stdio_output@@V?$standard_base@DV?$stream_output_adapter@D@__crt_stdio_output@@@2@@__crt_stdio_output@@AAE_NXZ 10046e30 f i libucrtd:output.obj
 0001:00045e50       ?type_case_x@?$output_processor@DV?$string_output_adapter@D@__crt_stdio_output@@V?$format_validation_base@DV?$string_output_adapter@D@__crt_stdio_output@@@2@@__crt_stdio_output@@AAE_NXZ 10046e50 f i libucrtd:output.obj
 0001:00045e70       ?type_case_x@?$output_processor@DV?$string_output_adapter@D@__crt_stdio_output@@V?$positional_parameter_base@DV?$string_output_adapter@D@__crt_stdio_output@@@2@@__crt_stdio_output@@AAE_NXZ 10046e70 f i libucrtd:output.obj
 0001:00045e90       ?type_case_x@?$output_processor@DV?$string_output_adapter@D@__crt_stdio_output@@V?$standard_base@DV?$string_output_adapter@D@__crt_stdio_output@@@2@@__crt_stdio_output@@AAE_NXZ 10046e90 f i libucrtd:output.obj
 0001:00045eb0       ?type_case_x@?$output_processor@_WV?$stream_output_adapter@_W@__crt_stdio_output@@V?$format_validation_base@_WV?$stream_output_adapter@_W@__crt_stdio_output@@@2@@__crt_stdio_output@@AAE_NXZ 10046eb0 f i libucrtd:output.obj
 0001:00045ed0       ?type_case_x@?$output_processor@_WV?$stream_output_adapter@_W@__crt_stdio_output@@V?$positional_parameter_base@_WV?$stream_output_adapter@_W@__crt_stdio_output@@@2@@__crt_stdio_output@@AAE_NXZ 10046ed0 f i libucrtd:output.obj
 0001:00045ef0       ?type_case_x@?$output_processor@_WV?$stream_output_adapter@_W@__crt_stdio_output@@V?$standard_base@_WV?$stream_output_adapter@_W@__crt_stdio_output@@@2@@__crt_stdio_output@@AAE_NXZ 10046ef0 f i libucrtd:output.obj
 0001:00045f10       ?type_case_x@?$output_processor@_WV?$string_output_adapter@_W@__crt_stdio_output@@V?$format_validation_base@_WV?$string_output_adapter@_W@__crt_stdio_output@@@2@@__crt_stdio_output@@AAE_NXZ 10046f10 f i libucrtd:output.obj
 0001:00045f30       ?type_case_x@?$output_processor@_WV?$string_output_adapter@_W@__crt_stdio_output@@V?$positional_parameter_base@_WV?$string_output_adapter@_W@__crt_stdio_output@@@2@@__crt_stdio_output@@AAE_NXZ 10046f30 f i libucrtd:output.obj
 0001:00045f50       ?type_case_x@?$output_processor@_WV?$string_output_adapter@_W@__crt_stdio_output@@V?$standard_base@_WV?$string_output_adapter@_W@__crt_stdio_output@@@2@@__crt_stdio_output@@AAE_NXZ 10046f50 f i libucrtd:output.obj
 0001:00045f70       ?unget@?$c_string_character_source@D@__crt_strtox@@QAEXD@Z 10046f70 f i libucrtd:output.obj
 0001:00046020       ?unget@?$c_string_character_source@_W@__crt_strtox@@QAEX_W@Z 10047020 f i libucrtd:output.obj
 0001:000460d0       ?unsafe_value@?$cached@H@__crt_cached_ptd_host@@QAEHXZ 100470d0 f i libucrtd:output.obj
 0001:000460f0       ?unsafe_value@?$cached@K@__crt_cached_ptd_host@@QAEKXZ 100470f0 f i libucrtd:output.obj
 0001:00046110       ?unset_flag@?$output_processor@DV?$stream_output_adapter@D@__crt_stdio_output@@V?$format_validation_base@DV?$stream_output_adapter@D@__crt_stdio_output@@@2@@__crt_stdio_output@@AAEXI@Z 10047110 f i libucrtd:output.obj
 0001:00046130       ?unset_flag@?$output_processor@DV?$stream_output_adapter@D@__crt_stdio_output@@V?$positional_parameter_base@DV?$stream_output_adapter@D@__crt_stdio_output@@@2@@__crt_stdio_output@@AAEXI@Z 10047130 f i libucrtd:output.obj
 0001:00046150       ?unset_flag@?$output_processor@DV?$stream_output_adapter@D@__crt_stdio_output@@V?$standard_base@DV?$stream_output_adapter@D@__crt_stdio_output@@@2@@__crt_stdio_output@@AAEXI@Z 10047150 f i libucrtd:output.obj
 0001:00046170       ?unset_flag@?$output_processor@DV?$string_output_adapter@D@__crt_stdio_output@@V?$format_validation_base@DV?$string_output_adapter@D@__crt_stdio_output@@@2@@__crt_stdio_output@@AAEXI@Z 10047170 f i libucrtd:output.obj
 0001:00046190       ?unset_flag@?$output_processor@DV?$string_output_adapter@D@__crt_stdio_output@@V?$positional_parameter_base@DV?$string_output_adapter@D@__crt_stdio_output@@@2@@__crt_stdio_output@@AAEXI@Z 10047190 f i libucrtd:output.obj
 0001:000461b0       ?unset_flag@?$output_processor@DV?$string_output_adapter@D@__crt_stdio_output@@V?$standard_base@DV?$string_output_adapter@D@__crt_stdio_output@@@2@@__crt_stdio_output@@AAEXI@Z 100471b0 f i libucrtd:output.obj
 0001:000461d0       ?unset_flag@?$output_processor@_WV?$stream_output_adapter@_W@__crt_stdio_output@@V?$format_validation_base@_WV?$stream_output_adapter@_W@__crt_stdio_output@@@2@@__crt_stdio_output@@AAEXI@Z 100471d0 f i libucrtd:output.obj
 0001:000461f0       ?unset_flag@?$output_processor@_WV?$stream_output_adapter@_W@__crt_stdio_output@@V?$positional_parameter_base@_WV?$stream_output_adapter@_W@__crt_stdio_output@@@2@@__crt_stdio_output@@AAEXI@Z 100471f0 f i libucrtd:output.obj
 0001:00046210       ?unset_flag@?$output_processor@_WV?$stream_output_adapter@_W@__crt_stdio_output@@V?$standard_base@_WV?$stream_output_adapter@_W@__crt_stdio_output@@@2@@__crt_stdio_output@@AAEXI@Z 10047210 f i libucrtd:output.obj
 0001:00046230       ?unset_flag@?$output_processor@_WV?$string_output_adapter@_W@__crt_stdio_output@@V?$format_validation_base@_WV?$string_output_adapter@_W@__crt_stdio_output@@@2@@__crt_stdio_output@@AAEXI@Z 10047230 f i libucrtd:output.obj
 0001:00046250       ?unset_flag@?$output_processor@_WV?$string_output_adapter@_W@__crt_stdio_output@@V?$positional_parameter_base@_WV?$string_output_adapter@_W@__crt_stdio_output@@@2@@__crt_stdio_output@@AAEXI@Z 10047250 f i libucrtd:output.obj
 0001:00046270       ?unset_flag@?$output_processor@_WV?$string_output_adapter@_W@__crt_stdio_output@@V?$standard_base@_WV?$string_output_adapter@_W@__crt_stdio_output@@@2@@__crt_stdio_output@@AAEXI@Z 10047270 f i libucrtd:output.obj
 0001:00046290       ?update_field_width@?$positional_parameter_base@DV?$stream_output_adapter@D@__crt_stdio_output@@@__crt_stdio_output@@IAE_NXZ 10047290 f i libucrtd:output.obj
 0001:00046420       ?update_field_width@?$positional_parameter_base@DV?$string_output_adapter@D@__crt_stdio_output@@@__crt_stdio_output@@IAE_NXZ 10047420 f i libucrtd:output.obj
 0001:000465b0       ?update_field_width@?$positional_parameter_base@_WV?$stream_output_adapter@_W@__crt_stdio_output@@@__crt_stdio_output@@IAE_NXZ 100475b0 f i libucrtd:output.obj
 0001:00046740       ?update_field_width@?$positional_parameter_base@_WV?$string_output_adapter@_W@__crt_stdio_output@@@__crt_stdio_output@@IAE_NXZ 10047740 f i libucrtd:output.obj
 0001:000468d0       ?update_field_width@?$standard_base@DV?$stream_output_adapter@D@__crt_stdio_output@@@__crt_stdio_output@@IAE_NXZ 100478d0 f i libucrtd:output.obj
 0001:00046900       ?update_field_width@?$standard_base@DV?$string_output_adapter@D@__crt_stdio_output@@@__crt_stdio_output@@IAE_NXZ 10047900 f i libucrtd:output.obj
 0001:00046930       ?update_field_width@?$standard_base@_WV?$stream_output_adapter@_W@__crt_stdio_output@@@__crt_stdio_output@@IAE_NXZ 10047930 f i libucrtd:output.obj
 0001:00046960       ?update_field_width@?$standard_base@_WV?$string_output_adapter@_W@__crt_stdio_output@@@__crt_stdio_output@@IAE_NXZ 10047960 f i libucrtd:output.obj
 0001:00046990       ?update_locale@__crt_cached_ptd_host@@AAEXXZ 10047990 f i libucrtd:output.obj
 0001:000469b0       ?update_locale_slow@__crt_cached_ptd_host@@AAEXXZ 100479b0 f i libucrtd:output.obj
 0001:00046a40       ?update_precision@?$positional_parameter_base@DV?$stream_output_adapter@D@__crt_stdio_output@@@__crt_stdio_output@@IAE_NXZ 10047a40 f i libucrtd:output.obj
 0001:00046bd0       ?update_precision@?$positional_parameter_base@DV?$string_output_adapter@D@__crt_stdio_output@@@__crt_stdio_output@@IAE_NXZ 10047bd0 f i libucrtd:output.obj
 0001:00046d60       ?update_precision@?$positional_parameter_base@_WV?$stream_output_adapter@_W@__crt_stdio_output@@@__crt_stdio_output@@IAE_NXZ 10047d60 f i libucrtd:output.obj
 0001:00046ef0       ?update_precision@?$positional_parameter_base@_WV?$string_output_adapter@_W@__crt_stdio_output@@@__crt_stdio_output@@IAE_NXZ 10047ef0 f i libucrtd:output.obj
 0001:00047080       ?update_precision@?$standard_base@DV?$stream_output_adapter@D@__crt_stdio_output@@@__crt_stdio_output@@IAE_NXZ 10048080 f i libucrtd:output.obj
 0001:000470b0       ?update_precision@?$standard_base@DV?$string_output_adapter@D@__crt_stdio_output@@@__crt_stdio_output@@IAE_NXZ 100480b0 f i libucrtd:output.obj
 0001:000470e0       ?update_precision@?$standard_base@_WV?$stream_output_adapter@_W@__crt_stdio_output@@@__crt_stdio_output@@IAE_NXZ 100480e0 f i libucrtd:output.obj
 0001:00047110       ?update_precision@?$standard_base@_WV?$string_output_adapter@_W@__crt_stdio_output@@@__crt_stdio_output@@IAE_NXZ 10048110 f i libucrtd:output.obj
 0001:00047140       ?valid@?$cached@H@__crt_cached_ptd_host@@QBE_NXZ 10048140 f i libucrtd:output.obj
 0001:00047160       ?valid@?$cached@K@__crt_cached_ptd_host@@QBE_NXZ 10048160 f i libucrtd:output.obj
 0001:00047180       ?valid@__crt_stdio_stream@@QBE_NXZ 10048180 f i libucrtd:output.obj
 0001:000471b0       ?validate@?$c_string_character_source@D@__crt_strtox@@QBE_NXZ 100481b0 f i libucrtd:output.obj
 0001:00047240       ?validate@?$c_string_character_source@_W@__crt_strtox@@QBE_NXZ 10048240 f i libucrtd:output.obj
 0001:000472d0       ?validate@?$stream_output_adapter@D@__crt_stdio_output@@QBE_NAAV__crt_cached_ptd_host@@@Z 100482d0 f i libucrtd:output.obj
 0001:00047390       ?validate@?$stream_output_adapter@_W@__crt_stdio_output@@QBE_NAAV__crt_cached_ptd_host@@@Z 10048390 f i libucrtd:output.obj
 0001:00047450       ?validate@?$string_output_adapter@D@__crt_stdio_output@@QBE_NAAV__crt_cached_ptd_host@@@Z 10048450 f i libucrtd:output.obj
 0001:000474f0       ?validate@?$string_output_adapter@_W@__crt_stdio_output@@QBE_NAAV__crt_cached_ptd_host@@@Z 100484f0 f i libucrtd:output.obj
 0001:00047590       ?validate_and_store_parameter_data@?$positional_parameter_base@DV?$stream_output_adapter@D@__crt_stdio_output@@@__crt_stdio_output@@AAE_NAAUparameter_data@12@W4parameter_type@12@DW4length_modifier@2@@Z 10048590 f i libucrtd:output.obj
 0001:00047680       ?validate_and_store_parameter_data@?$positional_parameter_base@DV?$string_output_adapter@D@__crt_stdio_output@@@__crt_stdio_output@@AAE_NAAUparameter_data@12@W4parameter_type@12@DW4length_modifier@2@@Z 10048680 f i libucrtd:output.obj
 0001:00047770       ?validate_and_store_parameter_data@?$positional_parameter_base@_WV?$stream_output_adapter@_W@__crt_stdio_output@@@__crt_stdio_output@@AAE_NAAUparameter_data@12@W4parameter_type@12@_WW4length_modifier@2@@Z 10048770 f i libucrtd:output.obj
 0001:00047860       ?validate_and_store_parameter_data@?$positional_parameter_base@_WV?$string_output_adapter@_W@__crt_stdio_output@@@__crt_stdio_output@@AAE_NAAUparameter_data@12@W4parameter_type@12@_WW4length_modifier@2@@Z 10048860 f i libucrtd:output.obj
 0001:00047950       ?validate_and_update_state_at_beginning_of_format_character@?$positional_parameter_base@DV?$stream_output_adapter@D@__crt_stdio_output@@@__crt_stdio_output@@IAE_NXZ 10048950 f i libucrtd:output.obj
 0001:00047b80       ?validate_and_update_state_at_beginning_of_format_character@?$positional_parameter_base@DV?$string_output_adapter@D@__crt_stdio_output@@@__crt_stdio_output@@IAE_NXZ 10048b80 f i libucrtd:output.obj
 0001:00047db0       ?validate_and_update_state_at_beginning_of_format_character@?$positional_parameter_base@_WV?$stream_output_adapter@_W@__crt_stdio_output@@@__crt_stdio_output@@IAE_NXZ 10048db0 f i libucrtd:output.obj
 0001:00047fe0       ?validate_and_update_state_at_beginning_of_format_character@?$positional_parameter_base@_WV?$string_output_adapter@_W@__crt_stdio_output@@@__crt_stdio_output@@IAE_NXZ 10048fe0 f i libucrtd:output.obj
 0001:00048210       ?validate_and_update_state_at_beginning_of_format_character@?$standard_base@DV?$stream_output_adapter@D@__crt_stdio_output@@@__crt_stdio_output@@IAE_NXZ 10049210 f i libucrtd:output.obj
 0001:00048220       ?validate_and_update_state_at_beginning_of_format_character@?$standard_base@DV?$string_output_adapter@D@__crt_stdio_output@@@__crt_stdio_output@@IAE_NXZ 10049220 f i libucrtd:output.obj
 0001:00048230       ?validate_and_update_state_at_beginning_of_format_character@?$standard_base@_WV?$stream_output_adapter@_W@__crt_stdio_output@@@__crt_stdio_output@@IAE_NXZ 10049230 f i libucrtd:output.obj
 0001:00048240       ?validate_and_update_state_at_beginning_of_format_character@?$standard_base@_WV?$string_output_adapter@_W@__crt_stdio_output@@@__crt_stdio_output@@IAE_NXZ 10049240 f i libucrtd:output.obj
 0001:00048250       ?validate_and_update_state_at_end_of_format_string@?$format_validation_base@DV?$stream_output_adapter@D@__crt_stdio_output@@@__crt_stdio_output@@IAE_NXZ 10049250 f i libucrtd:output.obj
 0001:00048300       ?validate_and_update_state_at_end_of_format_string@?$format_validation_base@DV?$string_output_adapter@D@__crt_stdio_output@@@__crt_stdio_output@@IAE_NXZ 10049300 f i libucrtd:output.obj
 0001:000483b0       ?validate_and_update_state_at_end_of_format_string@?$format_validation_base@_WV?$stream_output_adapter@_W@__crt_stdio_output@@@__crt_stdio_output@@IAE_NXZ 100493b0 f i libucrtd:output.obj
 0001:00048460       ?validate_and_update_state_at_end_of_format_string@?$format_validation_base@_WV?$string_output_adapter@_W@__crt_stdio_output@@@__crt_stdio_output@@IAE_NXZ 10049460 f i libucrtd:output.obj
 0001:00048510       ?validate_and_update_state_at_end_of_format_string@?$positional_parameter_base@DV?$stream_output_adapter@D@__crt_stdio_output@@@__crt_stdio_output@@IAE_NXZ 10049510 f i libucrtd:output.obj
 0001:000486c0       ?validate_and_update_state_at_end_of_format_string@?$positional_parameter_base@DV?$string_output_adapter@D@__crt_stdio_output@@@__crt_stdio_output@@IAE_NXZ 100496c0 f i libucrtd:output.obj
 0001:00048870       ?validate_and_update_state_at_end_of_format_string@?$positional_parameter_base@_WV?$stream_output_adapter@_W@__crt_stdio_output@@@__crt_stdio_output@@IAE_NXZ 10049870 f i libucrtd:output.obj
 0001:00048a20       ?validate_and_update_state_at_end_of_format_string@?$positional_parameter_base@_WV?$string_output_adapter@_W@__crt_stdio_output@@@__crt_stdio_output@@IAE_NXZ 10049a20 f i libucrtd:output.obj
 0001:00048bd0       ?validate_and_update_state_at_end_of_format_string@?$standard_base@DV?$stream_output_adapter@D@__crt_stdio_output@@@__crt_stdio_output@@IBE_NXZ 10049bd0 f i libucrtd:output.obj
 0001:00048be0       ?validate_and_update_state_at_end_of_format_string@?$standard_base@DV?$string_output_adapter@D@__crt_stdio_output@@@__crt_stdio_output@@IBE_NXZ 10049be0 f i libucrtd:output.obj
 0001:00048bf0       ?validate_and_update_state_at_end_of_format_string@?$standard_base@_WV?$stream_output_adapter@_W@__crt_stdio_output@@@__crt_stdio_output@@IBE_NXZ 10049bf0 f i libucrtd:output.obj
 0001:00048c00       ?validate_and_update_state_at_end_of_format_string@?$standard_base@_WV?$string_output_adapter@_W@__crt_stdio_output@@@__crt_stdio_output@@IBE_NXZ 10049c00 f i libucrtd:output.obj
 0001:00048c10       ?validate_state_for_type_case_a@?$positional_parameter_base@DV?$stream_output_adapter@D@__crt_stdio_output@@@__crt_stdio_output@@IAE_NXZ 10049c10 f i libucrtd:output.obj
 0001:00048d20       ?validate_state_for_type_case_a@?$positional_parameter_base@DV?$string_output_adapter@D@__crt_stdio_output@@@__crt_stdio_output@@IAE_NXZ 10049d20 f i libucrtd:output.obj
 0001:00048e30       ?validate_state_for_type_case_a@?$positional_parameter_base@_WV?$stream_output_adapter@_W@__crt_stdio_output@@@__crt_stdio_output@@IAE_NXZ 10049e30 f i libucrtd:output.obj
 0001:00048f40       ?validate_state_for_type_case_a@?$positional_parameter_base@_WV?$string_output_adapter@_W@__crt_stdio_output@@@__crt_stdio_output@@IAE_NXZ 10049f40 f i libucrtd:output.obj
 0001:00049050       ?validate_state_for_type_case_a@?$standard_base@DV?$stream_output_adapter@D@__crt_stdio_output@@@__crt_stdio_output@@IBE_NXZ 1004a050 f i libucrtd:output.obj
 0001:00049060       ?validate_state_for_type_case_a@?$standard_base@DV?$string_output_adapter@D@__crt_stdio_output@@@__crt_stdio_output@@IBE_NXZ 1004a060 f i libucrtd:output.obj
 0001:00049070       ?validate_state_for_type_case_a@?$standard_base@_WV?$stream_output_adapter@_W@__crt_stdio_output@@@__crt_stdio_output@@IBE_NXZ 1004a070 f i libucrtd:output.obj
 0001:00049080       ?validate_state_for_type_case_a@?$standard_base@_WV?$string_output_adapter@_W@__crt_stdio_output@@@__crt_stdio_output@@IBE_NXZ 1004a080 f i libucrtd:output.obj
 0001:00049090       ?validate_stream_is_ansi_if_required@?$__acrt_stdio_char_traits@D@@SA_NQAU_iobuf@@@Z 1004a090 f i libucrtd:output.obj
 0001:000491c0       ?validate_stream_is_ansi_if_required@?$__acrt_stdio_char_traits@_W@@SA_NQAU_iobuf@@@Z 1004a1c0 f i libucrtd:output.obj
 0001:000491d0       ?wide_character_to_digit@__crt_strtox@@YAH_W@Z 1004a1d0 f i libucrtd:output.obj
 0001:00049500       ?wide_null_string@?$output_processor@DV?$stream_output_adapter@D@__crt_stdio_output@@V?$format_validation_base@DV?$stream_output_adapter@D@__crt_stdio_output@@@2@@__crt_stdio_output@@CAPA_WXZ 1004a500 f i libucrtd:output.obj
 0001:00049510       ?wide_null_string@?$output_processor@DV?$stream_output_adapter@D@__crt_stdio_output@@V?$positional_parameter_base@DV?$stream_output_adapter@D@__crt_stdio_output@@@2@@__crt_stdio_output@@CAPA_WXZ 1004a510 f i libucrtd:output.obj
 0001:00049520       ?wide_null_string@?$output_processor@DV?$stream_output_adapter@D@__crt_stdio_output@@V?$standard_base@DV?$stream_output_adapter@D@__crt_stdio_output@@@2@@__crt_stdio_output@@CAPA_WXZ 1004a520 f i libucrtd:output.obj
 0001:00049530       ?wide_null_string@?$output_processor@DV?$string_output_adapter@D@__crt_stdio_output@@V?$format_validation_base@DV?$string_output_adapter@D@__crt_stdio_output@@@2@@__crt_stdio_output@@CAPA_WXZ 1004a530 f i libucrtd:output.obj
 0001:00049540       ?wide_null_string@?$output_processor@DV?$string_output_adapter@D@__crt_stdio_output@@V?$positional_parameter_base@DV?$string_output_adapter@D@__crt_stdio_output@@@2@@__crt_stdio_output@@CAPA_WXZ 1004a540 f i libucrtd:output.obj
 0001:00049550       ?wide_null_string@?$output_processor@DV?$string_output_adapter@D@__crt_stdio_output@@V?$standard_base@DV?$string_output_adapter@D@__crt_stdio_output@@@2@@__crt_stdio_output@@CAPA_WXZ 1004a550 f i libucrtd:output.obj
 0001:00049560       ?wide_null_string@?$output_processor@_WV?$stream_output_adapter@_W@__crt_stdio_output@@V?$format_validation_base@_WV?$stream_output_adapter@_W@__crt_stdio_output@@@2@@__crt_stdio_output@@CAPA_WXZ 1004a560 f i libucrtd:output.obj
 0001:00049570       ?wide_null_string@?$output_processor@_WV?$stream_output_adapter@_W@__crt_stdio_output@@V?$positional_parameter_base@_WV?$stream_output_adapter@_W@__crt_stdio_output@@@2@@__crt_stdio_output@@CAPA_WXZ 1004a570 f i libucrtd:output.obj
 0001:00049580       ?wide_null_string@?$output_processor@_WV?$stream_output_adapter@_W@__crt_stdio_output@@V?$standard_base@_WV?$stream_output_adapter@_W@__crt_stdio_output@@@2@@__crt_stdio_output@@CAPA_WXZ 1004a580 f i libucrtd:output.obj
 0001:00049590       ?wide_null_string@?$output_processor@_WV?$string_output_adapter@_W@__crt_stdio_output@@V?$format_validation_base@_WV?$string_output_adapter@_W@__crt_stdio_output@@@2@@__crt_stdio_output@@CAPA_WXZ 1004a590 f i libucrtd:output.obj
 0001:000495a0       ?wide_null_string@?$output_processor@_WV?$string_output_adapter@_W@__crt_stdio_output@@V?$positional_parameter_base@_WV?$string_output_adapter@_W@__crt_stdio_output@@@2@@__crt_stdio_output@@CAPA_WXZ 1004a5a0 f i libucrtd:output.obj
 0001:000495b0       ?wide_null_string@?$output_processor@_WV?$string_output_adapter@_W@__crt_stdio_output@@V?$standard_base@_WV?$string_output_adapter@_W@__crt_stdio_output@@@2@@__crt_stdio_output@@CAPA_WXZ 1004a5b0 f i libucrtd:output.obj
 0001:000495c0       ?write_character@?$output_adapter_common@DV?$stream_output_adapter@D@__crt_stdio_output@@@__crt_stdio_output@@QBEXDQAHAAV__crt_cached_ptd_host@@@Z 1004a5c0 f i libucrtd:output.obj
 0001:00049600       ?write_character@?$output_adapter_common@_WV?$stream_output_adapter@_W@__crt_stdio_output@@@__crt_stdio_output@@QBEX_WQAHAAV__crt_cached_ptd_host@@@Z 1004a600 f i libucrtd:output.obj
 0001:00049640       ?write_character@?$string_output_adapter@D@__crt_stdio_output@@QBE_NDQAHAAV__crt_cached_ptd_host@@@Z 1004a640 f i libucrtd:output.obj
 0001:000496d0       ?write_character@?$string_output_adapter@_W@__crt_stdio_output@@QBE_N_WQAHAAV__crt_cached_ptd_host@@@Z 1004a6d0 f i libucrtd:output.obj
 0001:00049770       ?write_character_without_count_update@?$stream_output_adapter@D@__crt_stdio_output@@QBE_NDAAV__crt_cached_ptd_host@@@Z 1004a770 f i libucrtd:output.obj
 0001:000497e0       ?write_character_without_count_update@?$stream_output_adapter@_W@__crt_stdio_output@@QBE_N_WAAV__crt_cached_ptd_host@@@Z 1004a7e0 f i libucrtd:output.obj
 0001:00049850       ?write_stored_string_tchar@?$output_processor@DV?$stream_output_adapter@D@__crt_stdio_output@@V?$format_validation_base@DV?$stream_output_adapter@D@__crt_stdio_output@@@2@@__crt_stdio_output@@AAE_ND@Z 1004a850 f i libucrtd:output.obj
 0001:00049970       ?write_stored_string_tchar@?$output_processor@DV?$stream_output_adapter@D@__crt_stdio_output@@V?$positional_parameter_base@DV?$stream_output_adapter@D@__crt_stdio_output@@@2@@__crt_stdio_output@@AAE_ND@Z 1004a970 f i libucrtd:output.obj
 0001:00049a90       ?write_stored_string_tchar@?$output_processor@DV?$stream_output_adapter@D@__crt_stdio_output@@V?$standard_base@DV?$stream_output_adapter@D@__crt_stdio_output@@@2@@__crt_stdio_output@@AAE_ND@Z 1004aa90 f i libucrtd:output.obj
 0001:00049bb0       ?write_stored_string_tchar@?$output_processor@DV?$string_output_adapter@D@__crt_stdio_output@@V?$format_validation_base@DV?$string_output_adapter@D@__crt_stdio_output@@@2@@__crt_stdio_output@@AAE_ND@Z 1004abb0 f i libucrtd:output.obj
 0001:00049cd0       ?write_stored_string_tchar@?$output_processor@DV?$string_output_adapter@D@__crt_stdio_output@@V?$positional_parameter_base@DV?$string_output_adapter@D@__crt_stdio_output@@@2@@__crt_stdio_output@@AAE_ND@Z 1004acd0 f i libucrtd:output.obj
 0001:00049df0       ?write_stored_string_tchar@?$output_processor@DV?$string_output_adapter@D@__crt_stdio_output@@V?$standard_base@DV?$string_output_adapter@D@__crt_stdio_output@@@2@@__crt_stdio_output@@AAE_ND@Z 1004adf0 f i libucrtd:output.obj
 0001:00049f10       ?write_stored_string_tchar@?$output_processor@_WV?$stream_output_adapter@_W@__crt_stdio_output@@V?$format_validation_base@_WV?$stream_output_adapter@_W@__crt_stdio_output@@@2@@__crt_stdio_output@@AAE_N_W@Z 1004af10 f i libucrtd:output.obj
 0001:0004a020       ?write_stored_string_tchar@?$output_processor@_WV?$stream_output_adapter@_W@__crt_stdio_output@@V?$positional_parameter_base@_WV?$stream_output_adapter@_W@__crt_stdio_output@@@2@@__crt_stdio_output@@AAE_N_W@Z 1004b020 f i libucrtd:output.obj
 0001:0004a130       ?write_stored_string_tchar@?$output_processor@_WV?$stream_output_adapter@_W@__crt_stdio_output@@V?$standard_base@_WV?$stream_output_adapter@_W@__crt_stdio_output@@@2@@__crt_stdio_output@@AAE_N_W@Z 1004b130 f i libucrtd:output.obj
 0001:0004a240       ?write_stored_string_tchar@?$output_processor@_WV?$string_output_adapter@_W@__crt_stdio_output@@V?$format_validation_base@_WV?$string_output_adapter@_W@__crt_stdio_output@@@2@@__crt_stdio_output@@AAE_N_W@Z 1004b240 f i libucrtd:output.obj
 0001:0004a350       ?write_stored_string_tchar@?$output_processor@_WV?$string_output_adapter@_W@__crt_stdio_output@@V?$positional_parameter_base@_WV?$string_output_adapter@_W@__crt_stdio_output@@@2@@__crt_stdio_output@@AAE_N_W@Z 1004b350 f i libucrtd:output.obj
 0001:0004a460       ?write_stored_string_tchar@?$output_processor@_WV?$string_output_adapter@_W@__crt_stdio_output@@V?$standard_base@_WV?$string_output_adapter@_W@__crt_stdio_output@@@2@@__crt_stdio_output@@AAE_N_W@Z 1004b460 f i libucrtd:output.obj
 0001:0004a570       ?write_string@?$stream_output_adapter@D@__crt_stdio_output@@QBEXQBDHQAHAAV__crt_cached_ptd_host@@@Z 1004b570 f i libucrtd:output.obj
 0001:0004a5d0       ?write_string@?$stream_output_adapter@_W@__crt_stdio_output@@QBEXQB_WHQAHAAV__crt_cached_ptd_host@@@Z 1004b5d0 f i libucrtd:output.obj
 0001:0004a630       ?write_string@?$string_output_adapter@D@__crt_stdio_output@@QBEXQBDHQAHAAV__crt_cached_ptd_host@@@Z 1004b630 f i libucrtd:output.obj
 0001:0004a730       ?write_string@?$string_output_adapter@_W@__crt_stdio_output@@QBEXQB_WHQAHAAV__crt_cached_ptd_host@@@Z 1004b730 f i libucrtd:output.obj
 0001:0004a840       ?write_string_impl@?$output_adapter_common@DV?$stream_output_adapter@D@__crt_stdio_output@@@__crt_stdio_output@@IBEXQBDHQAHAAV__crt_cached_ptd_host@@@Z 1004b840 f i libucrtd:output.obj
 0001:0004a900       ?write_string_impl@?$output_adapter_common@_WV?$stream_output_adapter@_W@__crt_stdio_output@@@__crt_stdio_output@@IBEXQB_WHQAHAAV__crt_cached_ptd_host@@@Z 1004b900 f i libucrtd:output.obj
 0001:0004a9c0       ___acrt_disable_global_locale_sync 1004b9c0 f i libucrtd:output.obj
 0001:0004a9e0       ___acrt_enable_global_locale_sync 1004b9e0 f i libucrtd:output.obj
 0001:0004aa00       ___acrt_isleadbyte_l_noupdate 1004ba00 f i libucrtd:output.obj
 0001:0004aa20       ___acrt_locale_changed     1004ba20 f i libucrtd:output.obj
 0001:0004aa50       ___acrt_locale_get_ctype_array_value 1004ba50 f i libucrtd:output.obj
 0001:0004aa80       ___ascii_iswalpha          1004ba80 f i libucrtd:output.obj
 0001:0004aac0       ___ascii_toupper           1004bac0 f i libucrtd:output.obj
 0001:0004aae0       ___ascii_towupper          1004bae0 f i libucrtd:output.obj
 0001:0004ab00       ___stdio_common_vfprintf   1004bb00 f   libucrtd:output.obj
 0001:0004ab50       ___stdio_common_vfprintf_p 1004bb50 f   libucrtd:output.obj
 0001:0004aba0       ___stdio_common_vfprintf_s 1004bba0 f   libucrtd:output.obj
 0001:0004abf0       ___stdio_common_vfwprintf  1004bbf0 f   libucrtd:output.obj
 0001:0004ac40       ___stdio_common_vfwprintf_p 1004bc40 f   libucrtd:output.obj
 0001:0004ac90       ___stdio_common_vfwprintf_s 1004bc90 f   libucrtd:output.obj
 0001:0004ace0       ___stdio_common_vsnprintf_s 1004bce0 f   libucrtd:output.obj
 0001:0004ad30       ___stdio_common_vsnwprintf_s 1004bd30 f   libucrtd:output.obj
 0001:0004ad80       ___stdio_common_vsprintf   1004bd80 f   libucrtd:output.obj
 0001:0004add0       ___stdio_common_vsprintf_p 1004bdd0 f   libucrtd:output.obj
 0001:0004ae20       ___stdio_common_vsprintf_s 1004be20 f   libucrtd:output.obj
 0001:0004ae70       ___stdio_common_vswprintf  1004be70 f   libucrtd:output.obj
 0001:0004aec0       ___stdio_common_vswprintf_p 1004bec0 f   libucrtd:output.obj
 0001:0004af10       ___stdio_common_vswprintf_s 1004bf10 f   libucrtd:output.obj
 0001:0004af60       __ctype_fast_check_internal 1004bf60 f i libucrtd:output.obj
 0001:0004af80       __isdigit_fast_internal    1004bf80 f i libucrtd:output.obj
 0001:0004afa0       __tolower_fast_internal    1004bfa0 f i libucrtd:output.obj
 0001:0004afc0       ??$?0ABV?$console_output_adapter@D@__crt_stdio_output@@AB_KABQBDAAV__crt_cached_ptd_host@@ABQAD@?$format_validation_base@DV?$console_output_adapter@D@__crt_stdio_output@@@__crt_stdio_output@@IAE@ABV?$console_output_adapter@D@1@AB_KABQBDAAV__crt_cached_ptd_host@@ABQAD@Z 1004bfc0 f i libucrtd:cprintf.obj
 0001:0004aff0       ??$?0ABV?$console_output_adapter@D@__crt_stdio_output@@AB_KABQBDAAV__crt_cached_ptd_host@@ABQAD@?$positional_parameter_base@DV?$console_output_adapter@D@__crt_stdio_output@@@__crt_stdio_output@@IAE@ABV?$console_output_adapter@D@1@AB_KABQBDAAV__crt_cached_ptd_host@@ABQAD@Z 1004bff0 f i libucrtd:cprintf.obj
 0001:0004b070       ??$?0ABV?$console_output_adapter@D@__crt_stdio_output@@AB_KABQBDAAV__crt_cached_ptd_host@@ABQAD@?$standard_base@DV?$console_output_adapter@D@__crt_stdio_output@@@__crt_stdio_output@@IAE@ABV?$console_output_adapter@D@1@AB_KABQBDAAV__crt_cached_ptd_host@@ABQAD@Z 1004c070 f i libucrtd:cprintf.obj
 0001:0004b0c0       ??$?0ABV?$console_output_adapter@_W@__crt_stdio_output@@AB_KABQB_WAAV__crt_cached_ptd_host@@ABQAD@?$format_validation_base@_WV?$console_output_adapter@_W@__crt_stdio_output@@@__crt_stdio_output@@IAE@ABV?$console_output_adapter@_W@1@AB_KABQB_WAAV__crt_cached_ptd_host@@ABQAD@Z 1004c0c0 f i libucrtd:cprintf.obj
 0001:0004b0f0       ??$?0ABV?$console_output_adapter@_W@__crt_stdio_output@@AB_KABQB_WAAV__crt_cached_ptd_host@@ABQAD@?$positional_parameter_base@_WV?$console_output_adapter@_W@__crt_stdio_output@@@__crt_stdio_output@@IAE@ABV?$console_output_adapter@_W@1@AB_KABQB_WAAV__crt_cached_ptd_host@@ABQAD@Z 1004c0f0 f i libucrtd:cprintf.obj
 0001:0004b170       ??$?0ABV?$console_output_adapter@_W@__crt_stdio_output@@AB_KABQB_WAAV__crt_cached_ptd_host@@ABQAD@?$standard_base@_WV?$console_output_adapter@_W@__crt_stdio_output@@@__crt_stdio_output@@IAE@ABV?$console_output_adapter@_W@1@AB_KABQB_WAAV__crt_cached_ptd_host@@ABQAD@Z 1004c170 f i libucrtd:cprintf.obj
 0001:0004b460       ??$extract_argument_from_va_list@C_J@?$positional_parameter_base@DV?$console_output_adapter@D@__crt_stdio_output@@@__crt_stdio_output@@IAE_NAA_J@Z 1004c460 f i libucrtd:cprintf.obj
 0001:0004b5c0       ??$extract_argument_from_va_list@C_J@?$positional_parameter_base@_WV?$console_output_adapter@_W@__crt_stdio_output@@@__crt_stdio_output@@IAE_NAA_J@Z 1004c5c0 f i libucrtd:cprintf.obj
 0001:0004b730       ??$extract_argument_from_va_list@C_J@?$standard_base@DV?$console_output_adapter@D@__crt_stdio_output@@@__crt_stdio_output@@IAE_NAA_J@Z 1004c730 f i libucrtd:cprintf.obj
 0001:0004b760       ??$extract_argument_from_va_list@C_J@?$standard_base@_WV?$console_output_adapter@_W@__crt_stdio_output@@@__crt_stdio_output@@IAE_NAA_J@Z 1004c760 f i libucrtd:cprintf.obj
 0001:0004b790       ??$extract_argument_from_va_list@E_J@?$positional_parameter_base@DV?$console_output_adapter@D@__crt_stdio_output@@@__crt_stdio_output@@IAE_NAA_J@Z 1004c790 f i libucrtd:cprintf.obj
 0001:0004b8f0       ??$extract_argument_from_va_list@E_J@?$positional_parameter_base@_WV?$console_output_adapter@_W@__crt_stdio_output@@@__crt_stdio_output@@IAE_NAA_J@Z 1004c8f0 f i libucrtd:cprintf.obj
 0001:0004ba60       ??$extract_argument_from_va_list@E_J@?$standard_base@DV?$console_output_adapter@D@__crt_stdio_output@@@__crt_stdio_output@@IAE_NAA_J@Z 1004ca60 f i libucrtd:cprintf.obj
 0001:0004ba90       ??$extract_argument_from_va_list@E_J@?$standard_base@_WV?$console_output_adapter@_W@__crt_stdio_output@@@__crt_stdio_output@@IAE_NAA_J@Z 1004ca90 f i libucrtd:cprintf.obj
 0001:0004bac0       ??$extract_argument_from_va_list@F_J@?$positional_parameter_base@DV?$console_output_adapter@D@__crt_stdio_output@@@__crt_stdio_output@@IAE_NAA_J@Z 1004cac0 f i libucrtd:cprintf.obj
 0001:0004bc20       ??$extract_argument_from_va_list@F_J@?$positional_parameter_base@_WV?$console_output_adapter@_W@__crt_stdio_output@@@__crt_stdio_output@@IAE_NAA_J@Z 1004cc20 f i libucrtd:cprintf.obj
 0001:0004bd80       ??$extract_argument_from_va_list@F_J@?$standard_base@DV?$console_output_adapter@D@__crt_stdio_output@@@__crt_stdio_output@@IAE_NAA_J@Z 1004cd80 f i libucrtd:cprintf.obj
 0001:0004bdb0       ??$extract_argument_from_va_list@F_J@?$standard_base@_WV?$console_output_adapter@_W@__crt_stdio_output@@@__crt_stdio_output@@IAE_NAA_J@Z 1004cdb0 f i libucrtd:cprintf.obj
 0001:0004bde0       ??$extract_argument_from_va_list@GD@?$positional_parameter_base@DV?$console_output_adapter@D@__crt_stdio_output@@@__crt_stdio_output@@IAE_NAAD@Z 1004cde0 f i libucrtd:cprintf.obj
 0001:0004bf40       ??$extract_argument_from_va_list@GD@?$standard_base@DV?$console_output_adapter@D@__crt_stdio_output@@@__crt_stdio_output@@IAE_NAAD@Z 1004cf40 f i libucrtd:cprintf.obj
 0001:0004bf70       ??$extract_argument_from_va_list@G_J@?$positional_parameter_base@DV?$console_output_adapter@D@__crt_stdio_output@@@__crt_stdio_output@@IAE_NAA_J@Z 1004cf70 f i libucrtd:cprintf.obj
 0001:0004c0d0       ??$extract_argument_from_va_list@G_J@?$positional_parameter_base@_WV?$console_output_adapter@_W@__crt_stdio_output@@@__crt_stdio_output@@IAE_NAA_J@Z 1004d0d0 f i libucrtd:cprintf.obj
 0001:0004c240       ??$extract_argument_from_va_list@G_J@?$standard_base@DV?$console_output_adapter@D@__crt_stdio_output@@@__crt_stdio_output@@IAE_NAA_J@Z 1004d240 f i libucrtd:cprintf.obj
 0001:0004c270       ??$extract_argument_from_va_list@G_J@?$standard_base@_WV?$console_output_adapter@_W@__crt_stdio_output@@@__crt_stdio_output@@IAE_NAA_J@Z 1004d270 f i libucrtd:cprintf.obj
 0001:0004c2a0       ??$extract_argument_from_va_list@H_J@?$positional_parameter_base@DV?$console_output_adapter@D@__crt_stdio_output@@@__crt_stdio_output@@IAE_NAA_J@Z 1004d2a0 f i libucrtd:cprintf.obj
 0001:0004c400       ??$extract_argument_from_va_list@H_J@?$positional_parameter_base@_WV?$console_output_adapter@_W@__crt_stdio_output@@@__crt_stdio_output@@IAE_NAA_J@Z 1004d400 f i libucrtd:cprintf.obj
 0001:0004c560       ??$extract_argument_from_va_list@H_J@?$standard_base@DV?$console_output_adapter@D@__crt_stdio_output@@@__crt_stdio_output@@IAE_NAA_J@Z 1004d560 f i libucrtd:cprintf.obj
 0001:0004c590       ??$extract_argument_from_va_list@H_J@?$standard_base@_WV?$console_output_adapter@_W@__crt_stdio_output@@@__crt_stdio_output@@IAE_NAA_J@Z 1004d590 f i libucrtd:cprintf.obj
 0001:0004c5c0       ??$extract_argument_from_va_list@I_J@?$positional_parameter_base@DV?$console_output_adapter@D@__crt_stdio_output@@@__crt_stdio_output@@IAE_NAA_J@Z 1004d5c0 f i libucrtd:cprintf.obj
 0001:0004c720       ??$extract_argument_from_va_list@I_J@?$positional_parameter_base@_WV?$console_output_adapter@_W@__crt_stdio_output@@@__crt_stdio_output@@IAE_NAA_J@Z 1004d720 f i libucrtd:cprintf.obj
 0001:0004c880       ??$extract_argument_from_va_list@I_J@?$standard_base@DV?$console_output_adapter@D@__crt_stdio_output@@@__crt_stdio_output@@IAE_NAA_J@Z 1004d880 f i libucrtd:cprintf.obj
 0001:0004c8b0       ??$extract_argument_from_va_list@I_J@?$standard_base@_WV?$console_output_adapter@_W@__crt_stdio_output@@@__crt_stdio_output@@IAE_NAA_J@Z 1004d8b0 f i libucrtd:cprintf.obj
 0001:0004c8e0       ??$extract_argument_from_va_list@PADPAD@?$positional_parameter_base@DV?$console_output_adapter@D@__crt_stdio_output@@@__crt_stdio_output@@IAE_NAAPAD@Z 1004d8e0 f i libucrtd:cprintf.obj
 0001:0004ca40       ??$extract_argument_from_va_list@PADPAD@?$positional_parameter_base@_WV?$console_output_adapter@_W@__crt_stdio_output@@@__crt_stdio_output@@IAE_NAAPAD@Z 1004da40 f i libucrtd:cprintf.obj
 0001:0004cba0       ??$extract_argument_from_va_list@PADPAD@?$standard_base@DV?$console_output_adapter@D@__crt_stdio_output@@@__crt_stdio_output@@IAE_NAAPAD@Z 1004dba0 f i libucrtd:cprintf.obj
 0001:0004cbd0       ??$extract_argument_from_va_list@PADPAD@?$standard_base@_WV?$console_output_adapter@_W@__crt_stdio_output@@@__crt_stdio_output@@IAE_NAAPAD@Z 1004dbd0 f i libucrtd:cprintf.obj
 0001:0004cc00       ??$extract_argument_from_va_list@PAUansi_string@?1??type_case_Z@?$output_processor@DV?$console_output_adapter@D@__crt_stdio_output@@V?$format_validation_base@DV?$console_output_adapter@D@__crt_stdio_output@@@2@@__crt_stdio_output@@AAE_NXZ@PAU1?1??234@AAE_NXZ@@?$standard_base@DV?$console_output_adapter@D@__crt_stdio_output@@@__crt_stdio_output@@IAE_NAAPAUansi_string@?1??type_case_Z@?$output_processor@DV?$console_output_adapter@D@__crt_stdio_output@@V?$format_validation_base@DV?$console_output_adapter@D@__crt_stdio_output@@@2@@1@AAE_NXZ@@Z 1004dc00 f i libucrtd:cprintf.obj
 0001:0004cc30       ??$extract_argument_from_va_list@PAUansi_string@?1??type_case_Z@?$output_processor@DV?$console_output_adapter@D@__crt_stdio_output@@V?$positional_parameter_base@DV?$console_output_adapter@D@__crt_stdio_output@@@2@@__crt_stdio_output@@AAE_NXZ@PAU1?1??234@AAE_NXZ@@?$positional_parameter_base@DV?$console_output_adapter@D@__crt_stdio_output@@@__crt_stdio_output@@IAE_NAAPAUansi_string@?1??type_case_Z@?$output_processor@DV?$console_output_adapter@D@__crt_stdio_output@@V?$positional_parameter_base@DV?$console_output_adapter@D@__crt_stdio_output@@@2@@1@AAE_NXZ@@Z 1004dc30 f i libucrtd:cprintf.obj
 0001:0004cd90       ??$extract_argument_from_va_list@PAUansi_string@?1??type_case_Z@?$output_processor@DV?$console_output_adapter@D@__crt_stdio_output@@V?$positional_parameter_base@DV?$console_output_adapter@D@__crt_stdio_output@@@2@@__crt_stdio_output@@AAE_NXZ@PAU1?1??234@AAE_NXZ@@?$standard_base@DV?$console_output_adapter@D@__crt_stdio_output@@@__crt_stdio_output@@IAE_NAAPAUansi_string@?1??type_case_Z@?$output_processor@DV?$console_output_adapter@D@__crt_stdio_output@@V?$positional_parameter_base@DV?$console_output_adapter@D@__crt_stdio_output@@@2@@1@AAE_NXZ@@Z 1004dd90 f i libucrtd:cprintf.obj
 0001:0004cdc0       ??$extract_argument_from_va_list@PAUansi_string@?1??type_case_Z@?$output_processor@DV?$console_output_adapter@D@__crt_stdio_output@@V?$standard_base@DV?$console_output_adapter@D@__crt_stdio_output@@@2@@__crt_stdio_output@@AAE_NXZ@PAU1?1??234@AAE_NXZ@@?$standard_base@DV?$console_output_adapter@D@__crt_stdio_output@@@__crt_stdio_output@@IAE_NAAPAUansi_string@?1??type_case_Z@?$output_processor@DV?$console_output_adapter@D@__crt_stdio_output@@V?$standard_base@DV?$console_output_adapter@D@__crt_stdio_output@@@2@@1@AAE_NXZ@@Z 1004ddc0 f i libucrtd:cprintf.obj
 0001:0004cdf0       ??$extract_argument_from_va_list@PAUansi_string@?1??type_case_Z@?$output_processor@_WV?$console_output_adapter@_W@__crt_stdio_output@@V?$format_validation_base@_WV?$console_output_adapter@_W@__crt_stdio_output@@@2@@__crt_stdio_output@@AAE_NXZ@PAU1?1??234@AAE_NXZ@@?$standard_base@_WV?$console_output_adapter@_W@__crt_stdio_output@@@__crt_stdio_output@@IAE_NAAPAUansi_string@?1??type_case_Z@?$output_processor@_WV?$console_output_adapter@_W@__crt_stdio_output@@V?$format_validation_base@_WV?$console_output_adapter@_W@__crt_stdio_output@@@2@@1@AAE_NXZ@@Z 1004ddf0 f i libucrtd:cprintf.obj
 0001:0004ce20       ??$extract_argument_from_va_list@PAUansi_string@?1??type_case_Z@?$output_processor@_WV?$console_output_adapter@_W@__crt_stdio_output@@V?$positional_parameter_base@_WV?$console_output_adapter@_W@__crt_stdio_output@@@2@@__crt_stdio_output@@AAE_NXZ@PAU1?1??234@AAE_NXZ@@?$positional_parameter_base@_WV?$console_output_adapter@_W@__crt_stdio_output@@@__crt_stdio_output@@IAE_NAAPAUansi_string@?1??type_case_Z@?$output_processor@_WV?$console_output_adapter@_W@__crt_stdio_output@@V?$positional_parameter_base@_WV?$console_output_adapter@_W@__crt_stdio_output@@@2@@1@AAE_NXZ@@Z 1004de20 f i libucrtd:cprintf.obj
 0001:0004cf80       ??$extract_argument_from_va_list@PAUansi_string@?1??type_case_Z@?$output_processor@_WV?$console_output_adapter@_W@__crt_stdio_output@@V?$positional_parameter_base@_WV?$console_output_adapter@_W@__crt_stdio_output@@@2@@__crt_stdio_output@@AAE_NXZ@PAU1?1??234@AAE_NXZ@@?$standard_base@_WV?$console_output_adapter@_W@__crt_stdio_output@@@__crt_stdio_output@@IAE_NAAPAUansi_string@?1??type_case_Z@?$output_processor@_WV?$console_output_adapter@_W@__crt_stdio_output@@V?$positional_parameter_base@_WV?$console_output_adapter@_W@__crt_stdio_output@@@2@@1@AAE_NXZ@@Z 1004df80 f i libucrtd:cprintf.obj
 0001:0004cfb0       ??$extract_argument_from_va_list@PAUansi_string@?1??type_case_Z@?$output_processor@_WV?$console_output_adapter@_W@__crt_stdio_output@@V?$standard_base@_WV?$console_output_adapter@_W@__crt_stdio_output@@@2@@__crt_stdio_output@@AAE_NXZ@PAU1?1??234@AAE_NXZ@@?$standard_base@_WV?$console_output_adapter@_W@__crt_stdio_output@@@__crt_stdio_output@@IAE_NAAPAUansi_string@?1??type_case_Z@?$output_processor@_WV?$console_output_adapter@_W@__crt_stdio_output@@V?$standard_base@_WV?$console_output_adapter@_W@__crt_stdio_output@@@2@@1@AAE_NXZ@@Z 1004dfb0 f i libucrtd:cprintf.obj
 0001:0004cfe0       ??$extract_argument_from_va_list@PAXPAX@?$positional_parameter_base@DV?$console_output_adapter@D@__crt_stdio_output@@@__crt_stdio_output@@IAE_NAAPAX@Z 1004dfe0 f i libucrtd:cprintf.obj
 0001:0004d140       ??$extract_argument_from_va_list@PAXPAX@?$positional_parameter_base@_WV?$console_output_adapter@_W@__crt_stdio_output@@@__crt_stdio_output@@IAE_NAAPAX@Z 1004e140 f i libucrtd:cprintf.obj
 0001:0004d2a0       ??$extract_argument_from_va_list@PAXPAX@?$standard_base@DV?$console_output_adapter@D@__crt_stdio_output@@@__crt_stdio_output@@IAE_NAAPAX@Z 1004e2a0 f i libucrtd:cprintf.obj
 0001:0004d2d0       ??$extract_argument_from_va_list@PAXPAX@?$standard_base@_WV?$console_output_adapter@_W@__crt_stdio_output@@@__crt_stdio_output@@IAE_NAAPAX@Z 1004e2d0 f i libucrtd:cprintf.obj
 0001:0004d300       ??$extract_argument_from_va_list@U_CRT_DOUBLE@@U1@@?$positional_parameter_base@DV?$console_output_adapter@D@__crt_stdio_output@@@__crt_stdio_output@@IAE_NAAU_CRT_DOUBLE@@@Z 1004e300 f i libucrtd:cprintf.obj
 0001:0004d490       ??$extract_argument_from_va_list@U_CRT_DOUBLE@@U1@@?$positional_parameter_base@_WV?$console_output_adapter@_W@__crt_stdio_output@@@__crt_stdio_output@@IAE_NAAU_CRT_DOUBLE@@@Z 1004e490 f i libucrtd:cprintf.obj
 0001:0004d620       ??$extract_argument_from_va_list@U_CRT_DOUBLE@@U1@@?$standard_base@DV?$console_output_adapter@D@__crt_stdio_output@@@__crt_stdio_output@@IAE_NAAU_CRT_DOUBLE@@@Z 1004e620 f i libucrtd:cprintf.obj
 0001:0004d670       ??$extract_argument_from_va_list@U_CRT_DOUBLE@@U1@@?$standard_base@_WV?$console_output_adapter@_W@__crt_stdio_output@@@__crt_stdio_output@@IAE_NAAU_CRT_DOUBLE@@@Z 1004e670 f i libucrtd:cprintf.obj
 0001:0004d6c0       ??$extract_argument_from_va_list@_J_J@?$positional_parameter_base@DV?$console_output_adapter@D@__crt_stdio_output@@@__crt_stdio_output@@IAE_NAA_J@Z 1004e6c0 f i libucrtd:cprintf.obj
 0001:0004d820       ??$extract_argument_from_va_list@_J_J@?$positional_parameter_base@_WV?$console_output_adapter@_W@__crt_stdio_output@@@__crt_stdio_output@@IAE_NAA_J@Z 1004e820 f i libucrtd:cprintf.obj
 0001:0004d980       ??$extract_argument_from_va_list@_J_J@?$standard_base@DV?$console_output_adapter@D@__crt_stdio_output@@@__crt_stdio_output@@IAE_NAA_J@Z 1004e980 f i libucrtd:cprintf.obj
 0001:0004d9b0       ??$extract_argument_from_va_list@_J_J@?$standard_base@_WV?$console_output_adapter@_W@__crt_stdio_output@@@__crt_stdio_output@@IAE_NAA_J@Z 1004e9b0 f i libucrtd:cprintf.obj
 0001:0004d9e0       ??$extract_argument_from_va_list@_K_J@?$positional_parameter_base@DV?$console_output_adapter@D@__crt_stdio_output@@@__crt_stdio_output@@IAE_NAA_J@Z 1004e9e0 f i libucrtd:cprintf.obj
 0001:0004db40       ??$extract_argument_from_va_list@_K_J@?$positional_parameter_base@_WV?$console_output_adapter@_W@__crt_stdio_output@@@__crt_stdio_output@@IAE_NAA_J@Z 1004eb40 f i libucrtd:cprintf.obj
 0001:0004dca0       ??$extract_argument_from_va_list@_K_J@?$standard_base@DV?$console_output_adapter@D@__crt_stdio_output@@@__crt_stdio_output@@IAE_NAA_J@Z 1004eca0 f i libucrtd:cprintf.obj
 0001:0004dcd0       ??$extract_argument_from_va_list@_K_J@?$standard_base@_WV?$console_output_adapter@_W@__crt_stdio_output@@@__crt_stdio_output@@IAE_NAA_J@Z 1004ecd0 f i libucrtd:cprintf.obj
 0001:0004dd00       ??$extract_argument_from_va_list@_W_W@?$positional_parameter_base@DV?$console_output_adapter@D@__crt_stdio_output@@@__crt_stdio_output@@IAE_NAA_W@Z 1004ed00 f i libucrtd:cprintf.obj
 0001:0004de60       ??$extract_argument_from_va_list@_W_W@?$positional_parameter_base@_WV?$console_output_adapter@_W@__crt_stdio_output@@@__crt_stdio_output@@IAE_NAA_W@Z 1004ee60 f i libucrtd:cprintf.obj
 0001:0004dfc0       ??$extract_argument_from_va_list@_W_W@?$standard_base@DV?$console_output_adapter@D@__crt_stdio_output@@@__crt_stdio_output@@IAE_NAA_W@Z 1004efc0 f i libucrtd:cprintf.obj
 0001:0004dff0       ??$extract_argument_from_va_list@_W_W@?$standard_base@_WV?$console_output_adapter@_W@__crt_stdio_output@@@__crt_stdio_output@@IAE_NAA_W@Z 1004eff0 f i libucrtd:cprintf.obj
 0001:0004e020       ??$get_parameter_type@D@?$positional_parameter_base@DV?$console_output_adapter@D@__crt_stdio_output@@@__crt_stdio_output@@CA?AW4parameter_type@01@PAD@Z 1004f020 f i libucrtd:cprintf.obj
 0001:0004e030       ??$get_parameter_type@D@?$positional_parameter_base@_WV?$console_output_adapter@_W@__crt_stdio_output@@@__crt_stdio_output@@CA?AW4parameter_type@01@PAD@Z 1004f030 f i libucrtd:cprintf.obj
 0001:0004e040       ??$get_parameter_type@Uansi_string@?1??type_case_Z@?$output_processor@DV?$console_output_adapter@D@__crt_stdio_output@@V?$positional_parameter_base@DV?$console_output_adapter@D@__crt_stdio_output@@@2@@__crt_stdio_output@@AAE_NXZ@@?$positional_parameter_base@DV?$console_output_adapter@D@__crt_stdio_output@@@__crt_stdio_output@@CA?AW4parameter_type@01@PAUansi_string@?1??type_case_Z@?$output_processor@DV?$console_output_adapter@D@__crt_stdio_output@@V?$positional_parameter_base@DV?$console_output_adapter@D@__crt_stdio_output@@@2@@1@AAE_NXZ@@Z 1004f040 f i libucrtd:cprintf.obj
 0001:0004e050       ??$get_parameter_type@Uansi_string@?1??type_case_Z@?$output_processor@_WV?$console_output_adapter@_W@__crt_stdio_output@@V?$positional_parameter_base@_WV?$console_output_adapter@_W@__crt_stdio_output@@@2@@__crt_stdio_output@@AAE_NXZ@@?$positional_parameter_base@_WV?$console_output_adapter@_W@__crt_stdio_output@@@__crt_stdio_output@@CA?AW4parameter_type@01@PAUansi_string@?1??type_case_Z@?$output_processor@_WV?$console_output_adapter@_W@__crt_stdio_output@@V?$positional_parameter_base@_WV?$console_output_adapter@_W@__crt_stdio_output@@@2@@1@AAE_NXZ@@Z 1004f050 f i libucrtd:cprintf.obj
 0001:0004e060       ??$get_parameter_type@X@?$positional_parameter_base@DV?$console_output_adapter@D@__crt_stdio_output@@@__crt_stdio_output@@CA?AW4parameter_type@01@PAX@Z 1004f060 f i libucrtd:cprintf.obj
 0001:0004e070       ??$get_parameter_type@X@?$positional_parameter_base@_WV?$console_output_adapter@_W@__crt_stdio_output@@@__crt_stdio_output@@CA?AW4parameter_type@01@PAX@Z 1004f070 f i libucrtd:cprintf.obj
 0001:0004e080       ??$is_character_specifier@D@?$positional_parameter_base@DV?$console_output_adapter@D@__crt_stdio_output@@@__crt_stdio_output@@CA_ND@Z 1004f080 f i libucrtd:cprintf.obj
 0001:0004e0b0       ??$is_character_specifier@_W@?$positional_parameter_base@_WV?$console_output_adapter@_W@__crt_stdio_output@@@__crt_stdio_output@@CA_N_W@Z 1004f0b0 f i libucrtd:cprintf.obj
 0001:0004e0e0       ??$is_integral_specifier@D@?$positional_parameter_base@DV?$console_output_adapter@D@__crt_stdio_output@@@__crt_stdio_output@@CA_ND@Z 1004f0e0 f i libucrtd:cprintf.obj
 0001:0004e140       ??$is_integral_specifier@_W@?$positional_parameter_base@_WV?$console_output_adapter@_W@__crt_stdio_output@@@__crt_stdio_output@@CA_N_W@Z 1004f140 f i libucrtd:cprintf.obj
 0001:0004e1a0       ??$is_pointer_specifier@D@?$positional_parameter_base@DV?$console_output_adapter@D@__crt_stdio_output@@@__crt_stdio_output@@CA_ND@Z 1004f1a0 f i libucrtd:cprintf.obj
 0001:0004e1d0       ??$is_pointer_specifier@_W@?$positional_parameter_base@_WV?$console_output_adapter@_W@__crt_stdio_output@@@__crt_stdio_output@@CA_N_W@Z 1004f1d0 f i libucrtd:cprintf.obj
 0001:0004e200       ??$is_string_specifier@D@?$positional_parameter_base@DV?$console_output_adapter@D@__crt_stdio_output@@@__crt_stdio_output@@CA_ND@Z 1004f200 f i libucrtd:cprintf.obj
 0001:0004e230       ??$is_string_specifier@_W@?$positional_parameter_base@_WV?$console_output_adapter@_W@__crt_stdio_output@@@__crt_stdio_output@@CA_N_W@Z 1004f230 f i libucrtd:cprintf.obj
 0001:0004e260       ??$peek_va_arg@PAUansi_string@?1??type_case_Z@?$output_processor@DV?$console_output_adapter@D@__crt_stdio_output@@V?$positional_parameter_base@DV?$console_output_adapter@D@__crt_stdio_output@@@2@@__crt_stdio_output@@AAE_NXZ@@__crt_stdio_output@@YAPAUansi_string@?1??type_case_Z@?$output_processor@DV?$console_output_adapter@D@__crt_stdio_output@@V?$positional_parameter_base@DV?$console_output_adapter@D@__crt_stdio_output@@@2@@0@AAE_NXZ@PAD@Z 1004f260 f i libucrtd:cprintf.obj
 0001:0004e280       ??$peek_va_arg@PAUansi_string@?1??type_case_Z@?$output_processor@_WV?$console_output_adapter@_W@__crt_stdio_output@@V?$positional_parameter_base@_WV?$console_output_adapter@_W@__crt_stdio_output@@@2@@__crt_stdio_output@@AAE_NXZ@@__crt_stdio_output@@YAPAUansi_string@?1??type_case_Z@?$output_processor@_WV?$console_output_adapter@_W@__crt_stdio_output@@V?$positional_parameter_base@_WV?$console_output_adapter@_W@__crt_stdio_output@@@2@@0@AAE_NXZ@PAD@Z 1004f280 f i libucrtd:cprintf.obj
 0001:0004e2a0       ??$puttch_nolock_internal@ABDAAV__crt_cached_ptd_host@@@?$__crt_char_traits@D@@SAHABDAAV__crt_cached_ptd_host@@@Z 1004f2a0 f i libucrtd:cprintf.obj
 0001:0004e2c0       ??$puttch_nolock_internal@AB_WAAV__crt_cached_ptd_host@@@?$__crt_char_traits@_W@@SAGAB_WAAV__crt_cached_ptd_host@@@Z 1004f2c0 f i libucrtd:cprintf.obj
 0001:0004e2e0       ??$read_va_arg@PAUansi_string@?1??type_case_Z@?$output_processor@DV?$console_output_adapter@D@__crt_stdio_output@@V?$format_validation_base@DV?$console_output_adapter@D@__crt_stdio_output@@@2@@__crt_stdio_output@@AAE_NXZ@@__crt_stdio_output@@YAPAUansi_string@?1??type_case_Z@?$output_processor@DV?$console_output_adapter@D@__crt_stdio_output@@V?$format_validation_base@DV?$console_output_adapter@D@__crt_stdio_output@@@2@@0@AAE_NXZ@AAPAD@Z 1004f2e0 f i libucrtd:cprintf.obj
 0001:0004e300       ??$read_va_arg@PAUansi_string@?1??type_case_Z@?$output_processor@DV?$console_output_adapter@D@__crt_stdio_output@@V?$positional_parameter_base@DV?$console_output_adapter@D@__crt_stdio_output@@@2@@__crt_stdio_output@@AAE_NXZ@@__crt_stdio_output@@YAPAUansi_string@?1??type_case_Z@?$output_processor@DV?$console_output_adapter@D@__crt_stdio_output@@V?$positional_parameter_base@DV?$console_output_adapter@D@__crt_stdio_output@@@2@@0@AAE_NXZ@AAPAD@Z 1004f300 f i libucrtd:cprintf.obj
 0001:0004e320       ??$read_va_arg@PAUansi_string@?1??type_case_Z@?$output_processor@DV?$console_output_adapter@D@__crt_stdio_output@@V?$standard_base@DV?$console_output_adapter@D@__crt_stdio_output@@@2@@__crt_stdio_output@@AAE_NXZ@@__crt_stdio_output@@YAPAUansi_string@?1??type_case_Z@?$output_processor@DV?$console_output_adapter@D@__crt_stdio_output@@V?$standard_base@DV?$console_output_adapter@D@__crt_stdio_output@@@2@@0@AAE_NXZ@AAPAD@Z 1004f320 f i libucrtd:cprintf.obj
 0001:0004e340       ??$read_va_arg@PAUansi_string@?1??type_case_Z@?$output_processor@_WV?$console_output_adapter@_W@__crt_stdio_output@@V?$format_validation_base@_WV?$console_output_adapter@_W@__crt_stdio_output@@@2@@__crt_stdio_output@@AAE_NXZ@@__crt_stdio_output@@YAPAUansi_string@?1??type_case_Z@?$output_processor@_WV?$console_output_adapter@_W@__crt_stdio_output@@V?$format_validation_base@_WV?$console_output_adapter@_W@__crt_stdio_output@@@2@@0@AAE_NXZ@AAPAD@Z 1004f340 f i libucrtd:cprintf.obj
 0001:0004e360       ??$read_va_arg@PAUansi_string@?1??type_case_Z@?$output_processor@_WV?$console_output_adapter@_W@__crt_stdio_output@@V?$positional_parameter_base@_WV?$console_output_adapter@_W@__crt_stdio_output@@@2@@__crt_stdio_output@@AAE_NXZ@@__crt_stdio_output@@YAPAUansi_string@?1??type_case_Z@?$output_processor@_WV?$console_output_adapter@_W@__crt_stdio_output@@V?$positional_parameter_base@_WV?$console_output_adapter@_W@__crt_stdio_output@@@2@@0@AAE_NXZ@AAPAD@Z 1004f360 f i libucrtd:cprintf.obj
 0001:0004e380       ??$read_va_arg@PAUansi_string@?1??type_case_Z@?$output_processor@_WV?$console_output_adapter@_W@__crt_stdio_output@@V?$standard_base@_WV?$console_output_adapter@_W@__crt_stdio_output@@@2@@__crt_stdio_output@@AAE_NXZ@@__crt_stdio_output@@YAPAUansi_string@?1??type_case_Z@?$output_processor@_WV?$console_output_adapter@_W@__crt_stdio_output@@V?$standard_base@_WV?$console_output_adapter@_W@__crt_stdio_output@@@2@@0@AAE_NXZ@AAPAD@Z 1004f380 f i libucrtd:cprintf.obj
 0001:0004e3a0       ??$type_case_integer@$07@?$output_processor@DV?$console_output_adapter@D@__crt_stdio_output@@V?$format_validation_base@DV?$console_output_adapter@D@__crt_stdio_output@@@2@@__crt_stdio_output@@AAE_N_N@Z 1004f3a0 f i libucrtd:cprintf.obj
 0001:0004e700       ??$type_case_integer@$07@?$output_processor@DV?$console_output_adapter@D@__crt_stdio_output@@V?$positional_parameter_base@DV?$console_output_adapter@D@__crt_stdio_output@@@2@@__crt_stdio_output@@AAE_N_N@Z 1004f700 f i libucrtd:cprintf.obj
 0001:0004ea60       ??$type_case_integer@$07@?$output_processor@DV?$console_output_adapter@D@__crt_stdio_output@@V?$standard_base@DV?$console_output_adapter@D@__crt_stdio_output@@@2@@__crt_stdio_output@@AAE_N_N@Z 1004fa60 f i libucrtd:cprintf.obj
 0001:0004edc0       ??$type_case_integer@$07@?$output_processor@_WV?$console_output_adapter@_W@__crt_stdio_output@@V?$format_validation_base@_WV?$console_output_adapter@_W@__crt_stdio_output@@@2@@__crt_stdio_output@@AAE_N_N@Z 1004fdc0 f i libucrtd:cprintf.obj
 0001:0004f120       ??$type_case_integer@$07@?$output_processor@_WV?$console_output_adapter@_W@__crt_stdio_output@@V?$positional_parameter_base@_WV?$console_output_adapter@_W@__crt_stdio_output@@@2@@__crt_stdio_output@@AAE_N_N@Z 10050120 f i libucrtd:cprintf.obj
 0001:0004f480       ??$type_case_integer@$07@?$output_processor@_WV?$console_output_adapter@_W@__crt_stdio_output@@V?$standard_base@_WV?$console_output_adapter@_W@__crt_stdio_output@@@2@@__crt_stdio_output@@AAE_N_N@Z 10050480 f i libucrtd:cprintf.obj
 0001:0004f7e0       ??$type_case_integer@$09@?$output_processor@DV?$console_output_adapter@D@__crt_stdio_output@@V?$format_validation_base@DV?$console_output_adapter@D@__crt_stdio_output@@@2@@__crt_stdio_output@@AAE_N_N@Z 100507e0 f i libucrtd:cprintf.obj
 0001:0004fb40       ??$type_case_integer@$09@?$output_processor@DV?$console_output_adapter@D@__crt_stdio_output@@V?$positional_parameter_base@DV?$console_output_adapter@D@__crt_stdio_output@@@2@@__crt_stdio_output@@AAE_N_N@Z 10050b40 f i libucrtd:cprintf.obj
 0001:0004feb0       ??$type_case_integer@$09@?$output_processor@DV?$console_output_adapter@D@__crt_stdio_output@@V?$standard_base@DV?$console_output_adapter@D@__crt_stdio_output@@@2@@__crt_stdio_output@@AAE_N_N@Z 10050eb0 f i libucrtd:cprintf.obj
 0001:00050210       ??$type_case_integer@$09@?$output_processor@_WV?$console_output_adapter@_W@__crt_stdio_output@@V?$format_validation_base@_WV?$console_output_adapter@_W@__crt_stdio_output@@@2@@__crt_stdio_output@@AAE_N_N@Z 10051210 f i libucrtd:cprintf.obj
 0001:00050570       ??$type_case_integer@$09@?$output_processor@_WV?$console_output_adapter@_W@__crt_stdio_output@@V?$positional_parameter_base@_WV?$console_output_adapter@_W@__crt_stdio_output@@@2@@__crt_stdio_output@@AAE_N_N@Z 10051570 f i libucrtd:cprintf.obj
 0001:000508d0       ??$type_case_integer@$09@?$output_processor@_WV?$console_output_adapter@_W@__crt_stdio_output@@V?$standard_base@_WV?$console_output_adapter@_W@__crt_stdio_output@@@2@@__crt_stdio_output@@AAE_N_N@Z 100518d0 f i libucrtd:cprintf.obj
 0001:00050c30       ??$type_case_integer@$0BA@@?$output_processor@DV?$console_output_adapter@D@__crt_stdio_output@@V?$format_validation_base@DV?$console_output_adapter@D@__crt_stdio_output@@@2@@__crt_stdio_output@@AAE_N_N@Z 10051c30 f i libucrtd:cprintf.obj
 0001:00050f90       ??$type_case_integer@$0BA@@?$output_processor@DV?$console_output_adapter@D@__crt_stdio_output@@V?$positional_parameter_base@DV?$console_output_adapter@D@__crt_stdio_output@@@2@@__crt_stdio_output@@AAE_N_N@Z 10051f90 f i libucrtd:cprintf.obj
 0001:000512f0       ??$type_case_integer@$0BA@@?$output_processor@DV?$console_output_adapter@D@__crt_stdio_output@@V?$standard_base@DV?$console_output_adapter@D@__crt_stdio_output@@@2@@__crt_stdio_output@@AAE_N_N@Z 100522f0 f i libucrtd:cprintf.obj
 0001:00051650       ??$type_case_integer@$0BA@@?$output_processor@_WV?$console_output_adapter@_W@__crt_stdio_output@@V?$format_validation_base@_WV?$console_output_adapter@_W@__crt_stdio_output@@@2@@__crt_stdio_output@@AAE_N_N@Z 10052650 f i libucrtd:cprintf.obj
 0001:000519b0       ??$type_case_integer@$0BA@@?$output_processor@_WV?$console_output_adapter@_W@__crt_stdio_output@@V?$positional_parameter_base@_WV?$console_output_adapter@_W@__crt_stdio_output@@@2@@__crt_stdio_output@@AAE_N_N@Z 100529b0 f i libucrtd:cprintf.obj
 0001:00051d10       ??$type_case_integer@$0BA@@?$output_processor@_WV?$console_output_adapter@_W@__crt_stdio_output@@V?$standard_base@_WV?$console_output_adapter@_W@__crt_stdio_output@@@2@@__crt_stdio_output@@AAE_N_N@Z 10052d10 f i libucrtd:cprintf.obj
 0001:00052070       ??$type_case_integer_parse_into_buffer@I$07@?$output_processor@DV?$console_output_adapter@D@__crt_stdio_output@@V?$format_validation_base@DV?$console_output_adapter@D@__crt_stdio_output@@@2@@__crt_stdio_output@@AAEXI_N@Z 10053070 f i libucrtd:cprintf.obj
 0001:00052140       ??$type_case_integer_parse_into_buffer@I$07@?$output_processor@DV?$console_output_adapter@D@__crt_stdio_output@@V?$positional_parameter_base@DV?$console_output_adapter@D@__crt_stdio_output@@@2@@__crt_stdio_output@@AAEXI_N@Z 10053140 f i libucrtd:cprintf.obj
 0001:00052210       ??$type_case_integer_parse_into_buffer@I$07@?$output_processor@DV?$console_output_adapter@D@__crt_stdio_output@@V?$standard_base@DV?$console_output_adapter@D@__crt_stdio_output@@@2@@__crt_stdio_output@@AAEXI_N@Z 10053210 f i libucrtd:cprintf.obj
 0001:000522e0       ??$type_case_integer_parse_into_buffer@I$07@?$output_processor@_WV?$console_output_adapter@_W@__crt_stdio_output@@V?$format_validation_base@_WV?$console_output_adapter@_W@__crt_stdio_output@@@2@@__crt_stdio_output@@AAEXI_N@Z 100532e0 f i libucrtd:cprintf.obj
 0001:000523c0       ??$type_case_integer_parse_into_buffer@I$07@?$output_processor@_WV?$console_output_adapter@_W@__crt_stdio_output@@V?$positional_parameter_base@_WV?$console_output_adapter@_W@__crt_stdio_output@@@2@@__crt_stdio_output@@AAEXI_N@Z 100533c0 f i libucrtd:cprintf.obj
 0001:000524a0       ??$type_case_integer_parse_into_buffer@I$07@?$output_processor@_WV?$console_output_adapter@_W@__crt_stdio_output@@V?$standard_base@_WV?$console_output_adapter@_W@__crt_stdio_output@@@2@@__crt_stdio_output@@AAEXI_N@Z 100534a0 f i libucrtd:cprintf.obj
 0001:00052580       ??$type_case_integer_parse_into_buffer@I$09@?$output_processor@DV?$console_output_adapter@D@__crt_stdio_output@@V?$format_validation_base@DV?$console_output_adapter@D@__crt_stdio_output@@@2@@__crt_stdio_output@@AAEXI_N@Z 10053580 f i libucrtd:cprintf.obj
 0001:00052660       ??$type_case_integer_parse_into_buffer@I$09@?$output_processor@DV?$console_output_adapter@D@__crt_stdio_output@@V?$positional_parameter_base@DV?$console_output_adapter@D@__crt_stdio_output@@@2@@__crt_stdio_output@@AAEXI_N@Z 10053660 f i libucrtd:cprintf.obj
 0001:00052740       ??$type_case_integer_parse_into_buffer@I$09@?$output_processor@DV?$console_output_adapter@D@__crt_stdio_output@@V?$standard_base@DV?$console_output_adapter@D@__crt_stdio_output@@@2@@__crt_stdio_output@@AAEXI_N@Z 10053740 f i libucrtd:cprintf.obj
 0001:00052820       ??$type_case_integer_parse_into_buffer@I$09@?$output_processor@_WV?$console_output_adapter@_W@__crt_stdio_output@@V?$format_validation_base@_WV?$console_output_adapter@_W@__crt_stdio_output@@@2@@__crt_stdio_output@@AAEXI_N@Z 10053820 f i libucrtd:cprintf.obj
 0001:00052910       ??$type_case_integer_parse_into_buffer@I$09@?$output_processor@_WV?$console_output_adapter@_W@__crt_stdio_output@@V?$positional_parameter_base@_WV?$console_output_adapter@_W@__crt_stdio_output@@@2@@__crt_stdio_output@@AAEXI_N@Z 10053910 f i libucrtd:cprintf.obj
 0001:00052a00       ??$type_case_integer_parse_into_buffer@I$09@?$output_processor@_WV?$console_output_adapter@_W@__crt_stdio_output@@V?$standard_base@_WV?$console_output_adapter@_W@__crt_stdio_output@@@2@@__crt_stdio_output@@AAEXI_N@Z 10053a00 f i libucrtd:cprintf.obj
 0001:00052af0       ??$type_case_integer_parse_into_buffer@I$0BA@@?$output_processor@DV?$console_output_adapter@D@__crt_stdio_output@@V?$format_validation_base@DV?$console_output_adapter@D@__crt_stdio_output@@@2@@__crt_stdio_output@@AAEXI_N@Z 10053af0 f i libucrtd:cprintf.obj
 0001:00052bc0       ??$type_case_integer_parse_into_buffer@I$0BA@@?$output_processor@DV?$console_output_adapter@D@__crt_stdio_output@@V?$positional_parameter_base@DV?$console_output_adapter@D@__crt_stdio_output@@@2@@__crt_stdio_output@@AAEXI_N@Z 10053bc0 f i libucrtd:cprintf.obj
 0001:00052c90       ??$type_case_integer_parse_into_buffer@I$0BA@@?$output_processor@DV?$console_output_adapter@D@__crt_stdio_output@@V?$standard_base@DV?$console_output_adapter@D@__crt_stdio_output@@@2@@__crt_stdio_output@@AAEXI_N@Z 10053c90 f i libucrtd:cprintf.obj
 0001:00052d60       ??$type_case_integer_parse_into_buffer@I$0BA@@?$output_processor@_WV?$console_output_adapter@_W@__crt_stdio_output@@V?$format_validation_base@_WV?$console_output_adapter@_W@__crt_stdio_output@@@2@@__crt_stdio_output@@AAEXI_N@Z 10053d60 f i libucrtd:cprintf.obj
 0001:00052e40       ??$type_case_integer_parse_into_buffer@I$0BA@@?$output_processor@_WV?$console_output_adapter@_W@__crt_stdio_output@@V?$positional_parameter_base@_WV?$console_output_adapter@_W@__crt_stdio_output@@@2@@__crt_stdio_output@@AAEXI_N@Z 10053e40 f i libucrtd:cprintf.obj
 0001:00052f20       ??$type_case_integer_parse_into_buffer@I$0BA@@?$output_processor@_WV?$console_output_adapter@_W@__crt_stdio_output@@V?$standard_base@_WV?$console_output_adapter@_W@__crt_stdio_output@@@2@@__crt_stdio_output@@AAEXI_N@Z 10053f20 f i libucrtd:cprintf.obj
 0001:00053000       ??$type_case_integer_parse_into_buffer@_K$07@?$output_processor@DV?$console_output_adapter@D@__crt_stdio_output@@V?$format_validation_base@DV?$console_output_adapter@D@__crt_stdio_output@@@2@@__crt_stdio_output@@AAEX_K_N@Z 10054000 f i libucrtd:cprintf.obj
 0001:000530f0       ??$type_case_integer_parse_into_buffer@_K$07@?$output_processor@DV?$console_output_adapter@D@__crt_stdio_output@@V?$positional_parameter_base@DV?$console_output_adapter@D@__crt_stdio_output@@@2@@__crt_stdio_output@@AAEX_K_N@Z 100540f0 f i libucrtd:cprintf.obj
 0001:000531e0       ??$type_case_integer_parse_into_buffer@_K$07@?$output_processor@DV?$console_output_adapter@D@__crt_stdio_output@@V?$standard_base@DV?$console_output_adapter@D@__crt_stdio_output@@@2@@__crt_stdio_output@@AAEX_K_N@Z 100541e0 f i libucrtd:cprintf.obj
 0001:000532d0       ??$type_case_integer_parse_into_buffer@_K$07@?$output_processor@_WV?$console_output_adapter@_W@__crt_stdio_output@@V?$format_validation_base@_WV?$console_output_adapter@_W@__crt_stdio_output@@@2@@__crt_stdio_output@@AAEX_K_N@Z 100542d0 f i libucrtd:cprintf.obj
 0001:000533d0       ??$type_case_integer_parse_into_buffer@_K$07@?$output_processor@_WV?$console_output_adapter@_W@__crt_stdio_output@@V?$positional_parameter_base@_WV?$console_output_adapter@_W@__crt_stdio_output@@@2@@__crt_stdio_output@@AAEX_K_N@Z 100543d0 f i libucrtd:cprintf.obj
 0001:000534d0       ??$type_case_integer_parse_into_buffer@_K$07@?$output_processor@_WV?$console_output_adapter@_W@__crt_stdio_output@@V?$standard_base@_WV?$console_output_adapter@_W@__crt_stdio_output@@@2@@__crt_stdio_output@@AAEX_K_N@Z 100544d0 f i libucrtd:cprintf.obj
 0001:000535d0       ??$type_case_integer_parse_into_buffer@_K$09@?$output_processor@DV?$console_output_adapter@D@__crt_stdio_output@@V?$format_validation_base@DV?$console_output_adapter@D@__crt_stdio_output@@@2@@__crt_stdio_output@@AAEX_K_N@Z 100545d0 f i libucrtd:cprintf.obj
 0001:000536c0       ??$type_case_integer_parse_into_buffer@_K$09@?$output_processor@DV?$console_output_adapter@D@__crt_stdio_output@@V?$positional_parameter_base@DV?$console_output_adapter@D@__crt_stdio_output@@@2@@__crt_stdio_output@@AAEX_K_N@Z 100546c0 f i libucrtd:cprintf.obj
 0001:000537b0       ??$type_case_integer_parse_into_buffer@_K$09@?$output_processor@DV?$console_output_adapter@D@__crt_stdio_output@@V?$standard_base@DV?$console_output_adapter@D@__crt_stdio_output@@@2@@__crt_stdio_output@@AAEX_K_N@Z 100547b0 f i libucrtd:cprintf.obj
 0001:000538a0       ??$type_case_integer_parse_into_buffer@_K$09@?$output_processor@_WV?$console_output_adapter@_W@__crt_stdio_output@@V?$format_validation_base@_WV?$console_output_adapter@_W@__crt_stdio_output@@@2@@__crt_stdio_output@@AAEX_K_N@Z 100548a0 f i libucrtd:cprintf.obj
 0001:000539a0       ??$type_case_integer_parse_into_buffer@_K$09@?$output_processor@_WV?$console_output_adapter@_W@__crt_stdio_output@@V?$positional_parameter_base@_WV?$console_output_adapter@_W@__crt_stdio_output@@@2@@__crt_stdio_output@@AAEX_K_N@Z 100549a0 f i libucrtd:cprintf.obj
 0001:00053aa0       ??$type_case_integer_parse_into_buffer@_K$09@?$output_processor@_WV?$console_output_adapter@_W@__crt_stdio_output@@V?$standard_base@_WV?$console_output_adapter@_W@__crt_stdio_output@@@2@@__crt_stdio_output@@AAEX_K_N@Z 10054aa0 f i libucrtd:cprintf.obj
 0001:00053ba0       ??$type_case_integer_parse_into_buffer@_K$0BA@@?$output_processor@DV?$console_output_adapter@D@__crt_stdio_output@@V?$format_validation_base@DV?$console_output_adapter@D@__crt_stdio_output@@@2@@__crt_stdio_output@@AAEX_K_N@Z 10054ba0 f i libucrtd:cprintf.obj
 0001:00053c90       ??$type_case_integer_parse_into_buffer@_K$0BA@@?$output_processor@DV?$console_output_adapter@D@__crt_stdio_output@@V?$positional_parameter_base@DV?$console_output_adapter@D@__crt_stdio_output@@@2@@__crt_stdio_output@@AAEX_K_N@Z 10054c90 f i libucrtd:cprintf.obj
 0001:00053d80       ??$type_case_integer_parse_into_buffer@_K$0BA@@?$output_processor@DV?$console_output_adapter@D@__crt_stdio_output@@V?$standard_base@DV?$console_output_adapter@D@__crt_stdio_output@@@2@@__crt_stdio_output@@AAEX_K_N@Z 10054d80 f i libucrtd:cprintf.obj
 0001:00053e70       ??$type_case_integer_parse_into_buffer@_K$0BA@@?$output_processor@_WV?$console_output_adapter@_W@__crt_stdio_output@@V?$format_validation_base@_WV?$console_output_adapter@_W@__crt_stdio_output@@@2@@__crt_stdio_output@@AAEX_K_N@Z 10054e70 f i libucrtd:cprintf.obj
 0001:00053f70       ??$type_case_integer_parse_into_buffer@_K$0BA@@?$output_processor@_WV?$console_output_adapter@_W@__crt_stdio_output@@V?$positional_parameter_base@_WV?$console_output_adapter@_W@__crt_stdio_output@@@2@@__crt_stdio_output@@AAEX_K_N@Z 10054f70 f i libucrtd:cprintf.obj
 0001:00054070       ??$type_case_integer_parse_into_buffer@_K$0BA@@?$output_processor@_WV?$console_output_adapter@_W@__crt_stdio_output@@V?$standard_base@_WV?$console_output_adapter@_W@__crt_stdio_output@@@2@@__crt_stdio_output@@AAEX_K_N@Z 10055070 f i libucrtd:cprintf.obj
 0001:00054170       ??$write_multiple_characters@V?$console_output_adapter@D@__crt_stdio_output@@D@__crt_stdio_output@@YAXABV?$console_output_adapter@D@0@DHQAHAAV__crt_cached_ptd_host@@@Z 10055170 f i libucrtd:cprintf.obj
 0001:000541c0       ??$write_multiple_characters@V?$console_output_adapter@_W@__crt_stdio_output@@D@__crt_stdio_output@@YAXABV?$console_output_adapter@_W@0@DHQAHAAV__crt_cached_ptd_host@@@Z 100551c0 f i libucrtd:cprintf.obj
 0001:00054210       ??0?$output_adapter_data@DV?$console_output_adapter@D@__crt_stdio_output@@@__crt_stdio_output@@IAE@ABV?$console_output_adapter@D@1@_KQBDAAV__crt_cached_ptd_host@@QAD@Z 10055210 f i libucrtd:cprintf.obj
 0001:00054280       ??0?$output_adapter_data@_WV?$console_output_adapter@_W@__crt_stdio_output@@@__crt_stdio_output@@IAE@ABV?$console_output_adapter@_W@1@_KQB_WAAV__crt_cached_ptd_host@@QAD@Z 10055280 f i libucrtd:cprintf.obj
 0001:000542f0       ??0?$output_processor@DV?$console_output_adapter@D@__crt_stdio_output@@V?$format_validation_base@DV?$console_output_adapter@D@__crt_stdio_output@@@2@@__crt_stdio_output@@QAE@ABV?$console_output_adapter@D@1@_KQBDAAV__crt_cached_ptd_host@@QAD@Z 100552f0 f i libucrtd:cprintf.obj
 0001:00054320       ??0?$output_processor@DV?$console_output_adapter@D@__crt_stdio_output@@V?$positional_parameter_base@DV?$console_output_adapter@D@__crt_stdio_output@@@2@@__crt_stdio_output@@QAE@ABV?$console_output_adapter@D@1@_KQBDAAV__crt_cached_ptd_host@@QAD@Z 10055320 f i libucrtd:cprintf.obj
 0001:00054350       ??0?$output_processor@DV?$console_output_adapter@D@__crt_stdio_output@@V?$standard_base@DV?$console_output_adapter@D@__crt_stdio_output@@@2@@__crt_stdio_output@@QAE@ABV?$console_output_adapter@D@1@_KQBDAAV__crt_cached_ptd_host@@QAD@Z 10055350 f i libucrtd:cprintf.obj
 0001:00054380       ??0?$output_processor@_WV?$console_output_adapter@_W@__crt_stdio_output@@V?$format_validation_base@_WV?$console_output_adapter@_W@__crt_stdio_output@@@2@@__crt_stdio_output@@QAE@ABV?$console_output_adapter@_W@1@_KQB_WAAV__crt_cached_ptd_host@@QAD@Z 10055380 f i libucrtd:cprintf.obj
 0001:000543b0       ??0?$output_processor@_WV?$console_output_adapter@_W@__crt_stdio_output@@V?$positional_parameter_base@_WV?$console_output_adapter@_W@__crt_stdio_output@@@2@@__crt_stdio_output@@QAE@ABV?$console_output_adapter@_W@1@_KQB_WAAV__crt_cached_ptd_host@@QAD@Z 100553b0 f i libucrtd:cprintf.obj
 0001:000543e0       ??0?$output_processor@_WV?$console_output_adapter@_W@__crt_stdio_output@@V?$standard_base@_WV?$console_output_adapter@_W@__crt_stdio_output@@@2@@__crt_stdio_output@@QAE@ABV?$console_output_adapter@_W@1@_KQB_WAAV__crt_cached_ptd_host@@QAD@Z 100553e0 f i libucrtd:cprintf.obj
 0001:00054410       ??1?$format_validation_base@DV?$console_output_adapter@D@__crt_stdio_output@@@__crt_stdio_output@@QAE@XZ 10055410 f i libucrtd:cprintf.obj
 0001:00054430       ??1?$format_validation_base@_WV?$console_output_adapter@_W@__crt_stdio_output@@@__crt_stdio_output@@QAE@XZ 10055430 f i libucrtd:cprintf.obj
 0001:00054450       ??1?$output_adapter_data@DV?$console_output_adapter@D@__crt_stdio_output@@@__crt_stdio_output@@QAE@XZ 10055450 f i libucrtd:cprintf.obj
 0001:00054470       ??1?$output_adapter_data@_WV?$console_output_adapter@_W@__crt_stdio_output@@@__crt_stdio_output@@QAE@XZ 10055470 f i libucrtd:cprintf.obj
 0001:00054490       ??1?$output_processor@DV?$console_output_adapter@D@__crt_stdio_output@@V?$format_validation_base@DV?$console_output_adapter@D@__crt_stdio_output@@@2@@__crt_stdio_output@@QAE@XZ 10055490 f i libucrtd:cprintf.obj
 0001:000544b0       ??1?$output_processor@DV?$console_output_adapter@D@__crt_stdio_output@@V?$positional_parameter_base@DV?$console_output_adapter@D@__crt_stdio_output@@@2@@__crt_stdio_output@@QAE@XZ 100554b0 f i libucrtd:cprintf.obj
 0001:000544d0       ??1?$output_processor@DV?$console_output_adapter@D@__crt_stdio_output@@V?$standard_base@DV?$console_output_adapter@D@__crt_stdio_output@@@2@@__crt_stdio_output@@QAE@XZ 100554d0 f i libucrtd:cprintf.obj
 0001:000544f0       ??1?$output_processor@_WV?$console_output_adapter@_W@__crt_stdio_output@@V?$format_validation_base@_WV?$console_output_adapter@_W@__crt_stdio_output@@@2@@__crt_stdio_output@@QAE@XZ 100554f0 f i libucrtd:cprintf.obj
 0001:00054510       ??1?$output_processor@_WV?$console_output_adapter@_W@__crt_stdio_output@@V?$positional_parameter_base@_WV?$console_output_adapter@_W@__crt_stdio_output@@@2@@__crt_stdio_output@@QAE@XZ 10055510 f i libucrtd:cprintf.obj
 0001:00054530       ??1?$output_processor@_WV?$console_output_adapter@_W@__crt_stdio_output@@V?$standard_base@_WV?$console_output_adapter@_W@__crt_stdio_output@@@2@@__crt_stdio_output@@QAE@XZ 10055530 f i libucrtd:cprintf.obj
 0001:00054550       ??1?$positional_parameter_base@DV?$console_output_adapter@D@__crt_stdio_output@@@__crt_stdio_output@@QAE@XZ 10055550 f i libucrtd:cprintf.obj
 0001:00054570       ??1?$positional_parameter_base@_WV?$console_output_adapter@_W@__crt_stdio_output@@@__crt_stdio_output@@QAE@XZ 10055570 f i libucrtd:cprintf.obj
 0001:00054590       ??1?$standard_base@DV?$console_output_adapter@D@__crt_stdio_output@@@__crt_stdio_output@@QAE@XZ 10055590 f i libucrtd:cprintf.obj
 0001:000545b0       ??1?$standard_base@_WV?$console_output_adapter@_W@__crt_stdio_output@@@__crt_stdio_output@@QAE@XZ 100555b0 f i libucrtd:cprintf.obj
 0001:000545d0       ?adjust_hexit@?$output_processor@DV?$console_output_adapter@D@__crt_stdio_output@@V?$format_validation_base@DV?$console_output_adapter@D@__crt_stdio_output@@@2@@__crt_stdio_output@@CADH_N@Z 100555d0 f i libucrtd:cprintf.obj
 0001:00054610       ?adjust_hexit@?$output_processor@DV?$console_output_adapter@D@__crt_stdio_output@@V?$positional_parameter_base@DV?$console_output_adapter@D@__crt_stdio_output@@@2@@__crt_stdio_output@@CADH_N@Z 10055610 f i libucrtd:cprintf.obj
 0001:00054650       ?adjust_hexit@?$output_processor@DV?$console_output_adapter@D@__crt_stdio_output@@V?$standard_base@DV?$console_output_adapter@D@__crt_stdio_output@@@2@@__crt_stdio_output@@CADH_N@Z 10055650 f i libucrtd:cprintf.obj
 0001:00054690       ?adjust_hexit@?$output_processor@_WV?$console_output_adapter@_W@__crt_stdio_output@@V?$format_validation_base@_WV?$console_output_adapter@_W@__crt_stdio_output@@@2@@__crt_stdio_output@@CADH_N@Z 10055690 f i libucrtd:cprintf.obj
 0001:000546d0       ?adjust_hexit@?$output_processor@_WV?$console_output_adapter@_W@__crt_stdio_output@@V?$positional_parameter_base@_WV?$console_output_adapter@_W@__crt_stdio_output@@@2@@__crt_stdio_output@@CADH_N@Z 100556d0 f i libucrtd:cprintf.obj
 0001:00054710       ?adjust_hexit@?$output_processor@_WV?$console_output_adapter@_W@__crt_stdio_output@@V?$standard_base@_WV?$console_output_adapter@_W@__crt_stdio_output@@@2@@__crt_stdio_output@@CADH_N@Z 10055710 f i libucrtd:cprintf.obj
 0001:00054750       ?advance_to_next_pass@?$positional_parameter_base@DV?$console_output_adapter@D@__crt_stdio_output@@@__crt_stdio_output@@IAE_NXZ 10055750 f i libucrtd:cprintf.obj
 0001:000547f0       ?advance_to_next_pass@?$positional_parameter_base@_WV?$console_output_adapter@_W@__crt_stdio_output@@@__crt_stdio_output@@IAE_NXZ 100557f0 f i libucrtd:cprintf.obj
 0001:00054890       ?advance_to_next_pass@?$standard_base@DV?$console_output_adapter@D@__crt_stdio_output@@@__crt_stdio_output@@IAE_NXZ 10055890 f i libucrtd:cprintf.obj
 0001:000548e0       ?advance_to_next_pass@?$standard_base@_WV?$console_output_adapter@_W@__crt_stdio_output@@@__crt_stdio_output@@IAE_NXZ 100558e0 f i libucrtd:cprintf.obj
 0001:00054930       ?find_next_state@?$output_processor@DV?$console_output_adapter@D@__crt_stdio_output@@V?$format_validation_base@DV?$console_output_adapter@D@__crt_stdio_output@@@2@@__crt_stdio_output@@ABE?AW4state@2@DW432@@Z 10055930 f i libucrtd:cprintf.obj
 0001:000549d0       ?find_next_state@?$output_processor@DV?$console_output_adapter@D@__crt_stdio_output@@V?$positional_parameter_base@DV?$console_output_adapter@D@__crt_stdio_output@@@2@@__crt_stdio_output@@ABE?AW4state@2@DW432@@Z 100559d0 f i libucrtd:cprintf.obj
 0001:00054a70       ?find_next_state@?$output_processor@DV?$console_output_adapter@D@__crt_stdio_output@@V?$standard_base@DV?$console_output_adapter@D@__crt_stdio_output@@@2@@__crt_stdio_output@@ABE?AW4state@2@DW432@@Z 10055a70 f i libucrtd:cprintf.obj
 0001:00054b10       ?find_next_state@?$output_processor@_WV?$console_output_adapter@_W@__crt_stdio_output@@V?$format_validation_base@_WV?$console_output_adapter@_W@__crt_stdio_output@@@2@@__crt_stdio_output@@ABE?AW4state@2@_WW432@@Z 10055b10 f i libucrtd:cprintf.obj
 0001:00054bb0       ?find_next_state@?$output_processor@_WV?$console_output_adapter@_W@__crt_stdio_output@@V?$positional_parameter_base@_WV?$console_output_adapter@_W@__crt_stdio_output@@@2@@__crt_stdio_output@@ABE?AW4state@2@_WW432@@Z 10055bb0 f i libucrtd:cprintf.obj
 0001:00054c50       ?find_next_state@?$output_processor@_WV?$console_output_adapter@_W@__crt_stdio_output@@V?$standard_base@_WV?$console_output_adapter@_W@__crt_stdio_output@@@2@@__crt_stdio_output@@ABE?AW4state@2@_WW432@@Z 10055c50 f i libucrtd:cprintf.obj
 0001:00054cf0       ?get_parameter_type@?$positional_parameter_base@DV?$console_output_adapter@D@__crt_stdio_output@@@__crt_stdio_output@@CA?AW4parameter_type@12@F@Z 10055cf0 f i libucrtd:cprintf.obj
 0001:00054d00       ?get_parameter_type@?$positional_parameter_base@DV?$console_output_adapter@D@__crt_stdio_output@@@__crt_stdio_output@@CA?AW4parameter_type@12@G@Z 10055d00 f i libucrtd:cprintf.obj
 0001:00054d10       ?get_parameter_type@?$positional_parameter_base@DV?$console_output_adapter@D@__crt_stdio_output@@@__crt_stdio_output@@CA?AW4parameter_type@12@H@Z 10055d10 f i libucrtd:cprintf.obj
 0001:00054d20       ?get_parameter_type@?$positional_parameter_base@DV?$console_output_adapter@D@__crt_stdio_output@@@__crt_stdio_output@@CA?AW4parameter_type@12@I@Z 10055d20 f i libucrtd:cprintf.obj
 0001:00054d30       ?get_parameter_type@?$positional_parameter_base@DV?$console_output_adapter@D@__crt_stdio_output@@@__crt_stdio_output@@CA?AW4parameter_type@12@U_CRT_DOUBLE@@@Z 10055d30 f i libucrtd:cprintf.obj
 0001:00054d40       ?get_parameter_type@?$positional_parameter_base@DV?$console_output_adapter@D@__crt_stdio_output@@@__crt_stdio_output@@CA?AW4parameter_type@12@_J@Z 10055d40 f i libucrtd:cprintf.obj
 0001:00054d50       ?get_parameter_type@?$positional_parameter_base@DV?$console_output_adapter@D@__crt_stdio_output@@@__crt_stdio_output@@CA?AW4parameter_type@12@_K@Z 10055d50 f i libucrtd:cprintf.obj
 0001:00054d60       ?get_parameter_type@?$positional_parameter_base@DV?$console_output_adapter@D@__crt_stdio_output@@@__crt_stdio_output@@CA?AW4parameter_type@12@_W@Z 10055d60 f i libucrtd:cprintf.obj
 0001:00054d70       ?get_parameter_type@?$positional_parameter_base@_WV?$console_output_adapter@_W@__crt_stdio_output@@@__crt_stdio_output@@CA?AW4parameter_type@12@F@Z 10055d70 f i libucrtd:cprintf.obj
 0001:00054d80       ?get_parameter_type@?$positional_parameter_base@_WV?$console_output_adapter@_W@__crt_stdio_output@@@__crt_stdio_output@@CA?AW4parameter_type@12@G@Z 10055d80 f i libucrtd:cprintf.obj
 0001:00054d90       ?get_parameter_type@?$positional_parameter_base@_WV?$console_output_adapter@_W@__crt_stdio_output@@@__crt_stdio_output@@CA?AW4parameter_type@12@H@Z 10055d90 f i libucrtd:cprintf.obj
 0001:00054da0       ?get_parameter_type@?$positional_parameter_base@_WV?$console_output_adapter@_W@__crt_stdio_output@@@__crt_stdio_output@@CA?AW4parameter_type@12@I@Z 10055da0 f i libucrtd:cprintf.obj
 0001:00054db0       ?get_parameter_type@?$positional_parameter_base@_WV?$console_output_adapter@_W@__crt_stdio_output@@@__crt_stdio_output@@CA?AW4parameter_type@12@U_CRT_DOUBLE@@@Z 10055db0 f i libucrtd:cprintf.obj
 0001:00054dc0       ?get_parameter_type@?$positional_parameter_base@_WV?$console_output_adapter@_W@__crt_stdio_output@@@__crt_stdio_output@@CA?AW4parameter_type@12@_J@Z 10055dc0 f i libucrtd:cprintf.obj
 0001:00054dd0       ?get_parameter_type@?$positional_parameter_base@_WV?$console_output_adapter@_W@__crt_stdio_output@@@__crt_stdio_output@@CA?AW4parameter_type@12@_K@Z 10055dd0 f i libucrtd:cprintf.obj
 0001:00054de0       ?get_parameter_type@?$positional_parameter_base@_WV?$console_output_adapter@_W@__crt_stdio_output@@@__crt_stdio_output@@CA?AW4parameter_type@12@_W@Z 10055de0 f i libucrtd:cprintf.obj
 0001:00054df0       ?has_flag@?$output_processor@DV?$console_output_adapter@D@__crt_stdio_output@@V?$format_validation_base@DV?$console_output_adapter@D@__crt_stdio_output@@@2@@__crt_stdio_output@@ABE_NI@Z 10055df0 f i libucrtd:cprintf.obj
 0001:00054e20       ?has_flag@?$output_processor@DV?$console_output_adapter@D@__crt_stdio_output@@V?$positional_parameter_base@DV?$console_output_adapter@D@__crt_stdio_output@@@2@@__crt_stdio_output@@ABE_NI@Z 10055e20 f i libucrtd:cprintf.obj
 0001:00054e50       ?has_flag@?$output_processor@DV?$console_output_adapter@D@__crt_stdio_output@@V?$standard_base@DV?$console_output_adapter@D@__crt_stdio_output@@@2@@__crt_stdio_output@@ABE_NI@Z 10055e50 f i libucrtd:cprintf.obj
 0001:00054e80       ?has_flag@?$output_processor@_WV?$console_output_adapter@_W@__crt_stdio_output@@V?$format_validation_base@_WV?$console_output_adapter@_W@__crt_stdio_output@@@2@@__crt_stdio_output@@ABE_NI@Z 10055e80 f i libucrtd:cprintf.obj
 0001:00054eb0       ?has_flag@?$output_processor@_WV?$console_output_adapter@_W@__crt_stdio_output@@V?$positional_parameter_base@_WV?$console_output_adapter@_W@__crt_stdio_output@@@2@@__crt_stdio_output@@ABE_NI@Z 10055eb0 f i libucrtd:cprintf.obj
 0001:00054ee0       ?has_flag@?$output_processor@_WV?$console_output_adapter@_W@__crt_stdio_output@@V?$standard_base@_WV?$console_output_adapter@_W@__crt_stdio_output@@@2@@__crt_stdio_output@@ABE_NI@Z 10055ee0 f i libucrtd:cprintf.obj
 0001:00054f10       ?is_positional_parameter_reappearance_consistent@?$positional_parameter_base@DV?$console_output_adapter@D@__crt_stdio_output@@@__crt_stdio_output@@AAE_NABUparameter_data@12@W4parameter_type@12@DW4length_modifier@2@@Z 10055f10 f i libucrtd:cprintf.obj
 0001:00055140       ?is_positional_parameter_reappearance_consistent@?$positional_parameter_base@_WV?$console_output_adapter@_W@__crt_stdio_output@@@__crt_stdio_output@@AAE_NABUparameter_data@12@W4parameter_type@12@_WW4length_modifier@2@@Z 10056140 f i libucrtd:cprintf.obj
 0001:00055370       ?narrow_null_string@?$output_processor@DV?$console_output_adapter@D@__crt_stdio_output@@V?$format_validation_base@DV?$console_output_adapter@D@__crt_stdio_output@@@2@@__crt_stdio_output@@CAPADXZ 10056370 f i libucrtd:cprintf.obj
 0001:00055380       ?narrow_null_string@?$output_processor@DV?$console_output_adapter@D@__crt_stdio_output@@V?$positional_parameter_base@DV?$console_output_adapter@D@__crt_stdio_output@@@2@@__crt_stdio_output@@CAPADXZ 10056380 f i libucrtd:cprintf.obj
 0001:00055390       ?narrow_null_string@?$output_processor@DV?$console_output_adapter@D@__crt_stdio_output@@V?$standard_base@DV?$console_output_adapter@D@__crt_stdio_output@@@2@@__crt_stdio_output@@CAPADXZ 10056390 f i libucrtd:cprintf.obj
 0001:000553a0       ?narrow_null_string@?$output_processor@_WV?$console_output_adapter@_W@__crt_stdio_output@@V?$format_validation_base@_WV?$console_output_adapter@_W@__crt_stdio_output@@@2@@__crt_stdio_output@@CAPADXZ 100563a0 f i libucrtd:cprintf.obj
 0001:000553b0       ?narrow_null_string@?$output_processor@_WV?$console_output_adapter@_W@__crt_stdio_output@@V?$positional_parameter_base@_WV?$console_output_adapter@_W@__crt_stdio_output@@@2@@__crt_stdio_output@@CAPADXZ 100563b0 f i libucrtd:cprintf.obj
 0001:000553c0       ?narrow_null_string@?$output_processor@_WV?$console_output_adapter@_W@__crt_stdio_output@@V?$standard_base@_WV?$console_output_adapter@_W@__crt_stdio_output@@@2@@__crt_stdio_output@@CAPADXZ 100563c0 f i libucrtd:cprintf.obj
 0001:000553d0       ?parse_int_from_format_string@?$output_processor@DV?$console_output_adapter@D@__crt_stdio_output@@V?$format_validation_base@DV?$console_output_adapter@D@__crt_stdio_output@@@2@@__crt_stdio_output@@AAE_NQAH@Z 100563d0 f i libucrtd:cprintf.obj
 0001:00055490       ?parse_int_from_format_string@?$output_processor@DV?$console_output_adapter@D@__crt_stdio_output@@V?$positional_parameter_base@DV?$console_output_adapter@D@__crt_stdio_output@@@2@@__crt_stdio_output@@AAE_NQAH@Z 10056490 f i libucrtd:cprintf.obj
 0001:00055550       ?parse_int_from_format_string@?$output_processor@DV?$console_output_adapter@D@__crt_stdio_output@@V?$standard_base@DV?$console_output_adapter@D@__crt_stdio_output@@@2@@__crt_stdio_output@@AAE_NQAH@Z 10056550 f i libucrtd:cprintf.obj
 0001:00055610       ?parse_int_from_format_string@?$output_processor@_WV?$console_output_adapter@_W@__crt_stdio_output@@V?$format_validation_base@_WV?$console_output_adapter@_W@__crt_stdio_output@@@2@@__crt_stdio_output@@AAE_NQAH@Z 10056610 f i libucrtd:cprintf.obj
 0001:000556d0       ?parse_int_from_format_string@?$output_processor@_WV?$console_output_adapter@_W@__crt_stdio_output@@V?$positional_parameter_base@_WV?$console_output_adapter@_W@__crt_stdio_output@@@2@@__crt_stdio_output@@AAE_NQAH@Z 100566d0 f i libucrtd:cprintf.obj
 0001:00055790       ?parse_int_from_format_string@?$output_processor@_WV?$console_output_adapter@_W@__crt_stdio_output@@V?$standard_base@_WV?$console_output_adapter@_W@__crt_stdio_output@@@2@@__crt_stdio_output@@AAE_NQAH@Z 10056790 f i libucrtd:cprintf.obj
 0001:00055850       ?process@?$output_processor@DV?$console_output_adapter@D@__crt_stdio_output@@V?$format_validation_base@DV?$console_output_adapter@D@__crt_stdio_output@@@2@@__crt_stdio_output@@QAEHXZ 10056850 f i libucrtd:cprintf.obj
 0001:00055b30       ?process@?$output_processor@DV?$console_output_adapter@D@__crt_stdio_output@@V?$positional_parameter_base@DV?$console_output_adapter@D@__crt_stdio_output@@@2@@__crt_stdio_output@@QAEHXZ 10056b30 f i libucrtd:cprintf.obj
 0001:00055e10       ?process@?$output_processor@DV?$console_output_adapter@D@__crt_stdio_output@@V?$standard_base@DV?$console_output_adapter@D@__crt_stdio_output@@@2@@__crt_stdio_output@@QAEHXZ 10056e10 f i libucrtd:cprintf.obj
 0001:000560f0       ?process@?$output_processor@_WV?$console_output_adapter@_W@__crt_stdio_output@@V?$format_validation_base@_WV?$console_output_adapter@_W@__crt_stdio_output@@@2@@__crt_stdio_output@@QAEHXZ 100570f0 f i libucrtd:cprintf.obj
 0001:000563d0       ?process@?$output_processor@_WV?$console_output_adapter@_W@__crt_stdio_output@@V?$positional_parameter_base@_WV?$console_output_adapter@_W@__crt_stdio_output@@@2@@__crt_stdio_output@@QAEHXZ 100573d0 f i libucrtd:cprintf.obj
 0001:000566b0       ?process@?$output_processor@_WV?$console_output_adapter@_W@__crt_stdio_output@@V?$standard_base@_WV?$console_output_adapter@_W@__crt_stdio_output@@@2@@__crt_stdio_output@@QAEHXZ 100576b0 f i libucrtd:cprintf.obj
 0001:00056990       ?set_flag@?$output_processor@DV?$console_output_adapter@D@__crt_stdio_output@@V?$format_validation_base@DV?$console_output_adapter@D@__crt_stdio_output@@@2@@__crt_stdio_output@@AAEXI@Z 10057990 f i libucrtd:cprintf.obj
 0001:000569b0       ?set_flag@?$output_processor@DV?$console_output_adapter@D@__crt_stdio_output@@V?$positional_parameter_base@DV?$console_output_adapter@D@__crt_stdio_output@@@2@@__crt_stdio_output@@AAEXI@Z 100579b0 f i libucrtd:cprintf.obj
 0001:000569d0       ?set_flag@?$output_processor@DV?$console_output_adapter@D@__crt_stdio_output@@V?$standard_base@DV?$console_output_adapter@D@__crt_stdio_output@@@2@@__crt_stdio_output@@AAEXI@Z 100579d0 f i libucrtd:cprintf.obj
 0001:000569f0       ?set_flag@?$output_processor@_WV?$console_output_adapter@_W@__crt_stdio_output@@V?$format_validation_base@_WV?$console_output_adapter@_W@__crt_stdio_output@@@2@@__crt_stdio_output@@AAEXI@Z 100579f0 f i libucrtd:cprintf.obj
 0001:00056a10       ?set_flag@?$output_processor@_WV?$console_output_adapter@_W@__crt_stdio_output@@V?$positional_parameter_base@_WV?$console_output_adapter@_W@__crt_stdio_output@@@2@@__crt_stdio_output@@AAEXI@Z 10057a10 f i libucrtd:cprintf.obj
 0001:00056a30       ?set_flag@?$output_processor@_WV?$console_output_adapter@_W@__crt_stdio_output@@V?$standard_base@_WV?$console_output_adapter@_W@__crt_stdio_output@@@2@@__crt_stdio_output@@AAEXI@Z 10057a30 f i libucrtd:cprintf.obj
 0001:00056a50       ?should_format@?$positional_parameter_base@DV?$console_output_adapter@D@__crt_stdio_output@@@__crt_stdio_output@@IAE_NXZ 10057a50 f i libucrtd:cprintf.obj
 0001:00056a90       ?should_format@?$positional_parameter_base@_WV?$console_output_adapter@_W@__crt_stdio_output@@@__crt_stdio_output@@IAE_NXZ 10057a90 f i libucrtd:cprintf.obj
 0001:00056ad0       ?should_format@?$standard_base@DV?$console_output_adapter@D@__crt_stdio_output@@@__crt_stdio_output@@IAE_NXZ 10057ad0 f i libucrtd:cprintf.obj
 0001:00056ae0       ?should_format@?$standard_base@_WV?$console_output_adapter@_W@__crt_stdio_output@@@__crt_stdio_output@@IAE_NXZ 10057ae0 f i libucrtd:cprintf.obj
 0001:00056af0       ?should_skip_normal_state_processing@?$positional_parameter_base@DV?$console_output_adapter@D@__crt_stdio_output@@@__crt_stdio_output@@IAE_NXZ 10057af0 f i libucrtd:cprintf.obj
 0001:00056b40       ?should_skip_normal_state_processing@?$positional_parameter_base@_WV?$console_output_adapter@_W@__crt_stdio_output@@@__crt_stdio_output@@IAE_NXZ 10057b40 f i libucrtd:cprintf.obj
 0001:00056b90       ?should_skip_normal_state_processing@?$standard_base@DV?$console_output_adapter@D@__crt_stdio_output@@@__crt_stdio_output@@IAE_NXZ 10057b90 f i libucrtd:cprintf.obj
 0001:00056ba0       ?should_skip_normal_state_processing@?$standard_base@_WV?$console_output_adapter@_W@__crt_stdio_output@@@__crt_stdio_output@@IAE_NXZ 10057ba0 f i libucrtd:cprintf.obj
 0001:00056bb0       ?should_skip_type_state_output@?$positional_parameter_base@DV?$console_output_adapter@D@__crt_stdio_output@@@__crt_stdio_output@@IBE_NXZ 10057bb0 f i libucrtd:cprintf.obj
 0001:00056bf0       ?should_skip_type_state_output@?$positional_parameter_base@_WV?$console_output_adapter@_W@__crt_stdio_output@@@__crt_stdio_output@@IBE_NXZ 10057bf0 f i libucrtd:cprintf.obj
 0001:00056c30       ?should_skip_type_state_output@?$standard_base@DV?$console_output_adapter@D@__crt_stdio_output@@@__crt_stdio_output@@IBE_NXZ 10057c30 f i libucrtd:cprintf.obj
 0001:00056c40       ?should_skip_type_state_output@?$standard_base@_WV?$console_output_adapter@_W@__crt_stdio_output@@@__crt_stdio_output@@IBE_NXZ 10057c40 f i libucrtd:cprintf.obj
 0001:00056c50       ?state_case_dot@?$output_processor@DV?$console_output_adapter@D@__crt_stdio_output@@V?$format_validation_base@DV?$console_output_adapter@D@__crt_stdio_output@@@2@@__crt_stdio_output@@AAE_NXZ 10057c50 f i libucrtd:cprintf.obj
 0001:00056c70       ?state_case_dot@?$output_processor@DV?$console_output_adapter@D@__crt_stdio_output@@V?$positional_parameter_base@DV?$console_output_adapter@D@__crt_stdio_output@@@2@@__crt_stdio_output@@AAE_NXZ 10057c70 f i libucrtd:cprintf.obj
 0001:00056c90       ?state_case_dot@?$output_processor@DV?$console_output_adapter@D@__crt_stdio_output@@V?$standard_base@DV?$console_output_adapter@D@__crt_stdio_output@@@2@@__crt_stdio_output@@AAE_NXZ 10057c90 f i libucrtd:cprintf.obj
 0001:00056cb0       ?state_case_dot@?$output_processor@_WV?$console_output_adapter@_W@__crt_stdio_output@@V?$format_validation_base@_WV?$console_output_adapter@_W@__crt_stdio_output@@@2@@__crt_stdio_output@@AAE_NXZ 10057cb0 f i libucrtd:cprintf.obj
 0001:00056cd0       ?state_case_dot@?$output_processor@_WV?$console_output_adapter@_W@__crt_stdio_output@@V?$positional_parameter_base@_WV?$console_output_adapter@_W@__crt_stdio_output@@@2@@__crt_stdio_output@@AAE_NXZ 10057cd0 f i libucrtd:cprintf.obj
 0001:00056cf0       ?state_case_dot@?$output_processor@_WV?$console_output_adapter@_W@__crt_stdio_output@@V?$standard_base@_WV?$console_output_adapter@_W@__crt_stdio_output@@@2@@__crt_stdio_output@@AAE_NXZ 10057cf0 f i libucrtd:cprintf.obj
 0001:00056d10       ?state_case_flag@?$output_processor@DV?$console_output_adapter@D@__crt_stdio_output@@V?$format_validation_base@DV?$console_output_adapter@D@__crt_stdio_output@@@2@@__crt_stdio_output@@AAE_NXZ 10057d10 f i libucrtd:cprintf.obj
 0001:00056dc0       ?state_case_flag@?$output_processor@DV?$console_output_adapter@D@__crt_stdio_output@@V?$positional_parameter_base@DV?$console_output_adapter@D@__crt_stdio_output@@@2@@__crt_stdio_output@@AAE_NXZ 10057dc0 f i libucrtd:cprintf.obj
 0001:00056e70       ?state_case_flag@?$output_processor@DV?$console_output_adapter@D@__crt_stdio_output@@V?$standard_base@DV?$console_output_adapter@D@__crt_stdio_output@@@2@@__crt_stdio_output@@AAE_NXZ 10057e70 f i libucrtd:cprintf.obj
 0001:00056f20       ?state_case_flag@?$output_processor@_WV?$console_output_adapter@_W@__crt_stdio_output@@V?$format_validation_base@_WV?$console_output_adapter@_W@__crt_stdio_output@@@2@@__crt_stdio_output@@AAE_NXZ 10057f20 f i libucrtd:cprintf.obj
 0001:00056fd0       ?state_case_flag@?$output_processor@_WV?$console_output_adapter@_W@__crt_stdio_output@@V?$positional_parameter_base@_WV?$console_output_adapter@_W@__crt_stdio_output@@@2@@__crt_stdio_output@@AAE_NXZ 10057fd0 f i libucrtd:cprintf.obj
 0001:00057080       ?state_case_flag@?$output_processor@_WV?$console_output_adapter@_W@__crt_stdio_output@@V?$standard_base@_WV?$console_output_adapter@_W@__crt_stdio_output@@@2@@__crt_stdio_output@@AAE_NXZ 10058080 f i libucrtd:cprintf.obj
 0001:00057130       ?state_case_normal@?$output_processor@DV?$console_output_adapter@D@__crt_stdio_output@@V?$format_validation_base@DV?$console_output_adapter@D@__crt_stdio_output@@@2@@__crt_stdio_output@@AAE_NXZ 10058130 f i libucrtd:cprintf.obj
 0001:000571f0       ?state_case_normal@?$output_processor@DV?$console_output_adapter@D@__crt_stdio_output@@V?$positional_parameter_base@DV?$console_output_adapter@D@__crt_stdio_output@@@2@@__crt_stdio_output@@AAE_NXZ 100581f0 f i libucrtd:cprintf.obj
 0001:000572b0       ?state_case_normal@?$output_processor@DV?$console_output_adapter@D@__crt_stdio_output@@V?$standard_base@DV?$console_output_adapter@D@__crt_stdio_output@@@2@@__crt_stdio_output@@AAE_NXZ 100582b0 f i libucrtd:cprintf.obj
 0001:00057370       ?state_case_normal@?$output_processor@_WV?$console_output_adapter@_W@__crt_stdio_output@@V?$format_validation_base@_WV?$console_output_adapter@_W@__crt_stdio_output@@@2@@__crt_stdio_output@@AAE_NXZ 10058370 f i libucrtd:cprintf.obj
 0001:00057430       ?state_case_normal@?$output_processor@_WV?$console_output_adapter@_W@__crt_stdio_output@@V?$positional_parameter_base@_WV?$console_output_adapter@_W@__crt_stdio_output@@@2@@__crt_stdio_output@@AAE_NXZ 10058430 f i libucrtd:cprintf.obj
 0001:000574f0       ?state_case_normal@?$output_processor@_WV?$console_output_adapter@_W@__crt_stdio_output@@V?$standard_base@_WV?$console_output_adapter@_W@__crt_stdio_output@@@2@@__crt_stdio_output@@AAE_NXZ 100584f0 f i libucrtd:cprintf.obj
 0001:000575b0       ?state_case_normal_common@?$output_processor@DV?$console_output_adapter@D@__crt_stdio_output@@V?$format_validation_base@DV?$console_output_adapter@D@__crt_stdio_output@@@2@@__crt_stdio_output@@AAE_NXZ 100585b0 f i libucrtd:cprintf.obj
 0001:00057600       ?state_case_normal_common@?$output_processor@DV?$console_output_adapter@D@__crt_stdio_output@@V?$positional_parameter_base@DV?$console_output_adapter@D@__crt_stdio_output@@@2@@__crt_stdio_output@@AAE_NXZ 10058600 f i libucrtd:cprintf.obj
 0001:00057650       ?state_case_normal_common@?$output_processor@DV?$console_output_adapter@D@__crt_stdio_output@@V?$standard_base@DV?$console_output_adapter@D@__crt_stdio_output@@@2@@__crt_stdio_output@@AAE_NXZ 10058650 f i libucrtd:cprintf.obj
 0001:000576a0       ?state_case_normal_common@?$output_processor@_WV?$console_output_adapter@_W@__crt_stdio_output@@V?$format_validation_base@_WV?$console_output_adapter@_W@__crt_stdio_output@@@2@@__crt_stdio_output@@AAE_NXZ 100586a0 f i libucrtd:cprintf.obj
 0001:000576f0       ?state_case_normal_common@?$output_processor@_WV?$console_output_adapter@_W@__crt_stdio_output@@V?$positional_parameter_base@_WV?$console_output_adapter@_W@__crt_stdio_output@@@2@@__crt_stdio_output@@AAE_NXZ 100586f0 f i libucrtd:cprintf.obj
 0001:00057740       ?state_case_normal_common@?$output_processor@_WV?$console_output_adapter@_W@__crt_stdio_output@@V?$standard_base@_WV?$console_output_adapter@_W@__crt_stdio_output@@@2@@__crt_stdio_output@@AAE_NXZ 10058740 f i libucrtd:cprintf.obj
 0001:00057790       ?state_case_normal_tchar@?$output_processor@DV?$console_output_adapter@D@__crt_stdio_output@@V?$format_validation_base@DV?$console_output_adapter@D@__crt_stdio_output@@@2@@__crt_stdio_output@@AAE_ND@Z 10058790 f i libucrtd:cprintf.obj
 0001:000578c0       ?state_case_normal_tchar@?$output_processor@DV?$console_output_adapter@D@__crt_stdio_output@@V?$positional_parameter_base@DV?$console_output_adapter@D@__crt_stdio_output@@@2@@__crt_stdio_output@@AAE_ND@Z 100588c0 f i libucrtd:cprintf.obj
 0001:000579f0       ?state_case_normal_tchar@?$output_processor@DV?$console_output_adapter@D@__crt_stdio_output@@V?$standard_base@DV?$console_output_adapter@D@__crt_stdio_output@@@2@@__crt_stdio_output@@AAE_ND@Z 100589f0 f i libucrtd:cprintf.obj
 0001:00057b20       ?state_case_normal_tchar@?$output_processor@_WV?$console_output_adapter@_W@__crt_stdio_output@@V?$format_validation_base@_WV?$console_output_adapter@_W@__crt_stdio_output@@@2@@__crt_stdio_output@@AAE_N_W@Z 10058b20 f i libucrtd:cprintf.obj
 0001:00057b40       ?state_case_normal_tchar@?$output_processor@_WV?$console_output_adapter@_W@__crt_stdio_output@@V?$positional_parameter_base@_WV?$console_output_adapter@_W@__crt_stdio_output@@@2@@__crt_stdio_output@@AAE_N_W@Z 10058b40 f i libucrtd:cprintf.obj
 0001:00057b60       ?state_case_normal_tchar@?$output_processor@_WV?$console_output_adapter@_W@__crt_stdio_output@@V?$standard_base@_WV?$console_output_adapter@_W@__crt_stdio_output@@@2@@__crt_stdio_output@@AAE_N_W@Z 10058b60 f i libucrtd:cprintf.obj
 0001:00057b80       ?state_case_percent@?$output_processor@DV?$console_output_adapter@D@__crt_stdio_output@@V?$format_validation_base@DV?$console_output_adapter@D@__crt_stdio_output@@@2@@__crt_stdio_output@@AAE_NXZ 10058b80 f i libucrtd:cprintf.obj
 0001:00057bd0       ?state_case_percent@?$output_processor@DV?$console_output_adapter@D@__crt_stdio_output@@V?$positional_parameter_base@DV?$console_output_adapter@D@__crt_stdio_output@@@2@@__crt_stdio_output@@AAE_NXZ 10058bd0 f i libucrtd:cprintf.obj
 0001:00057c20       ?state_case_percent@?$output_processor@DV?$console_output_adapter@D@__crt_stdio_output@@V?$standard_base@DV?$console_output_adapter@D@__crt_stdio_output@@@2@@__crt_stdio_output@@AAE_NXZ 10058c20 f i libucrtd:cprintf.obj
 0001:00057c70       ?state_case_percent@?$output_processor@_WV?$console_output_adapter@_W@__crt_stdio_output@@V?$format_validation_base@_WV?$console_output_adapter@_W@__crt_stdio_output@@@2@@__crt_stdio_output@@AAE_NXZ 10058c70 f i libucrtd:cprintf.obj
 0001:00057cc0       ?state_case_percent@?$output_processor@_WV?$console_output_adapter@_W@__crt_stdio_output@@V?$positional_parameter_base@_WV?$console_output_adapter@_W@__crt_stdio_output@@@2@@__crt_stdio_output@@AAE_NXZ 10058cc0 f i libucrtd:cprintf.obj
 0001:00057d10       ?state_case_percent@?$output_processor@_WV?$console_output_adapter@_W@__crt_stdio_output@@V?$standard_base@_WV?$console_output_adapter@_W@__crt_stdio_output@@@2@@__crt_stdio_output@@AAE_NXZ 10058d10 f i libucrtd:cprintf.obj
 0001:00057d60       ?state_case_precision@?$output_processor@DV?$console_output_adapter@D@__crt_stdio_output@@V?$format_validation_base@DV?$console_output_adapter@D@__crt_stdio_output@@@2@@__crt_stdio_output@@AAE_NXZ 10058d60 f i libucrtd:cprintf.obj
 0001:00057dd0       ?state_case_precision@?$output_processor@DV?$console_output_adapter@D@__crt_stdio_output@@V?$positional_parameter_base@DV?$console_output_adapter@D@__crt_stdio_output@@@2@@__crt_stdio_output@@AAE_NXZ 10058dd0 f i libucrtd:cprintf.obj
 0001:00057e40       ?state_case_precision@?$output_processor@DV?$console_output_adapter@D@__crt_stdio_output@@V?$standard_base@DV?$console_output_adapter@D@__crt_stdio_output@@@2@@__crt_stdio_output@@AAE_NXZ 10058e40 f i libucrtd:cprintf.obj
 0001:00057eb0       ?state_case_precision@?$output_processor@_WV?$console_output_adapter@_W@__crt_stdio_output@@V?$format_validation_base@_WV?$console_output_adapter@_W@__crt_stdio_output@@@2@@__crt_stdio_output@@AAE_NXZ 10058eb0 f i libucrtd:cprintf.obj
 0001:00057f20       ?state_case_precision@?$output_processor@_WV?$console_output_adapter@_W@__crt_stdio_output@@V?$positional_parameter_base@_WV?$console_output_adapter@_W@__crt_stdio_output@@@2@@__crt_stdio_output@@AAE_NXZ 10058f20 f i libucrtd:cprintf.obj
 0001:00057f90       ?state_case_precision@?$output_processor@_WV?$console_output_adapter@_W@__crt_stdio_output@@V?$standard_base@_WV?$console_output_adapter@_W@__crt_stdio_output@@@2@@__crt_stdio_output@@AAE_NXZ 10058f90 f i libucrtd:cprintf.obj
 0001:00058000       ?state_case_size@?$output_processor@DV?$console_output_adapter@D@__crt_stdio_output@@V?$format_validation_base@DV?$console_output_adapter@D@__crt_stdio_output@@@2@@__crt_stdio_output@@AAE_NXZ 10059000 f i libucrtd:cprintf.obj
 0001:000583f0       ?state_case_size@?$output_processor@DV?$console_output_adapter@D@__crt_stdio_output@@V?$positional_parameter_base@DV?$console_output_adapter@D@__crt_stdio_output@@@2@@__crt_stdio_output@@AAE_NXZ 100593f0 f i libucrtd:cprintf.obj
 0001:000587e0       ?state_case_size@?$output_processor@DV?$console_output_adapter@D@__crt_stdio_output@@V?$standard_base@DV?$console_output_adapter@D@__crt_stdio_output@@@2@@__crt_stdio_output@@AAE_NXZ 100597e0 f i libucrtd:cprintf.obj
 0001:00058bd0       ?state_case_size@?$output_processor@_WV?$console_output_adapter@_W@__crt_stdio_output@@V?$format_validation_base@_WV?$console_output_adapter@_W@__crt_stdio_output@@@2@@__crt_stdio_output@@AAE_NXZ 10059bd0 f i libucrtd:cprintf.obj
 0001:00058fc0       ?state_case_size@?$output_processor@_WV?$console_output_adapter@_W@__crt_stdio_output@@V?$positional_parameter_base@_WV?$console_output_adapter@_W@__crt_stdio_output@@@2@@__crt_stdio_output@@AAE_NXZ 10059fc0 f i libucrtd:cprintf.obj
 0001:000593b0       ?state_case_size@?$output_processor@_WV?$console_output_adapter@_W@__crt_stdio_output@@V?$standard_base@_WV?$console_output_adapter@_W@__crt_stdio_output@@@2@@__crt_stdio_output@@AAE_NXZ 1005a3b0 f i libucrtd:cprintf.obj
 0001:000597a0       ?state_case_type@?$output_processor@DV?$console_output_adapter@D@__crt_stdio_output@@V?$format_validation_base@DV?$console_output_adapter@D@__crt_stdio_output@@@2@@__crt_stdio_output@@AAE_NXZ 1005a7a0 f i libucrtd:cprintf.obj
 0001:00059b70       ?state_case_type@?$output_processor@DV?$console_output_adapter@D@__crt_stdio_output@@V?$positional_parameter_base@DV?$console_output_adapter@D@__crt_stdio_output@@@2@@__crt_stdio_output@@AAE_NXZ 1005ab70 f i libucrtd:cprintf.obj
 0001:00059f40       ?state_case_type@?$output_processor@DV?$console_output_adapter@D@__crt_stdio_output@@V?$standard_base@DV?$console_output_adapter@D@__crt_stdio_output@@@2@@__crt_stdio_output@@AAE_NXZ 1005af40 f i libucrtd:cprintf.obj
 0001:0005a310       ?state_case_type@?$output_processor@_WV?$console_output_adapter@_W@__crt_stdio_output@@V?$format_validation_base@_WV?$console_output_adapter@_W@__crt_stdio_output@@@2@@__crt_stdio_output@@AAE_NXZ 1005b310 f i libucrtd:cprintf.obj
 0001:0005a710       ?state_case_type@?$output_processor@_WV?$console_output_adapter@_W@__crt_stdio_output@@V?$positional_parameter_base@_WV?$console_output_adapter@_W@__crt_stdio_output@@@2@@__crt_stdio_output@@AAE_NXZ 1005b710 f i libucrtd:cprintf.obj
 0001:0005ab10       ?state_case_type@?$output_processor@_WV?$console_output_adapter@_W@__crt_stdio_output@@V?$standard_base@_WV?$console_output_adapter@_W@__crt_stdio_output@@@2@@__crt_stdio_output@@AAE_NXZ 1005bb10 f i libucrtd:cprintf.obj
 0001:0005af10       ?state_case_width@?$output_processor@DV?$console_output_adapter@D@__crt_stdio_output@@V?$format_validation_base@DV?$console_output_adapter@D@__crt_stdio_output@@@2@@__crt_stdio_output@@AAE_NXZ 1005bf10 f i libucrtd:cprintf.obj
 0001:0005af90       ?state_case_width@?$output_processor@DV?$console_output_adapter@D@__crt_stdio_output@@V?$positional_parameter_base@DV?$console_output_adapter@D@__crt_stdio_output@@@2@@__crt_stdio_output@@AAE_NXZ 1005bf90 f i libucrtd:cprintf.obj
 0001:0005b010       ?state_case_width@?$output_processor@DV?$console_output_adapter@D@__crt_stdio_output@@V?$standard_base@DV?$console_output_adapter@D@__crt_stdio_output@@@2@@__crt_stdio_output@@AAE_NXZ 1005c010 f i libucrtd:cprintf.obj
 0001:0005b090       ?state_case_width@?$output_processor@_WV?$console_output_adapter@_W@__crt_stdio_output@@V?$format_validation_base@_WV?$console_output_adapter@_W@__crt_stdio_output@@@2@@__crt_stdio_output@@AAE_NXZ 1005c090 f i libucrtd:cprintf.obj
 0001:0005b110       ?state_case_width@?$output_processor@_WV?$console_output_adapter@_W@__crt_stdio_output@@V?$positional_parameter_base@_WV?$console_output_adapter@_W@__crt_stdio_output@@@2@@__crt_stdio_output@@AAE_NXZ 1005c110 f i libucrtd:cprintf.obj
 0001:0005b190       ?state_case_width@?$output_processor@_WV?$console_output_adapter@_W@__crt_stdio_output@@V?$standard_base@_WV?$console_output_adapter@_W@__crt_stdio_output@@@2@@__crt_stdio_output@@AAE_NXZ 1005c190 f i libucrtd:cprintf.obj
 0001:0005b210       ?state_count@?$format_validation_base@DV?$console_output_adapter@D@__crt_stdio_output@@@__crt_stdio_output@@KAIXZ 1005c210 f i libucrtd:cprintf.obj
 0001:0005b220       ?state_count@?$format_validation_base@_WV?$console_output_adapter@_W@__crt_stdio_output@@@__crt_stdio_output@@KAIXZ 1005c220 f i libucrtd:cprintf.obj
 0001:0005b230       ?state_count@?$standard_base@DV?$console_output_adapter@D@__crt_stdio_output@@@__crt_stdio_output@@KAIXZ 1005c230 f i libucrtd:cprintf.obj
 0001:0005b240       ?state_count@?$standard_base@_WV?$console_output_adapter@_W@__crt_stdio_output@@@__crt_stdio_output@@KAIXZ 1005c240 f i libucrtd:cprintf.obj
 0001:0005b250       ?state_transition_table@?$format_validation_base@DV?$console_output_adapter@D@__crt_stdio_output@@@__crt_stdio_output@@KAABV?$spectre_mitigated_lookup_table@Ustate_transition_pair@__crt_stdio_output@@$0IA@@2@XZ 1005c250 f i libucrtd:cprintf.obj
 0001:0005b260       ?state_transition_table@?$format_validation_base@_WV?$console_output_adapter@_W@__crt_stdio_output@@@__crt_stdio_output@@KAABV?$spectre_mitigated_lookup_table@Ustate_transition_pair@__crt_stdio_output@@$0IA@@2@XZ 1005c260 f i libucrtd:cprintf.obj
 0001:0005b270       ?state_transition_table@?$standard_base@DV?$console_output_adapter@D@__crt_stdio_output@@@__crt_stdio_output@@KAABV?$spectre_mitigated_lookup_table@Ustate_transition_pair@__crt_stdio_output@@$0IA@@2@XZ 1005c270 f i libucrtd:cprintf.obj
 0001:0005b280       ?state_transition_table@?$standard_base@_WV?$console_output_adapter@_W@__crt_stdio_output@@@__crt_stdio_output@@KAABV?$spectre_mitigated_lookup_table@Ustate_transition_pair@__crt_stdio_output@@$0IA@@2@XZ 1005c280 f i libucrtd:cprintf.obj
 0001:0005b290       ?type_case_X@?$output_processor@DV?$console_output_adapter@D@__crt_stdio_output@@V?$format_validation_base@DV?$console_output_adapter@D@__crt_stdio_output@@@2@@__crt_stdio_output@@AAE_NXZ 1005c290 f i libucrtd:cprintf.obj
 0001:0005b2b0       ?type_case_X@?$output_processor@DV?$console_output_adapter@D@__crt_stdio_output@@V?$positional_parameter_base@DV?$console_output_adapter@D@__crt_stdio_output@@@2@@__crt_stdio_output@@AAE_NXZ 1005c2b0 f i libucrtd:cprintf.obj
 0001:0005b2d0       ?type_case_X@?$output_processor@DV?$console_output_adapter@D@__crt_stdio_output@@V?$standard_base@DV?$console_output_adapter@D@__crt_stdio_output@@@2@@__crt_stdio_output@@AAE_NXZ 1005c2d0 f i libucrtd:cprintf.obj
 0001:0005b2f0       ?type_case_X@?$output_processor@_WV?$console_output_adapter@_W@__crt_stdio_output@@V?$format_validation_base@_WV?$console_output_adapter@_W@__crt_stdio_output@@@2@@__crt_stdio_output@@AAE_NXZ 1005c2f0 f i libucrtd:cprintf.obj
 0001:0005b310       ?type_case_X@?$output_processor@_WV?$console_output_adapter@_W@__crt_stdio_output@@V?$positional_parameter_base@_WV?$console_output_adapter@_W@__crt_stdio_output@@@2@@__crt_stdio_output@@AAE_NXZ 1005c310 f i libucrtd:cprintf.obj
 0001:0005b330       ?type_case_X@?$output_processor@_WV?$console_output_adapter@_W@__crt_stdio_output@@V?$standard_base@_WV?$console_output_adapter@_W@__crt_stdio_output@@@2@@__crt_stdio_output@@AAE_NXZ 1005c330 f i libucrtd:cprintf.obj
 0001:0005b350       ?type_case_Z@?$output_processor@DV?$console_output_adapter@D@__crt_stdio_output@@V?$format_validation_base@DV?$console_output_adapter@D@__crt_stdio_output@@@2@@__crt_stdio_output@@AAE_NXZ 1005c350 f i libucrtd:cprintf.obj
 0001:0005b440       ?type_case_Z@?$output_processor@DV?$console_output_adapter@D@__crt_stdio_output@@V?$positional_parameter_base@DV?$console_output_adapter@D@__crt_stdio_output@@@2@@__crt_stdio_output@@AAE_NXZ 1005c440 f i libucrtd:cprintf.obj
 0001:0005b530       ?type_case_Z@?$output_processor@DV?$console_output_adapter@D@__crt_stdio_output@@V?$standard_base@DV?$console_output_adapter@D@__crt_stdio_output@@@2@@__crt_stdio_output@@AAE_NXZ 1005c530 f i libucrtd:cprintf.obj
 0001:0005b620       ?type_case_Z@?$output_processor@_WV?$console_output_adapter@_W@__crt_stdio_output@@V?$format_validation_base@_WV?$console_output_adapter@_W@__crt_stdio_output@@@2@@__crt_stdio_output@@AAE_NXZ 1005c620 f i libucrtd:cprintf.obj
 0001:0005b710       ?type_case_Z@?$output_processor@_WV?$console_output_adapter@_W@__crt_stdio_output@@V?$positional_parameter_base@_WV?$console_output_adapter@_W@__crt_stdio_output@@@2@@__crt_stdio_output@@AAE_NXZ 1005c710 f i libucrtd:cprintf.obj
 0001:0005b800       ?type_case_Z@?$output_processor@_WV?$console_output_adapter@_W@__crt_stdio_output@@V?$standard_base@_WV?$console_output_adapter@_W@__crt_stdio_output@@@2@@__crt_stdio_output@@AAE_NXZ 1005c800 f i libucrtd:cprintf.obj
 0001:0005b8f0       ?type_case_a@?$output_processor@DV?$console_output_adapter@D@__crt_stdio_output@@V?$format_validation_base@DV?$console_output_adapter@D@__crt_stdio_output@@@2@@__crt_stdio_output@@AAE_NXZ 1005c8f0 f i libucrtd:cprintf.obj
 0001:0005bbc0       ?type_case_a@?$output_processor@DV?$console_output_adapter@D@__crt_stdio_output@@V?$positional_parameter_base@DV?$console_output_adapter@D@__crt_stdio_output@@@2@@__crt_stdio_output@@AAE_NXZ 1005cbc0 f i libucrtd:cprintf.obj
 0001:0005be90       ?type_case_a@?$output_processor@DV?$console_output_adapter@D@__crt_stdio_output@@V?$standard_base@DV?$console_output_adapter@D@__crt_stdio_output@@@2@@__crt_stdio_output@@AAE_NXZ 1005ce90 f i libucrtd:cprintf.obj
 0001:0005c160       ?type_case_a@?$output_processor@_WV?$console_output_adapter@_W@__crt_stdio_output@@V?$format_validation_base@_WV?$console_output_adapter@_W@__crt_stdio_output@@@2@@__crt_stdio_output@@AAE_NXZ 1005d160 f i libucrtd:cprintf.obj
 0001:0005c430       ?type_case_a@?$output_processor@_WV?$console_output_adapter@_W@__crt_stdio_output@@V?$positional_parameter_base@_WV?$console_output_adapter@_W@__crt_stdio_output@@@2@@__crt_stdio_output@@AAE_NXZ 1005d430 f i libucrtd:cprintf.obj
 0001:0005c700       ?type_case_a@?$output_processor@_WV?$console_output_adapter@_W@__crt_stdio_output@@V?$standard_base@_WV?$console_output_adapter@_W@__crt_stdio_output@@@2@@__crt_stdio_output@@AAE_NXZ 1005d700 f i libucrtd:cprintf.obj
 0001:0005c9d0       ?type_case_c@?$output_processor@DV?$console_output_adapter@D@__crt_stdio_output@@V?$format_validation_base@DV?$console_output_adapter@D@__crt_stdio_output@@@2@@__crt_stdio_output@@AAE_NXZ 1005d9d0 f i libucrtd:cprintf.obj
 0001:0005c9f0       ?type_case_c@?$output_processor@DV?$console_output_adapter@D@__crt_stdio_output@@V?$positional_parameter_base@DV?$console_output_adapter@D@__crt_stdio_output@@@2@@__crt_stdio_output@@AAE_NXZ 1005d9f0 f i libucrtd:cprintf.obj
 0001:0005ca10       ?type_case_c@?$output_processor@DV?$console_output_adapter@D@__crt_stdio_output@@V?$standard_base@DV?$console_output_adapter@D@__crt_stdio_output@@@2@@__crt_stdio_output@@AAE_NXZ 1005da10 f i libucrtd:cprintf.obj
 0001:0005ca30       ?type_case_c@?$output_processor@_WV?$console_output_adapter@_W@__crt_stdio_output@@V?$format_validation_base@_WV?$console_output_adapter@_W@__crt_stdio_output@@@2@@__crt_stdio_output@@AAE_NXZ 1005da30 f i libucrtd:cprintf.obj
 0001:0005ca50       ?type_case_c@?$output_processor@_WV?$console_output_adapter@_W@__crt_stdio_output@@V?$positional_parameter_base@_WV?$console_output_adapter@_W@__crt_stdio_output@@@2@@__crt_stdio_output@@AAE_NXZ 1005da50 f i libucrtd:cprintf.obj
 0001:0005ca70       ?type_case_c@?$output_processor@_WV?$console_output_adapter@_W@__crt_stdio_output@@V?$standard_base@_WV?$console_output_adapter@_W@__crt_stdio_output@@@2@@__crt_stdio_output@@AAE_NXZ 1005da70 f i libucrtd:cprintf.obj
 0001:0005ca90       ?type_case_c_tchar@?$output_processor@DV?$console_output_adapter@D@__crt_stdio_output@@V?$format_validation_base@DV?$console_output_adapter@D@__crt_stdio_output@@@2@@__crt_stdio_output@@AAE_ND@Z 1005da90 f i libucrtd:cprintf.obj
 0001:0005cbc0       ?type_case_c_tchar@?$output_processor@DV?$console_output_adapter@D@__crt_stdio_output@@V?$positional_parameter_base@DV?$console_output_adapter@D@__crt_stdio_output@@@2@@__crt_stdio_output@@AAE_ND@Z 1005dbc0 f i libucrtd:cprintf.obj
 0001:0005ccf0       ?type_case_c_tchar@?$output_processor@DV?$console_output_adapter@D@__crt_stdio_output@@V?$standard_base@DV?$console_output_adapter@D@__crt_stdio_output@@@2@@__crt_stdio_output@@AAE_ND@Z 1005dcf0 f i libucrtd:cprintf.obj
 0001:0005ce20       ?type_case_c_tchar@?$output_processor@_WV?$console_output_adapter@_W@__crt_stdio_output@@V?$format_validation_base@_WV?$console_output_adapter@_W@__crt_stdio_output@@@2@@__crt_stdio_output@@AAE_N_W@Z 1005de20 f i libucrtd:cprintf.obj
 0001:0005cf40       ?type_case_c_tchar@?$output_processor@_WV?$console_output_adapter@_W@__crt_stdio_output@@V?$positional_parameter_base@_WV?$console_output_adapter@_W@__crt_stdio_output@@@2@@__crt_stdio_output@@AAE_N_W@Z 1005df40 f i libucrtd:cprintf.obj
 0001:0005d060       ?type_case_c_tchar@?$output_processor@_WV?$console_output_adapter@_W@__crt_stdio_output@@V?$standard_base@_WV?$console_output_adapter@_W@__crt_stdio_output@@@2@@__crt_stdio_output@@AAE_N_W@Z 1005e060 f i libucrtd:cprintf.obj
 0001:0005d180       ?type_case_d@?$output_processor@DV?$console_output_adapter@D@__crt_stdio_output@@V?$format_validation_base@DV?$console_output_adapter@D@__crt_stdio_output@@@2@@__crt_stdio_output@@AAE_NXZ 1005e180 f i libucrtd:cprintf.obj
 0001:0005d1b0       ?type_case_d@?$output_processor@DV?$console_output_adapter@D@__crt_stdio_output@@V?$positional_parameter_base@DV?$console_output_adapter@D@__crt_stdio_output@@@2@@__crt_stdio_output@@AAE_NXZ 1005e1b0 f i libucrtd:cprintf.obj
 0001:0005d1e0       ?type_case_d@?$output_processor@DV?$console_output_adapter@D@__crt_stdio_output@@V?$standard_base@DV?$console_output_adapter@D@__crt_stdio_output@@@2@@__crt_stdio_output@@AAE_NXZ 1005e1e0 f i libucrtd:cprintf.obj
 0001:0005d210       ?type_case_d@?$output_processor@_WV?$console_output_adapter@_W@__crt_stdio_output@@V?$format_validation_base@_WV?$console_output_adapter@_W@__crt_stdio_output@@@2@@__crt_stdio_output@@AAE_NXZ 1005e210 f i libucrtd:cprintf.obj
 0001:0005d240       ?type_case_d@?$output_processor@_WV?$console_output_adapter@_W@__crt_stdio_output@@V?$positional_parameter_base@_WV?$console_output_adapter@_W@__crt_stdio_output@@@2@@__crt_stdio_output@@AAE_NXZ 1005e240 f i libucrtd:cprintf.obj
 0001:0005d270       ?type_case_d@?$output_processor@_WV?$console_output_adapter@_W@__crt_stdio_output@@V?$standard_base@_WV?$console_output_adapter@_W@__crt_stdio_output@@@2@@__crt_stdio_output@@AAE_NXZ 1005e270 f i libucrtd:cprintf.obj
 0001:0005d2a0       ?type_case_n@?$output_processor@DV?$console_output_adapter@D@__crt_stdio_output@@V?$format_validation_base@DV?$console_output_adapter@D@__crt_stdio_output@@@2@@__crt_stdio_output@@AAE_NXZ 1005e2a0 f i libucrtd:cprintf.obj
 0001:0005d4c0       ?type_case_n@?$output_processor@DV?$console_output_adapter@D@__crt_stdio_output@@V?$positional_parameter_base@DV?$console_output_adapter@D@__crt_stdio_output@@@2@@__crt_stdio_output@@AAE_NXZ 1005e4c0 f i libucrtd:cprintf.obj
 0001:0005d6e0       ?type_case_n@?$output_processor@DV?$console_output_adapter@D@__crt_stdio_output@@V?$standard_base@DV?$console_output_adapter@D@__crt_stdio_output@@@2@@__crt_stdio_output@@AAE_NXZ 1005e6e0 f i libucrtd:cprintf.obj
 0001:0005d900       ?type_case_n@?$output_processor@_WV?$console_output_adapter@_W@__crt_stdio_output@@V?$format_validation_base@_WV?$console_output_adapter@_W@__crt_stdio_output@@@2@@__crt_stdio_output@@AAE_NXZ 1005e900 f i libucrtd:cprintf.obj
 0001:0005db20       ?type_case_n@?$output_processor@_WV?$console_output_adapter@_W@__crt_stdio_output@@V?$positional_parameter_base@_WV?$console_output_adapter@_W@__crt_stdio_output@@@2@@__crt_stdio_output@@AAE_NXZ 1005eb20 f i libucrtd:cprintf.obj
 0001:0005dd40       ?type_case_n@?$output_processor@_WV?$console_output_adapter@_W@__crt_stdio_output@@V?$standard_base@_WV?$console_output_adapter@_W@__crt_stdio_output@@@2@@__crt_stdio_output@@AAE_NXZ 1005ed40 f i libucrtd:cprintf.obj
 0001:0005df60       ?type_case_o@?$output_processor@DV?$console_output_adapter@D@__crt_stdio_output@@V?$format_validation_base@DV?$console_output_adapter@D@__crt_stdio_output@@@2@@__crt_stdio_output@@AAE_NXZ 1005ef60 f i libucrtd:cprintf.obj
 0001:0005dfa0       ?type_case_o@?$output_processor@DV?$console_output_adapter@D@__crt_stdio_output@@V?$positional_parameter_base@DV?$console_output_adapter@D@__crt_stdio_output@@@2@@__crt_stdio_output@@AAE_NXZ 1005efa0 f i libucrtd:cprintf.obj
 0001:0005dfe0       ?type_case_o@?$output_processor@DV?$console_output_adapter@D@__crt_stdio_output@@V?$standard_base@DV?$console_output_adapter@D@__crt_stdio_output@@@2@@__crt_stdio_output@@AAE_NXZ 1005efe0 f i libucrtd:cprintf.obj
 0001:0005e020       ?type_case_o@?$output_processor@_WV?$console_output_adapter@_W@__crt_stdio_output@@V?$format_validation_base@_WV?$console_output_adapter@_W@__crt_stdio_output@@@2@@__crt_stdio_output@@AAE_NXZ 1005f020 f i libucrtd:cprintf.obj
 0001:0005e060       ?type_case_o@?$output_processor@_WV?$console_output_adapter@_W@__crt_stdio_output@@V?$positional_parameter_base@_WV?$console_output_adapter@_W@__crt_stdio_output@@@2@@__crt_stdio_output@@AAE_NXZ 1005f060 f i libucrtd:cprintf.obj
 0001:0005e0a0       ?type_case_o@?$output_processor@_WV?$console_output_adapter@_W@__crt_stdio_output@@V?$standard_base@_WV?$console_output_adapter@_W@__crt_stdio_output@@@2@@__crt_stdio_output@@AAE_NXZ 1005f0a0 f i libucrtd:cprintf.obj
 0001:0005e0e0       ?type_case_p@?$output_processor@DV?$console_output_adapter@D@__crt_stdio_output@@V?$format_validation_base@DV?$console_output_adapter@D@__crt_stdio_output@@@2@@__crt_stdio_output@@AAE_NXZ 1005f0e0 f i libucrtd:cprintf.obj
 0001:0005e110       ?type_case_p@?$output_processor@DV?$console_output_adapter@D@__crt_stdio_output@@V?$positional_parameter_base@DV?$console_output_adapter@D@__crt_stdio_output@@@2@@__crt_stdio_output@@AAE_NXZ 1005f110 f i libucrtd:cprintf.obj
 0001:0005e140       ?type_case_p@?$output_processor@DV?$console_output_adapter@D@__crt_stdio_output@@V?$standard_base@DV?$console_output_adapter@D@__crt_stdio_output@@@2@@__crt_stdio_output@@AAE_NXZ 1005f140 f i libucrtd:cprintf.obj
 0001:0005e170       ?type_case_p@?$output_processor@_WV?$console_output_adapter@_W@__crt_stdio_output@@V?$format_validation_base@_WV?$console_output_adapter@_W@__crt_stdio_output@@@2@@__crt_stdio_output@@AAE_NXZ 1005f170 f i libucrtd:cprintf.obj
 0001:0005e1a0       ?type_case_p@?$output_processor@_WV?$console_output_adapter@_W@__crt_stdio_output@@V?$positional_parameter_base@_WV?$console_output_adapter@_W@__crt_stdio_output@@@2@@__crt_stdio_output@@AAE_NXZ 1005f1a0 f i libucrtd:cprintf.obj
 0001:0005e1d0       ?type_case_p@?$output_processor@_WV?$console_output_adapter@_W@__crt_stdio_output@@V?$standard_base@_WV?$console_output_adapter@_W@__crt_stdio_output@@@2@@__crt_stdio_output@@AAE_NXZ 1005f1d0 f i libucrtd:cprintf.obj
 0001:0005e200       ?type_case_s@?$output_processor@DV?$console_output_adapter@D@__crt_stdio_output@@V?$format_validation_base@DV?$console_output_adapter@D@__crt_stdio_output@@@2@@__crt_stdio_output@@AAE_NXZ 1005f200 f i libucrtd:cprintf.obj
 0001:0005e2f0       ?type_case_s@?$output_processor@DV?$console_output_adapter@D@__crt_stdio_output@@V?$positional_parameter_base@DV?$console_output_adapter@D@__crt_stdio_output@@@2@@__crt_stdio_output@@AAE_NXZ 1005f2f0 f i libucrtd:cprintf.obj
 0001:0005e3e0       ?type_case_s@?$output_processor@DV?$console_output_adapter@D@__crt_stdio_output@@V?$standard_base@DV?$console_output_adapter@D@__crt_stdio_output@@@2@@__crt_stdio_output@@AAE_NXZ 1005f3e0 f i libucrtd:cprintf.obj
 0001:0005e4d0       ?type_case_s@?$output_processor@_WV?$console_output_adapter@_W@__crt_stdio_output@@V?$format_validation_base@_WV?$console_output_adapter@_W@__crt_stdio_output@@@2@@__crt_stdio_output@@AAE_NXZ 1005f4d0 f i libucrtd:cprintf.obj
 0001:0005e5c0       ?type_case_s@?$output_processor@_WV?$console_output_adapter@_W@__crt_stdio_output@@V?$positional_parameter_base@_WV?$console_output_adapter@_W@__crt_stdio_output@@@2@@__crt_stdio_output@@AAE_NXZ 1005f5c0 f i libucrtd:cprintf.obj
 0001:0005e6b0       ?type_case_s@?$output_processor@_WV?$console_output_adapter@_W@__crt_stdio_output@@V?$standard_base@_WV?$console_output_adapter@_W@__crt_stdio_output@@@2@@__crt_stdio_output@@AAE_NXZ 1005f6b0 f i libucrtd:cprintf.obj
 0001:0005e7a0       ?type_case_s_compute_narrow_string_length@?$output_processor@DV?$console_output_adapter@D@__crt_stdio_output@@V?$format_validation_base@DV?$console_output_adapter@D@__crt_stdio_output@@@2@@__crt_stdio_output@@AAEHHD@Z 1005f7a0 f i libucrtd:cprintf.obj
 0001:0005e7d0       ?type_case_s_compute_narrow_string_length@?$output_processor@DV?$console_output_adapter@D@__crt_stdio_output@@V?$positional_parameter_base@DV?$console_output_adapter@D@__crt_stdio_output@@@2@@__crt_stdio_output@@AAEHHD@Z 1005f7d0 f i libucrtd:cprintf.obj
 0001:0005e800       ?type_case_s_compute_narrow_string_length@?$output_processor@DV?$console_output_adapter@D@__crt_stdio_output@@V?$standard_base@DV?$console_output_adapter@D@__crt_stdio_output@@@2@@__crt_stdio_output@@AAEHHD@Z 1005f800 f i libucrtd:cprintf.obj
 0001:0005e830       ?type_case_s_compute_narrow_string_length@?$output_processor@_WV?$console_output_adapter@_W@__crt_stdio_output@@V?$format_validation_base@_WV?$console_output_adapter@_W@__crt_stdio_output@@@2@@__crt_stdio_output@@AAEHH_W@Z 1005f830 f i libucrtd:cprintf.obj
 0001:0005e8b0       ?type_case_s_compute_narrow_string_length@?$output_processor@_WV?$console_output_adapter@_W@__crt_stdio_output@@V?$positional_parameter_base@_WV?$console_output_adapter@_W@__crt_stdio_output@@@2@@__crt_stdio_output@@AAEHH_W@Z 1005f8b0 f i libucrtd:cprintf.obj
 0001:0005e930       ?type_case_s_compute_narrow_string_length@?$output_processor@_WV?$console_output_adapter@_W@__crt_stdio_output@@V?$standard_base@_WV?$console_output_adapter@_W@__crt_stdio_output@@@2@@__crt_stdio_output@@AAEHH_W@Z 1005f930 f i libucrtd:cprintf.obj
 0001:0005e9b0       ?type_case_u@?$output_processor@DV?$console_output_adapter@D@__crt_stdio_output@@V?$format_validation_base@DV?$console_output_adapter@D@__crt_stdio_output@@@2@@__crt_stdio_output@@AAE_NXZ 1005f9b0 f i libucrtd:cprintf.obj
 0001:0005e9d0       ?type_case_u@?$output_processor@DV?$console_output_adapter@D@__crt_stdio_output@@V?$positional_parameter_base@DV?$console_output_adapter@D@__crt_stdio_output@@@2@@__crt_stdio_output@@AAE_NXZ 1005f9d0 f i libucrtd:cprintf.obj
 0001:0005e9f0       ?type_case_u@?$output_processor@DV?$console_output_adapter@D@__crt_stdio_output@@V?$standard_base@DV?$console_output_adapter@D@__crt_stdio_output@@@2@@__crt_stdio_output@@AAE_NXZ 1005f9f0 f i libucrtd:cprintf.obj
 0001:0005ea10       ?type_case_u@?$output_processor@_WV?$console_output_adapter@_W@__crt_stdio_output@@V?$format_validation_base@_WV?$console_output_adapter@_W@__crt_stdio_output@@@2@@__crt_stdio_output@@AAE_NXZ 1005fa10 f i libucrtd:cprintf.obj
 0001:0005ea30       ?type_case_u@?$output_processor@_WV?$console_output_adapter@_W@__crt_stdio_output@@V?$positional_parameter_base@_WV?$console_output_adapter@_W@__crt_stdio_output@@@2@@__crt_stdio_output@@AAE_NXZ 1005fa30 f i libucrtd:cprintf.obj
 0001:0005ea50       ?type_case_u@?$output_processor@_WV?$console_output_adapter@_W@__crt_stdio_output@@V?$standard_base@_WV?$console_output_adapter@_W@__crt_stdio_output@@@2@@__crt_stdio_output@@AAE_NXZ 1005fa50 f i libucrtd:cprintf.obj
 0001:0005ea70       ?type_case_x@?$output_processor@DV?$console_output_adapter@D@__crt_stdio_output@@V?$format_validation_base@DV?$console_output_adapter@D@__crt_stdio_output@@@2@@__crt_stdio_output@@AAE_NXZ 1005fa70 f i libucrtd:cprintf.obj
 0001:0005ea90       ?type_case_x@?$output_processor@DV?$console_output_adapter@D@__crt_stdio_output@@V?$positional_parameter_base@DV?$console_output_adapter@D@__crt_stdio_output@@@2@@__crt_stdio_output@@AAE_NXZ 1005fa90 f i libucrtd:cprintf.obj
 0001:0005eab0       ?type_case_x@?$output_processor@DV?$console_output_adapter@D@__crt_stdio_output@@V?$standard_base@DV?$console_output_adapter@D@__crt_stdio_output@@@2@@__crt_stdio_output@@AAE_NXZ 1005fab0 f i libucrtd:cprintf.obj
 0001:0005ead0       ?type_case_x@?$output_processor@_WV?$console_output_adapter@_W@__crt_stdio_output@@V?$format_validation_base@_WV?$console_output_adapter@_W@__crt_stdio_output@@@2@@__crt_stdio_output@@AAE_NXZ 1005fad0 f i libucrtd:cprintf.obj
 0001:0005eaf0       ?type_case_x@?$output_processor@_WV?$console_output_adapter@_W@__crt_stdio_output@@V?$positional_parameter_base@_WV?$console_output_adapter@_W@__crt_stdio_output@@@2@@__crt_stdio_output@@AAE_NXZ 1005faf0 f i libucrtd:cprintf.obj
 0001:0005eb10       ?type_case_x@?$output_processor@_WV?$console_output_adapter@_W@__crt_stdio_output@@V?$standard_base@_WV?$console_output_adapter@_W@__crt_stdio_output@@@2@@__crt_stdio_output@@AAE_NXZ 1005fb10 f i libucrtd:cprintf.obj
 0001:0005eb30       ?unset_flag@?$output_processor@DV?$console_output_adapter@D@__crt_stdio_output@@V?$format_validation_base@DV?$console_output_adapter@D@__crt_stdio_output@@@2@@__crt_stdio_output@@AAEXI@Z 1005fb30 f i libucrtd:cprintf.obj
 0001:0005eb50       ?unset_flag@?$output_processor@DV?$console_output_adapter@D@__crt_stdio_output@@V?$positional_parameter_base@DV?$console_output_adapter@D@__crt_stdio_output@@@2@@__crt_stdio_output@@AAEXI@Z 1005fb50 f i libucrtd:cprintf.obj
 0001:0005eb70       ?unset_flag@?$output_processor@DV?$console_output_adapter@D@__crt_stdio_output@@V?$standard_base@DV?$console_output_adapter@D@__crt_stdio_output@@@2@@__crt_stdio_output@@AAEXI@Z 1005fb70 f i libucrtd:cprintf.obj
 0001:0005eb90       ?unset_flag@?$output_processor@_WV?$console_output_adapter@_W@__crt_stdio_output@@V?$format_validation_base@_WV?$console_output_adapter@_W@__crt_stdio_output@@@2@@__crt_stdio_output@@AAEXI@Z 1005fb90 f i libucrtd:cprintf.obj
 0001:0005ebb0       ?unset_flag@?$output_processor@_WV?$console_output_adapter@_W@__crt_stdio_output@@V?$positional_parameter_base@_WV?$console_output_adapter@_W@__crt_stdio_output@@@2@@__crt_stdio_output@@AAEXI@Z 1005fbb0 f i libucrtd:cprintf.obj
 0001:0005ebd0       ?unset_flag@?$output_processor@_WV?$console_output_adapter@_W@__crt_stdio_output@@V?$standard_base@_WV?$console_output_adapter@_W@__crt_stdio_output@@@2@@__crt_stdio_output@@AAEXI@Z 1005fbd0 f i libucrtd:cprintf.obj
 0001:0005ebf0       ?update_field_width@?$positional_parameter_base@DV?$console_output_adapter@D@__crt_stdio_output@@@__crt_stdio_output@@IAE_NXZ 1005fbf0 f i libucrtd:cprintf.obj
 0001:0005ed80       ?update_field_width@?$positional_parameter_base@_WV?$console_output_adapter@_W@__crt_stdio_output@@@__crt_stdio_output@@IAE_NXZ 1005fd80 f i libucrtd:cprintf.obj
 0001:0005ef10       ?update_field_width@?$standard_base@DV?$console_output_adapter@D@__crt_stdio_output@@@__crt_stdio_output@@IAE_NXZ 1005ff10 f i libucrtd:cprintf.obj
 0001:0005ef40       ?update_field_width@?$standard_base@_WV?$console_output_adapter@_W@__crt_stdio_output@@@__crt_stdio_output@@IAE_NXZ 1005ff40 f i libucrtd:cprintf.obj
 0001:0005ef70       ?update_precision@?$positional_parameter_base@DV?$console_output_adapter@D@__crt_stdio_output@@@__crt_stdio_output@@IAE_NXZ 1005ff70 f i libucrtd:cprintf.obj
 0001:0005f100       ?update_precision@?$positional_parameter_base@_WV?$console_output_adapter@_W@__crt_stdio_output@@@__crt_stdio_output@@IAE_NXZ 10060100 f i libucrtd:cprintf.obj
 0001:0005f290       ?update_precision@?$standard_base@DV?$console_output_adapter@D@__crt_stdio_output@@@__crt_stdio_output@@IAE_NXZ 10060290 f i libucrtd:cprintf.obj
 0001:0005f2c0       ?update_precision@?$standard_base@_WV?$console_output_adapter@_W@__crt_stdio_output@@@__crt_stdio_output@@IAE_NXZ 100602c0 f i libucrtd:cprintf.obj
 0001:0005f2f0       ?validate@?$console_output_adapter@D@__crt_stdio_output@@QBE_NAAV__crt_cached_ptd_host@@@Z 100602f0 f i libucrtd:cprintf.obj
 0001:0005f310       ?validate@?$console_output_adapter@_W@__crt_stdio_output@@QBE_NAAV__crt_cached_ptd_host@@@Z 10060310 f i libucrtd:cprintf.obj
 0001:0005f330       ?validate_and_store_parameter_data@?$positional_parameter_base@DV?$console_output_adapter@D@__crt_stdio_output@@@__crt_stdio_output@@AAE_NAAUparameter_data@12@W4parameter_type@12@DW4length_modifier@2@@Z 10060330 f i libucrtd:cprintf.obj
 0001:0005f420       ?validate_and_store_parameter_data@?$positional_parameter_base@_WV?$console_output_adapter@_W@__crt_stdio_output@@@__crt_stdio_output@@AAE_NAAUparameter_data@12@W4parameter_type@12@_WW4length_modifier@2@@Z 10060420 f i libucrtd:cprintf.obj
 0001:0005f510       ?validate_and_update_state_at_beginning_of_format_character@?$positional_parameter_base@DV?$console_output_adapter@D@__crt_stdio_output@@@__crt_stdio_output@@IAE_NXZ 10060510 f i libucrtd:cprintf.obj
 0001:0005f740       ?validate_and_update_state_at_beginning_of_format_character@?$positional_parameter_base@_WV?$console_output_adapter@_W@__crt_stdio_output@@@__crt_stdio_output@@IAE_NXZ 10060740 f i libucrtd:cprintf.obj
 0001:0005f970       ?validate_and_update_state_at_beginning_of_format_character@?$standard_base@DV?$console_output_adapter@D@__crt_stdio_output@@@__crt_stdio_output@@IAE_NXZ 10060970 f i libucrtd:cprintf.obj
 0001:0005f980       ?validate_and_update_state_at_beginning_of_format_character@?$standard_base@_WV?$console_output_adapter@_W@__crt_stdio_output@@@__crt_stdio_output@@IAE_NXZ 10060980 f i libucrtd:cprintf.obj
 0001:0005f990       ?validate_and_update_state_at_end_of_format_string@?$format_validation_base@DV?$console_output_adapter@D@__crt_stdio_output@@@__crt_stdio_output@@IAE_NXZ 10060990 f i libucrtd:cprintf.obj
 0001:0005fa40       ?validate_and_update_state_at_end_of_format_string@?$format_validation_base@_WV?$console_output_adapter@_W@__crt_stdio_output@@@__crt_stdio_output@@IAE_NXZ 10060a40 f i libucrtd:cprintf.obj
 0001:0005faf0       ?validate_and_update_state_at_end_of_format_string@?$positional_parameter_base@DV?$console_output_adapter@D@__crt_stdio_output@@@__crt_stdio_output@@IAE_NXZ 10060af0 f i libucrtd:cprintf.obj
 0001:0005fca0       ?validate_and_update_state_at_end_of_format_string@?$positional_parameter_base@_WV?$console_output_adapter@_W@__crt_stdio_output@@@__crt_stdio_output@@IAE_NXZ 10060ca0 f i libucrtd:cprintf.obj
 0001:0005fe50       ?validate_and_update_state_at_end_of_format_string@?$standard_base@DV?$console_output_adapter@D@__crt_stdio_output@@@__crt_stdio_output@@IBE_NXZ 10060e50 f i libucrtd:cprintf.obj
 0001:0005fe60       ?validate_and_update_state_at_end_of_format_string@?$standard_base@_WV?$console_output_adapter@_W@__crt_stdio_output@@@__crt_stdio_output@@IBE_NXZ 10060e60 f i libucrtd:cprintf.obj
 0001:0005fe70       ?validate_state_for_type_case_a@?$positional_parameter_base@DV?$console_output_adapter@D@__crt_stdio_output@@@__crt_stdio_output@@IAE_NXZ 10060e70 f i libucrtd:cprintf.obj
 0001:0005ff80       ?validate_state_for_type_case_a@?$positional_parameter_base@_WV?$console_output_adapter@_W@__crt_stdio_output@@@__crt_stdio_output@@IAE_NXZ 10060f80 f i libucrtd:cprintf.obj
 0001:00060090       ?validate_state_for_type_case_a@?$standard_base@DV?$console_output_adapter@D@__crt_stdio_output@@@__crt_stdio_output@@IBE_NXZ 10061090 f i libucrtd:cprintf.obj
 0001:000600a0       ?validate_state_for_type_case_a@?$standard_base@_WV?$console_output_adapter@_W@__crt_stdio_output@@@__crt_stdio_output@@IBE_NXZ 100610a0 f i libucrtd:cprintf.obj
 0001:000600b0       ?wide_null_string@?$output_processor@DV?$console_output_adapter@D@__crt_stdio_output@@V?$format_validation_base@DV?$console_output_adapter@D@__crt_stdio_output@@@2@@__crt_stdio_output@@CAPA_WXZ 100610b0 f i libucrtd:cprintf.obj
 0001:000600c0       ?wide_null_string@?$output_processor@DV?$console_output_adapter@D@__crt_stdio_output@@V?$positional_parameter_base@DV?$console_output_adapter@D@__crt_stdio_output@@@2@@__crt_stdio_output@@CAPA_WXZ 100610c0 f i libucrtd:cprintf.obj
 0001:000600d0       ?wide_null_string@?$output_processor@DV?$console_output_adapter@D@__crt_stdio_output@@V?$standard_base@DV?$console_output_adapter@D@__crt_stdio_output@@@2@@__crt_stdio_output@@CAPA_WXZ 100610d0 f i libucrtd:cprintf.obj
 0001:000600e0       ?wide_null_string@?$output_processor@_WV?$console_output_adapter@_W@__crt_stdio_output@@V?$format_validation_base@_WV?$console_output_adapter@_W@__crt_stdio_output@@@2@@__crt_stdio_output@@CAPA_WXZ 100610e0 f i libucrtd:cprintf.obj
 0001:000600f0       ?wide_null_string@?$output_processor@_WV?$console_output_adapter@_W@__crt_stdio_output@@V?$positional_parameter_base@_WV?$console_output_adapter@_W@__crt_stdio_output@@@2@@__crt_stdio_output@@CAPA_WXZ 100610f0 f i libucrtd:cprintf.obj
 0001:00060100       ?wide_null_string@?$output_processor@_WV?$console_output_adapter@_W@__crt_stdio_output@@V?$standard_base@_WV?$console_output_adapter@_W@__crt_stdio_output@@@2@@__crt_stdio_output@@CAPA_WXZ 10061100 f i libucrtd:cprintf.obj
 0001:00060110       ?write_character@?$output_adapter_common@DV?$console_output_adapter@D@__crt_stdio_output@@@__crt_stdio_output@@QBEXDQAHAAV__crt_cached_ptd_host@@@Z 10061110 f i libucrtd:cprintf.obj
 0001:00060150       ?write_character@?$output_adapter_common@_WV?$console_output_adapter@_W@__crt_stdio_output@@@__crt_stdio_output@@QBEX_WQAHAAV__crt_cached_ptd_host@@@Z 10061150 f i libucrtd:cprintf.obj
 0001:00060190       ?write_character_without_count_update@?$console_output_adapter@D@__crt_stdio_output@@QBE_NDAAV__crt_cached_ptd_host@@@Z 10061190 f i libucrtd:cprintf.obj
 0001:000601d0       ?write_character_without_count_update@?$console_output_adapter@_W@__crt_stdio_output@@QBE_N_WAAV__crt_cached_ptd_host@@@Z 100611d0 f i libucrtd:cprintf.obj
 0001:00060210       ?write_stored_string_tchar@?$output_processor@DV?$console_output_adapter@D@__crt_stdio_output@@V?$format_validation_base@DV?$console_output_adapter@D@__crt_stdio_output@@@2@@__crt_stdio_output@@AAE_ND@Z 10061210 f i libucrtd:cprintf.obj
 0001:00060330       ?write_stored_string_tchar@?$output_processor@DV?$console_output_adapter@D@__crt_stdio_output@@V?$positional_parameter_base@DV?$console_output_adapter@D@__crt_stdio_output@@@2@@__crt_stdio_output@@AAE_ND@Z 10061330 f i libucrtd:cprintf.obj
 0001:00060450       ?write_stored_string_tchar@?$output_processor@DV?$console_output_adapter@D@__crt_stdio_output@@V?$standard_base@DV?$console_output_adapter@D@__crt_stdio_output@@@2@@__crt_stdio_output@@AAE_ND@Z 10061450 f i libucrtd:cprintf.obj
 0001:00060570       ?write_stored_string_tchar@?$output_processor@_WV?$console_output_adapter@_W@__crt_stdio_output@@V?$format_validation_base@_WV?$console_output_adapter@_W@__crt_stdio_output@@@2@@__crt_stdio_output@@AAE_N_W@Z 10061570 f i libucrtd:cprintf.obj
 0001:00060680       ?write_stored_string_tchar@?$output_processor@_WV?$console_output_adapter@_W@__crt_stdio_output@@V?$positional_parameter_base@_WV?$console_output_adapter@_W@__crt_stdio_output@@@2@@__crt_stdio_output@@AAE_N_W@Z 10061680 f i libucrtd:cprintf.obj
 0001:00060790       ?write_stored_string_tchar@?$output_processor@_WV?$console_output_adapter@_W@__crt_stdio_output@@V?$standard_base@_WV?$console_output_adapter@_W@__crt_stdio_output@@@2@@__crt_stdio_output@@AAE_N_W@Z 10061790 f i libucrtd:cprintf.obj
 0001:000608a0       ?write_string@?$console_output_adapter@D@__crt_stdio_output@@QBEXQBDHQAHAAV__crt_cached_ptd_host@@@Z 100618a0 f i libucrtd:cprintf.obj
 0001:000608d0       ?write_string@?$console_output_adapter@_W@__crt_stdio_output@@QBEXQB_WHQAHAAV__crt_cached_ptd_host@@@Z 100618d0 f i libucrtd:cprintf.obj
 0001:00060900       ?write_string_impl@?$output_adapter_common@DV?$console_output_adapter@D@__crt_stdio_output@@@__crt_stdio_output@@IBEXQBDHQAHAAV__crt_cached_ptd_host@@@Z 10061900 f i libucrtd:cprintf.obj
 0001:000609c0       ?write_string_impl@?$output_adapter_common@_WV?$console_output_adapter@_W@__crt_stdio_output@@@__crt_stdio_output@@IBEXQB_WHQAHAAV__crt_cached_ptd_host@@@Z 100619c0 f i libucrtd:cprintf.obj
 0001:00060a80       ___conio_common_vcprintf   10061a80 f   libucrtd:cprintf.obj
 0001:00060ad0       ___conio_common_vcprintf_p 10061ad0 f   libucrtd:cprintf.obj
 0001:00060b20       ___conio_common_vcprintf_s 10061b20 f   libucrtd:cprintf.obj
 0001:00060b70       ___conio_common_vcwprintf  10061b70 f   libucrtd:cprintf.obj
 0001:00060bc0       ___conio_common_vcwprintf_p 10061bc0 f   libucrtd:cprintf.obj
 0001:00060c10       ___conio_common_vcwprintf_s 10061c10 f   libucrtd:cprintf.obj
 0001:00060c60       ??1scoped_global_state_reset@__crt_state_management@@QAE@XZ 10061c60 f i libucrtd:qsort.obj
 0001:00060da0       _qsort                     10061da0 f   libucrtd:qsort.obj
 0001:00061490       _labs                      10062490 f   libucrtd:labs.obj
 0001:000614c0       _rand                      100624c0 f   libucrtd:rand.obj
 0001:00061500       _srand                     10062500 f   libucrtd:rand.obj
 0001:00061e90       __makepath                 10062e90 f   libucrtd:makepath.obj
 0001:00061ec0       __makepath_s               10062ec0 f   libucrtd:makepath.obj
 0001:00061ef0       __wmakepath                10062ef0 f   libucrtd:makepath.obj
 0001:00061f20       __wmakepath_s              10062f20 f   libucrtd:makepath.obj
 0001:000639f0       ??$tcsncpy_s@AAPADIAAPBDABI@?$__crt_char_traits@D@@SAHAAPAD$$QAIAAPBDABI@Z 100649f0 f i libucrtd:splitpath.obj
 0001:00063a20       ??$tcsncpy_s@AAPADIAAPBDH@?$__crt_char_traits@D@@SAHAAPAD$$QAIAAPBD$$QAH@Z 10064a20 f i libucrtd:splitpath.obj
 0001:00063a50       ??$tcsncpy_s@AAPA_WIAAPB_WABI@?$__crt_char_traits@_W@@SAHAAPA_W$$QAIAAPB_WABI@Z 10064a50 f i libucrtd:splitpath.obj
 0001:00063a80       ??$tcsncpy_s@AAPA_WIAAPB_WH@?$__crt_char_traits@_W@@SAHAAPA_W$$QAIAAPB_W$$QAH@Z 10064a80 f i libucrtd:splitpath.obj
 0001:00063cc0       __splitpath                10064cc0 f   libucrtd:splitpath.obj
 0001:00063cf0       __splitpath_s              10064cf0 f   libucrtd:splitpath.obj
 0001:00063d40       __wsplitpath               10064d40 f   libucrtd:splitpath.obj
 0001:00063d70       __wsplitpath_s             10064d70 f   libucrtd:splitpath.obj
 0001:000658d0       ??$ftprintf@PAU_iobuf@@PBDABQBDABQBDABI@?$__crt_char_traits@D@@SAH$$QAPAU_iobuf@@$$QAPBDABQBD2ABI@Z 100668d0 f i libucrtd:assert.obj
 0001:00065900       ??$ftprintf@PAU_iobuf@@PB_WABQB_WABQB_WABI@?$__crt_char_traits@_W@@SAH$$QAPAU_iobuf@@$$QAPB_WABQB_W2ABI@Z 10066900 f i libucrtd:assert.obj
 0001:00065930       ??$get_module_file_name@AAPAUHINSTANCE__@@AAY0BAF@DK@?$__crt_char_traits@D@@SAKAAPAUHINSTANCE__@@AAY0BAF@D$$QAK@Z 10066930 f i libucrtd:assert.obj
 0001:00065950       ??$get_module_file_name@AAPAUHINSTANCE__@@AAY0BAF@_WK@?$__crt_char_traits@_W@@SAKAAPAUHINSTANCE__@@AAY0BAF@_W$$QAK@Z 10066950 f i libucrtd:assert.obj
 0001:00065970       ??$itot_s@ABIPADIH@?$__crt_char_traits@D@@SAHABI$$QAPAD$$QAI$$QAH@Z 10066970 f i libucrtd:assert.obj
 0001:000659a0       ??$itot_s@ABIPA_WIH@?$__crt_char_traits@_W@@SAHABI$$QAPA_W$$QAI$$QAH@Z 100669a0 f i libucrtd:assert.obj
 0001:000659d0       ??$show_message_box@AAY0CEA@DPBDJ@?$__crt_char_traits@D@@SAHAAY0CEA@D$$QAPBD$$QAJ@Z 100669d0 f i libucrtd:assert.obj
 0001:000659f0       ??$show_message_box@AAY0CEA@_WPB_WJ@?$__crt_char_traits@_W@@SAHAAY0CEA@_W$$QAPB_W$$QAJ@Z 100669f0 f i libucrtd:assert.obj
 0001:00065a10       ??$tcscat_s@ABQADABIAAPAD@?$__crt_char_traits@D@@SAHABQADABIAAPAD@Z 10066a10 f i libucrtd:assert.obj
 0001:00065a40       ??$tcscat_s@ABQADABIABQBD@?$__crt_char_traits@D@@SAHABQADABIABQBD@Z 10066a40 f i libucrtd:assert.obj
 0001:00065a70       ??$tcscat_s@ABQADABIPBD@?$__crt_char_traits@D@@SAHABQADABI$$QAPBD@Z 10066a70 f i libucrtd:assert.obj
 0001:00065aa0       ??$tcscat_s@ABQA_WABIAAPA_W@?$__crt_char_traits@_W@@SAHABQA_WABIAAPA_W@Z 10066aa0 f i libucrtd:assert.obj
 0001:00065ad0       ??$tcscat_s@ABQA_WABIABQB_W@?$__crt_char_traits@_W@@SAHABQA_WABIABQB_W@Z 10066ad0 f i libucrtd:assert.obj
 0001:00065b00       ??$tcscat_s@ABQA_WABIPB_W@?$__crt_char_traits@_W@@SAHABQA_WABI$$QAPB_W@Z 10066b00 f i libucrtd:assert.obj
 0001:00065b30       ??$tcscpy_s@AAY0BAF@DIPBD@?$__crt_char_traits@D@@SAHAAY0BAF@D$$QAI$$QAPBD@Z 10066b30 f i libucrtd:assert.obj
 0001:00065b50       ??$tcscpy_s@AAY0BAF@_WIPB_W@?$__crt_char_traits@_W@@SAHAAY0BAF@_W$$QAI$$QAPB_W@Z 10066b50 f i libucrtd:assert.obj
 0001:00065b70       ??$tcscpy_s@ABQADABIPBD@?$__crt_char_traits@D@@SAHABQADABI$$QAPBD@Z 10066b70 f i libucrtd:assert.obj
 0001:00065ba0       ??$tcscpy_s@ABQA_WABIPB_W@?$__crt_char_traits@_W@@SAHABQA_WABI$$QAPB_W@Z 10066ba0 f i libucrtd:assert.obj
 0001:00065bd0       ??$tcslen@AAY0BAF@D@?$__crt_char_traits@D@@SAIAAY0BAF@D@Z 10066bd0 f i libucrtd:assert.obj
 0001:00065bf0       ??$tcslen@AAY0BAF@_W@?$__crt_char_traits@_W@@SAIAAY0BAF@_W@Z 10066bf0 f i libucrtd:assert.obj
 0001:00065c10       ??$tcslen@ABQAD@?$__crt_char_traits@D@@SAIABQAD@Z 10066c10 f i libucrtd:assert.obj
 0001:00065c30       ??$tcslen@ABQA_W@?$__crt_char_traits@_W@@SAIABQA_W@Z 10066c30 f i libucrtd:assert.obj
 0001:00065c50       ??$tcslen@ABQBD@?$__crt_char_traits@D@@SAIABQBD@Z 10066c50 f i libucrtd:assert.obj
 0001:00065c70       ??$tcslen@ABQB_W@?$__crt_char_traits@_W@@SAIABQB_W@Z 10066c70 f i libucrtd:assert.obj
 0001:00065c90       ??$tcsncat_s@ABQADABIAAPBDI@?$__crt_char_traits@D@@SAHABQADABIAAPBD$$QAI@Z 10066c90 f i libucrtd:assert.obj
 0001:00065cc0       ??$tcsncat_s@ABQADABIABQBDABI@?$__crt_char_traits@D@@SAHABQADABIABQBD1@Z 10066cc0 f i libucrtd:assert.obj
 0001:00065cf0       ??$tcsncat_s@ABQADABIPBDI@?$__crt_char_traits@D@@SAHABQADABI$$QAPBD$$QAI@Z 10066cf0 f i libucrtd:assert.obj
 0001:00065d20       ??$tcsncat_s@ABQA_WABIAAPB_WI@?$__crt_char_traits@_W@@SAHABQA_WABIAAPB_W$$QAI@Z 10066d20 f i libucrtd:assert.obj
 0001:00065d50       ??$tcsncat_s@ABQA_WABIABQB_WABI@?$__crt_char_traits@_W@@SAHABQA_WABIABQB_W1@Z 10066d50 f i libucrtd:assert.obj
 0001:00065d80       ??$tcsncat_s@ABQA_WABIPB_WI@?$__crt_char_traits@_W@@SAHABQA_WABI$$QAPB_W$$QAI@Z 10066d80 f i libucrtd:assert.obj
 0001:00066040       ?has_any_buffer@__crt_stdio_stream@@QBE_NXZ 10067040 f i libucrtd:assert.obj
 0001:00066060       ?has_any_of@__crt_stdio_stream@@QBE_NJ@Z 10067060 f i libucrtd:assert.obj
 0001:000660a0       __assert                   100670a0 f   libucrtd:assert.obj
 0001:000660c0       __invoke_watson_if_error   100670c0 f i libucrtd:assert.obj
 0001:000660f0       __vfprintf_l               100670f0 f i libucrtd:assert.obj
 0001:00066120       __vfwprintf_l              10067120 f i libucrtd:assert.obj
 0001:00066150       __vswprintf_c_l            10067150 f i libucrtd:assert.obj
 0001:000661a0       __wassert                  100671a0 f   libucrtd:assert.obj
 0001:000661c0       _fprintf                   100671c0 f i libucrtd:assert.obj
 0001:00066200       _fwprintf                  10067200 f i libucrtd:assert.obj
 0001:00066350       _swprintf                  10067350 f i libucrtd:assert.obj
 0001:00066390       ??$?RU?$__crt_report_hook_node@D@@@__crt_internal_free_policy@@QBEXQBU?$__crt_report_hook_node@D@@@Z 10067390 f i libucrtd:dbgrpt.obj
 0001:000663b0       ??$?RU?$__crt_report_hook_node@_W@@@__crt_internal_free_policy@@QBEXQBU?$__crt_report_hook_node@_W@@@Z 100673b0 f i libucrtd:dbgrpt.obj
 0001:00067380       ??0?$__crt_unique_heap_ptr@U?$__crt_report_hook_node@D@@U__crt_internal_free_policy@@@@QAE@QAU?$__crt_report_hook_node@D@@@Z 10068380 f i libucrtd:dbgrpt.obj
 0001:000673a0       ??0?$__crt_unique_heap_ptr@U?$__crt_report_hook_node@_W@@U__crt_internal_free_policy@@@@QAE@QAU?$__crt_report_hook_node@_W@@@Z 100683a0 f i libucrtd:dbgrpt.obj
 0001:000673c0       ??1?$__crt_unique_heap_ptr@U?$__crt_report_hook_node@D@@U__crt_internal_free_policy@@@@QAE@XZ 100683c0 f i libucrtd:dbgrpt.obj
 0001:000673e0       ??1?$__crt_unique_heap_ptr@U?$__crt_report_hook_node@_W@@U__crt_internal_free_policy@@@@QAE@XZ 100683e0 f i libucrtd:dbgrpt.obj
 0001:00067400       ??B?$__crt_unique_heap_ptr@U?$__crt_report_hook_node@D@@U__crt_internal_free_policy@@@@QBE_NXZ 10068400 f i libucrtd:dbgrpt.obj
 0001:00067420       ??B?$__crt_unique_heap_ptr@U?$__crt_report_hook_node@_W@@U__crt_internal_free_policy@@@@QBE_NXZ 10068420 f i libucrtd:dbgrpt.obj
 0001:00067980       ?detach@?$__crt_unique_heap_ptr@U?$__crt_report_hook_node@D@@U__crt_internal_free_policy@@@@QAEPAU?$__crt_report_hook_node@D@@XZ 10068980 f i libucrtd:dbgrpt.obj
 0001:000679b0       ?detach@?$__crt_unique_heap_ptr@U?$__crt_report_hook_node@_W@@U__crt_internal_free_policy@@@@QAEPAU?$__crt_report_hook_node@_W@@XZ 100689b0 f i libucrtd:dbgrpt.obj
 0001:000679e0       ?get@?$__crt_unique_heap_ptr@U?$__crt_report_hook_node@D@@U__crt_internal_free_policy@@@@QBEPAU?$__crt_report_hook_node@D@@XZ 100689e0 f i libucrtd:dbgrpt.obj
 0001:00067a00       ?get@?$__crt_unique_heap_ptr@U?$__crt_report_hook_node@_W@@U__crt_internal_free_policy@@@@QBEPAU?$__crt_report_hook_node@_W@@XZ 10068a00 f i libucrtd:dbgrpt.obj
 0001:00067a80       ?is_valid@?$__crt_unique_heap_ptr@U?$__crt_report_hook_node@D@@U__crt_internal_free_policy@@@@QBE_NXZ 10068a80 f i libucrtd:dbgrpt.obj
 0001:00067ab0       ?is_valid@?$__crt_unique_heap_ptr@U?$__crt_report_hook_node@_W@@U__crt_internal_free_policy@@@@QBE_NXZ 10068ab0 f i libucrtd:dbgrpt.obj
 0001:00067ae0       ?release@?$__crt_unique_heap_ptr@U?$__crt_report_hook_node@D@@U__crt_internal_free_policy@@@@QAEXXZ 10068ae0 f i libucrtd:dbgrpt.obj
 0001:00067b10       ?release@?$__crt_unique_heap_ptr@U?$__crt_report_hook_node@_W@@U__crt_internal_free_policy@@@@QAEXXZ 10068b10 f i libucrtd:dbgrpt.obj
 0001:00067b40       __CrtDbgReport             10068b40 f   libucrtd:dbgrpt.obj
 0001:00067b90       __CrtDbgReportW            10068b90 f   libucrtd:dbgrpt.obj
 0001:00067be0       __CrtSetReportHook2        10068be0 f   libucrtd:dbgrpt.obj
 0001:00067c00       __CrtSetReportHookW2       10068c00 f   libucrtd:dbgrpt.obj
 0001:00067c20       ___acrt_MessageWindowA     10068c20 f   libucrtd:dbgrpt.obj
 0001:00067c50       ___acrt_MessageWindowW     10068c50 f   libucrtd:dbgrpt.obj
 0001:00067c80       __invoke_watson_if_oneof   10068c80 f i libucrtd:dbgrpt.obj
 0001:00067cc0       __snwprintf_s              10068cc0 f i libucrtd:dbgrpt.obj
 0001:00067d00       __vsnwprintf_s_l           10068d00 f i libucrtd:dbgrpt.obj
 0001:00067d60       ?should_round_up@__crt_strtox@@YA_N_N000@Z 10068d60 f i libucrtd:fpexcept.obj
 0001:00067e50       __errcode                  10068e50 f   libucrtd:fpexcept.obj
 0001:00067ec0       __except1                  10068ec0 f   libucrtd:fpexcept.obj
 0001:00067fc0       __except2                  10068fc0 f   libucrtd:fpexcept.obj
 0001:00068120       __handle_exc               10069120 f   libucrtd:fpexcept.obj
 0001:000684b0       __handle_qnan2             100694b0 f   libucrtd:fpexcept.obj
 0001:000684d0       __raise_exc                100694d0 f   libucrtd:fpexcept.obj
 0001:00068500       __raise_exc_ex             10069500 f   libucrtd:fpexcept.obj
 0001:00068a80       __raise_excf               10069a80 f   libucrtd:fpexcept.obj
 0001:00068ab0       __set_errno_from_matherr   10069ab0 f   libucrtd:fpexcept.obj
 0001:00068af0       __umatherr                 10069af0 f   libucrtd:fpexcept.obj
 0001:00068b90       __initterm                 10069b90 f   libucrtd:initterm.obj
 0001:00068be0       __initterm_e               10069be0 f   libucrtd:initterm.obj
 0001:00068f50       _strcpy_s                  10069f50 f   libucrtd:strcpy_s.obj
 0001:00069380       _strcat_s                  1006a380 f   libucrtd:strcat_s.obj
 0001:000693f0       __seh_filter_dll           1006a3f0 f   libucrtd:exception_filter.obj
 0001:00069420       __seh_filter_exe           1006a420 f   libucrtd:exception_filter.obj
 0001:00069640       ??$?B$$A6GXPAXK0@Z@__crt_fast_encoded_nullptr_t@@QBEP6GXPAXK0@ZXZ 1006a640 f i libucrtd:exit.obj
 0001:00069750       ??$__crt_fast_decode_pointer@P6GXPAXK0@Z@@YAP6GXPAXK0@ZQ6GX0K0@Z@Z 1006a750 f i libucrtd:exit.obj
 0001:00069780       ??$__crt_fast_encode_pointer@P6GXPAXK0@Z@@YAP6GXPAXK0@ZQ6GX0K0@Z@Z 1006a780 f i libucrtd:exit.obj
 0001:000697b0       ??$__crt_get_proc_address@P6GXI@Z@@YAP6GXI@ZQAUHINSTANCE__@@QBD@Z 1006a7b0 f i libucrtd:exit.obj
 0001:00069840       ??0?$__crt_unique_handle_t@U__crt_hmodule_traits@@@@QAE@QAUHINSTANCE__@@@Z 1006a840 f i libucrtd:exit.obj
 0001:00069860       ??1?$__crt_unique_handle_t@U__crt_hmodule_traits@@@@QAE@XZ 1006a860 f i libucrtd:exit.obj
 0001:00069a20       ?__acrt_select_exit_lock@@YA?AW4__acrt_lock_id@@XZ 1006aa20 f i libucrtd:exit.obj
 0001:00069a30       ?__crt_fast_encode_pointer@@YA?AU__crt_fast_encoded_nullptr_t@@$$T@Z 1006aa30 f i libucrtd:exit.obj
 0001:00069a40       ?__crt_rotate_pointer_value@@YAIIH@Z 1006aa40 f i libucrtd:exit.obj
 0001:00069a70       ?close@?$__crt_unique_handle_t@U__crt_hmodule_traits@@@@QAEXXZ 1006aa70 f i libucrtd:exit.obj
 0001:00069ab0       ?close@__crt_hmodule_traits@@SA_NPAUHINSTANCE__@@@Z 1006aab0 f i libucrtd:exit.obj
 0001:00069be0       ?get@?$__crt_unique_handle_t@U__crt_hmodule_traits@@@@QBEPAUHINSTANCE__@@XZ 1006abe0 f i libucrtd:exit.obj
 0001:00069c00       ?get_address_of@?$__crt_unique_handle_t@U__crt_hmodule_traits@@@@QAEPAPAUHINSTANCE__@@XZ 1006ac00 f i libucrtd:exit.obj
 0001:00069c10       ?get_invalid_value@__crt_hmodule_traits@@SAPAUHINSTANCE__@@XZ 1006ac10 f i libucrtd:exit.obj
 0001:00069da0       __Exit                     1006ada0 f   libucrtd:exit.obj
 0001:00069dc0       ___acrt_initialize_thread_local_exit_callback 1006adc0 f   libucrtd:exit.obj
 0001:00069dd0       __c_exit                   1006add0 f   libucrtd:exit.obj
 0001:00069df0       __cexit                    1006adf0 f   libucrtd:exit.obj
 0001:00069e10       __exit                     1006ae10 f   libucrtd:exit.obj
 0001:00069e30       __is_c_termination_complete 1006ae30 f   libucrtd:exit.obj
 0001:00069e50       __register_thread_local_exe_atexit_callback 1006ae50 f   libucrtd:exit.obj
 0001:00069e90       _exit                      1006ae90 f   libucrtd:exit.obj
 0001:00069eb0       _quick_exit                1006aeb0 f   libucrtd:exit.obj
 0001:00069ed0       ??$?RE@__crt_internal_free_policy@@QBEXQBE@Z 1006aed0 f i libucrtd:argv_parsing.obj
 0001:00069ef0       ??$?RPAD@__crt_internal_free_policy@@QBEXQBQAD@Z 1006aef0 f i libucrtd:argv_parsing.obj
 0001:00069f10       ??$?RPA_W@__crt_internal_free_policy@@QBEXQBQA_W@Z 1006af10 f i libucrtd:argv_parsing.obj
 0001:0006a4d0       ??$get_module_file_name@$$TAAY0BAF@DH@?$__crt_char_traits@D@@SAK$$QA$$TAAY0BAF@D$$QAH@Z 1006b4d0 f i libucrtd:argv_parsing.obj
 0001:0006a4f0       ??$get_module_file_name@$$TAAY0BAF@_WH@?$__crt_char_traits@_W@@SAK$$QA$$TAAY0BAF@_W$$QAH@Z 1006b4f0 f i libucrtd:argv_parsing.obj
 0001:0006ac30       ??$set_program_name@PAD@?$__crt_char_traits@D@@SAX$$QAPAD@Z 1006bc30 f i libucrtd:argv_parsing.obj
 0001:0006ac50       ??$set_program_name@PA_W@?$__crt_char_traits@_W@@SAX$$QAPA_W@Z 1006bc50 f i libucrtd:argv_parsing.obj
 0001:0006acb0       ??0?$__crt_unique_heap_ptr@EU__crt_internal_free_policy@@@@QAE@QAE@Z 1006bcb0 f i libucrtd:argv_parsing.obj
 0001:0006acd0       ??0?$__crt_unique_heap_ptr@PADU__crt_internal_free_policy@@@@QAE@QAPAD@Z 1006bcd0 f i libucrtd:argv_parsing.obj
 0001:0006acf0       ??0?$__crt_unique_heap_ptr@PA_WU__crt_internal_free_policy@@@@QAE@QAPA_W@Z 1006bcf0 f i libucrtd:argv_parsing.obj
 0001:0006ad10       ??1?$__crt_unique_heap_ptr@EU__crt_internal_free_policy@@@@QAE@XZ 1006bd10 f i libucrtd:argv_parsing.obj
 0001:0006ad30       ??1?$__crt_unique_heap_ptr@PADU__crt_internal_free_policy@@@@QAE@XZ 1006bd30 f i libucrtd:argv_parsing.obj
 0001:0006ad50       ??1?$__crt_unique_heap_ptr@PA_WU__crt_internal_free_policy@@@@QAE@XZ 1006bd50 f i libucrtd:argv_parsing.obj
 0001:0006ad70       ??B?$__crt_unique_heap_ptr@EU__crt_internal_free_policy@@@@QBE_NXZ 1006bd70 f i libucrtd:argv_parsing.obj
 0001:0006ae30       ?detach@?$__crt_unique_heap_ptr@EU__crt_internal_free_policy@@@@QAEPAEXZ 1006be30 f i libucrtd:argv_parsing.obj
 0001:0006ae60       ?detach@?$__crt_unique_heap_ptr@PADU__crt_internal_free_policy@@@@QAEPAPADXZ 1006be60 f i libucrtd:argv_parsing.obj
 0001:0006ae90       ?detach@?$__crt_unique_heap_ptr@PA_WU__crt_internal_free_policy@@@@QAEPAPA_WXZ 1006be90 f i libucrtd:argv_parsing.obj
 0001:0006af20       ?get@?$__crt_unique_heap_ptr@EU__crt_internal_free_policy@@@@QBEPAEXZ 1006bf20 f i libucrtd:argv_parsing.obj
 0001:0006af40       ?get@?$__crt_unique_heap_ptr@PADU__crt_internal_free_policy@@@@QBEPAPADXZ 1006bf40 f i libucrtd:argv_parsing.obj
 0001:0006af60       ?get@?$__crt_unique_heap_ptr@PA_WU__crt_internal_free_policy@@@@QBEPAPA_WXZ 1006bf60 f i libucrtd:argv_parsing.obj
 0001:0006af80       ?get_address_of@?$__crt_unique_heap_ptr@PADU__crt_internal_free_policy@@@@QAEPAPAPADXZ 1006bf80 f i libucrtd:argv_parsing.obj
 0001:0006af90       ?get_address_of@?$__crt_unique_heap_ptr@PA_WU__crt_internal_free_policy@@@@QAEPAPAPA_WXZ 1006bf90 f i libucrtd:argv_parsing.obj
 0001:0006afe0       ?is_valid@?$__crt_unique_heap_ptr@EU__crt_internal_free_policy@@@@QBE_NXZ 1006bfe0 f i libucrtd:argv_parsing.obj
 0001:0006b010       ?release@?$__crt_unique_heap_ptr@EU__crt_internal_free_policy@@@@QAEXXZ 1006c010 f i libucrtd:argv_parsing.obj
 0001:0006b040       ?release@?$__crt_unique_heap_ptr@PADU__crt_internal_free_policy@@@@QAEXXZ 1006c040 f i libucrtd:argv_parsing.obj
 0001:0006b070       ?release@?$__crt_unique_heap_ptr@PA_WU__crt_internal_free_policy@@@@QAEXXZ 1006c070 f i libucrtd:argv_parsing.obj
 0001:0006b0e0       ___acrt_allocate_buffer_for_argv 1006c0e0 f   libucrtd:argv_parsing.obj
 0001:0006b1a0       __configure_narrow_argv    1006c1a0 f   libucrtd:argv_parsing.obj
 0001:0006b1c0       __configure_wide_argv      1006c1c0 f   libucrtd:argv_parsing.obj
 0001:0006b1e0       __set_pgmptr               1006c1e0 f i libucrtd:argv_parsing.obj
 0001:0006b1f0       __set_wpgmptr              1006c1f0 f i libucrtd:argv_parsing.obj
 0001:0006b200       ??$?R_W@__crt_internal_free_policy@@QBEXQB_W@Z 1006c200 f i libucrtd:environment_initialization.obj
 0001:0006b9e0       ??$get_environment_from_os@$$V@?$__crt_char_traits@D@@SAPADXZ 1006c9e0 f i libucrtd:environment_initialization.obj
 0001:0006b9f0       ??$get_environment_from_os@$$V@?$__crt_char_traits@_W@@SAPA_WXZ 1006c9f0 f i libucrtd:environment_initialization.obj
 0001:0006bcc0       ??$set_variable_in_environment_nolock@PADH@?$__crt_char_traits@D@@SAH$$QAPAD$$QAH@Z 1006ccc0 f i libucrtd:environment_initialization.obj
 0001:0006bce0       ??$set_variable_in_environment_nolock@PA_WH@?$__crt_char_traits@_W@@SAH$$QAPA_W$$QAH@Z 1006cce0 f i libucrtd:environment_initialization.obj
 0001:0006bd00       ??$tcscpy_s@PADABIAAPAD@?$__crt_char_traits@D@@SAH$$QAPADABIAAPAD@Z 1006cd00 f i libucrtd:environment_initialization.obj
 0001:0006bd30       ??$tcscpy_s@PA_WABIAAPA_W@?$__crt_char_traits@_W@@SAH$$QAPA_WABIAAPA_W@Z 1006cd30 f i libucrtd:environment_initialization.obj
 0001:0006bd60       ??$tcslen@AAPAD@?$__crt_char_traits@D@@SAIAAPAD@Z 1006cd60 f i libucrtd:environment_initialization.obj
 0001:0006bd80       ??$tcslen@AAPA_W@?$__crt_char_traits@_W@@SAIAAPA_W@Z 1006cd80 f i libucrtd:environment_initialization.obj
 0001:0006bda0       ??$uninitialize@A6AXAAPAPAD@_E@?$dual_state_global@PAPAD@__crt_state_management@@QAEXA6AXAAPAPAD@_E@Z 1006cda0 f i libucrtd:environment_initialization.obj
 0001:0006be20       ??$uninitialize@A6AXAAPAPA_W@_E@?$dual_state_global@PAPA_W@__crt_state_management@@QAEXA6AXAAPAPA_W@_E@Z 1006ce20 f i libucrtd:environment_initialization.obj
 0001:0006bf00       ??0?$__crt_unique_heap_ptr@_WU__crt_internal_free_policy@@@@QAE@QA_W@Z 1006cf00 f i libucrtd:environment_initialization.obj
 0001:0006bf20       ??1?$__crt_unique_heap_ptr@_WU__crt_internal_free_policy@@@@QAE@XZ 1006cf20 f i libucrtd:environment_initialization.obj
 0001:0006bf40       ??B?$__crt_unique_heap_ptr@PADU__crt_internal_free_policy@@@@QBE_NXZ 1006cf40 f i libucrtd:environment_initialization.obj
 0001:0006bf60       ??B?$__crt_unique_heap_ptr@PA_WU__crt_internal_free_policy@@@@QBE_NXZ 1006cf60 f i libucrtd:environment_initialization.obj
 0001:0006bf80       ??B?$__crt_unique_heap_ptr@_WU__crt_internal_free_policy@@@@QBE_NXZ 1006cf80 f i libucrtd:environment_initialization.obj
 0001:0006bfa0       ?__crt_compute_required_transform_buffer_count@@YAIIQBD@Z 1006cfa0 f i libucrtd:environment_initialization.obj
 0001:0006bfc0       ?__crt_compute_required_transform_buffer_count@@YAIIQB_W@Z 1006cfc0 f i libucrtd:environment_initialization.obj
 0001:0006bff0       ?__crt_transform_string@@YAIIQBDQA_WI@Z 1006cff0 f i libucrtd:environment_initialization.obj
 0001:0006c020       ?__crt_transform_string@@YAIIQB_WQADI@Z 1006d020 f i libucrtd:environment_initialization.obj
 0001:0006c050       ?detach@?$__crt_unique_heap_ptr@DU__crt_internal_free_policy@@@@QAEPADXZ 1006d050 f i libucrtd:environment_initialization.obj
 0001:0006c080       ?detach@?$__crt_unique_heap_ptr@_WU__crt_internal_free_policy@@@@QAEPA_WXZ 1006d080 f i libucrtd:environment_initialization.obj
 0001:0006c0b0       ?get@?$__crt_unique_heap_ptr@_WU__crt_internal_free_policy@@@@QBEPA_WXZ 1006d0b0 f i libucrtd:environment_initialization.obj
 0001:0006c0d0       ?get_current_state_index@__crt_state_management@@YAIXZ 1006d0d0 f i libucrtd:environment_initialization.obj
 0001:0006c160       ?initialize@?$dual_state_global@PAPAD@__crt_state_management@@QAEXQAPAD@Z 1006d160 f i libucrtd:environment_initialization.obj
 0001:0006c1a0       ?initialize@?$dual_state_global@PAPA_W@__crt_state_management@@QAEXQAPA_W@Z 1006d1a0 f i libucrtd:environment_initialization.obj
 0001:0006c1e0       ?is_valid@?$__crt_unique_heap_ptr@PADU__crt_internal_free_policy@@@@QBE_NXZ 1006d1e0 f i libucrtd:environment_initialization.obj
 0001:0006c210       ?is_valid@?$__crt_unique_heap_ptr@PA_WU__crt_internal_free_policy@@@@QBE_NXZ 1006d210 f i libucrtd:environment_initialization.obj
 0001:0006c240       ?is_valid@?$__crt_unique_heap_ptr@_WU__crt_internal_free_policy@@@@QBE_NXZ 1006d240 f i libucrtd:environment_initialization.obj
 0001:0006c290       ?release@?$__crt_unique_heap_ptr@_WU__crt_internal_free_policy@@@@QAEXXZ 1006d290 f i libucrtd:environment_initialization.obj
 0001:0006c2c0       ?value@?$dual_state_global@PAPAD@__crt_state_management@@QAEAAPAPADXZ 1006d2c0 f i libucrtd:environment_initialization.obj
 0001:0006c2e0       ?value@?$dual_state_global@PAPA_W@__crt_state_management@@QAEAAPAPA_WXZ 1006d2e0 f i libucrtd:environment_initialization.obj
 0001:0006c300       ___dcrt_get_or_create_narrow_environment_nolock 1006d300 f   libucrtd:environment_initialization.obj
 0001:0006c310       ___dcrt_get_or_create_wide_environment_nolock 1006d310 f   libucrtd:environment_initialization.obj
 0001:0006c320       ___dcrt_uninitialize_environments_nolock 1006d320 f   libucrtd:environment_initialization.obj
 0001:0006c370       ___p__environ              1006d370 f   libucrtd:environment_initialization.obj
 0001:0006c390       ___p__wenviron             1006d390 f   libucrtd:environment_initialization.obj
 0001:0006c3b0       __get_initial_narrow_environment 1006d3b0 f   libucrtd:environment_initialization.obj
 0001:0006c3c0       __get_initial_wide_environment 1006d3c0 f   libucrtd:environment_initialization.obj
 0001:0006c3d0       __initialize_narrow_environment 1006d3d0 f   libucrtd:environment_initialization.obj
 0001:0006c3e0       __initialize_wide_environment 1006d3e0 f   libucrtd:environment_initialization.obj
 0001:0006c3f0       ??$?B$$A6AXXZ@__crt_fast_encoded_nullptr_t@@QBEP6AXXZXZ 1006d3f0 f i libucrtd:onexit.obj
 0001:0006c410       ??$?BP6AXXZ@__crt_fast_encoded_nullptr_t@@QBEPAP6AXXZXZ 1006d410 f i libucrtd:onexit.obj
 0001:0006c430       ??$?RP6AXXZ@__crt_internal_free_policy@@QBEXQBQ6AXXZ@Z 1006d430 f i libucrtd:onexit.obj
 0001:0006c650       ??$__crt_fast_decode_pointer@P6AXXZ@@YAP6AXXZQ6AXXZ@Z 1006d650 f i libucrtd:onexit.obj
 0001:0006c680       ??$__crt_fast_decode_pointer@PAP6AXXZ@@YAPAP6AXXZQAP6AXXZ@Z 1006d680 f i libucrtd:onexit.obj
 0001:0006c6b0       ??$__crt_fast_encode_pointer@P6AHXZ@@YAP6AHXZQ6AHXZ@Z 1006d6b0 f i libucrtd:onexit.obj
 0001:0006c6e0       ??$__crt_fast_encode_pointer@P6AXXZ@@YAP6AXXZQ6AXXZ@Z 1006d6e0 f i libucrtd:onexit.obj
 0001:0006c710       ??$__crt_fast_encode_pointer@PAP6AXXZ@@YAPAP6AXXZQAP6AXXZ@Z 1006d710 f i libucrtd:onexit.obj
 0001:0006c810       ??0?$__crt_unique_heap_ptr@P6AXXZU__crt_internal_free_policy@@@@QAE@QAP6AXXZ@Z 1006d810 f i libucrtd:onexit.obj
 0001:0006c830       ??1?$__crt_unique_heap_ptr@P6AXXZU__crt_internal_free_policy@@@@QAE@XZ 1006d830 f i libucrtd:onexit.obj
 0001:0006ccc0       ?detach@?$__crt_unique_heap_ptr@P6AXXZU__crt_internal_free_policy@@@@QAEPAP6AXXZXZ 1006dcc0 f i libucrtd:onexit.obj
 0001:0006ccf0       ?release@?$__crt_unique_heap_ptr@P6AXXZU__crt_internal_free_policy@@@@QAEXXZ 1006dcf0 f i libucrtd:onexit.obj
 0001:0006cd20       __crt_at_quick_exit        1006dd20 f   libucrtd:onexit.obj
 0001:0006cd40       __crt_atexit               1006dd40 f   libucrtd:onexit.obj
 0001:0006cd60       __execute_onexit_table     1006dd60 f   libucrtd:onexit.obj
 0001:0006cda0       __initialize_onexit_table  1006dda0 f   libucrtd:onexit.obj
 0001:0006ce00       __register_onexit_function 1006de00 f   libucrtd:onexit.obj
 0001:0006d050       ??$?BX@__crt_fast_encoded_nullptr_t@@QBEPAXXZ 1006e050 f i libucrtd:initialization.obj
 0001:0006d070       ??$__crt_fast_encode_pointer@PAX@@YAPAXQAX@Z 1006e070 f i libucrtd:initialization.obj
 0001:0006d160       ?initialize@?$dual_state_global@PAU__crt_locale_data@@@__crt_state_management@@QAEXQAU__crt_locale_data@@@Z 1006e160 f i libucrtd:initialization.obj
 0001:0006d1a0       ___acrt_initialize         1006e1a0 f   libucrtd:initialization.obj
 0001:0006d1c0       ___acrt_thread_attach      1006e1c0 f   libucrtd:initialization.obj
 0001:0006d1e0       ___acrt_thread_detach      1006e1e0 f   libucrtd:initialization.obj
 0001:0006d1f0       ___acrt_uninitialize       1006e1f0 f   libucrtd:initialization.obj
 0001:0006d210       ___acrt_uninitialize_critical 1006e210 f   libucrtd:initialization.obj
 0001:0006d260       __get_terminate            1006e260 f   libucrtd:terminate.obj
 0001:0006d280       _set_terminate             1006e280 f   libucrtd:terminate.obj
 0001:0006d2b0       _terminate                 1006e2b0 f   libucrtd:terminate.obj
 0001:0006d660       _wcscpy_s                  1006e660 f   libucrtd:wcscpy_s.obj
 0001:0006d680       ??0_LocaleUpdate@@QAE@QAU__crt_locale_pointers@@@Z 1006e680 f i libucrtd:debug_heap.obj
 0001:0006d750       ??1_LocaleUpdate@@QAE@XZ   1006e750 f i libucrtd:debug_heap.obj
 0001:0006d780       ?GetLocaleT@_LocaleUpdate@@QAEPAU__crt_locale_pointers@@XZ 1006e780 f i libucrtd:debug_heap.obj
 0001:0006f1d0       __CrtCheckMemory           100701d0 f   libucrtd:debug_heap.obj
 0001:0006f360       __CrtDoForAllClientObjects 10070360 f   libucrtd:debug_heap.obj
 0001:0006f4c0       __CrtDumpMemoryLeaks       100704c0 f   libucrtd:debug_heap.obj
 0001:0006f560       __CrtGetAllocHook          10070560 f   libucrtd:debug_heap.obj
 0001:0006f570       __CrtGetDumpClient         10070570 f   libucrtd:debug_heap.obj
 0001:0006f580       __CrtIsMemoryBlock         10070580 f   libucrtd:debug_heap.obj
 0001:0006f6d0       __CrtIsValidHeapPointer    100706d0 f   libucrtd:debug_heap.obj
 0001:0006f710       __CrtIsValidPointer        10070710 f   libucrtd:debug_heap.obj
 0001:0006f740       __CrtMemCheckpoint         10070740 f   libucrtd:debug_heap.obj
 0001:0006f970       __CrtMemDifference         10070970 f   libucrtd:debug_heap.obj
 0001:0006fbe0       __CrtMemDumpAllObjectsSince 10070be0 f   libucrtd:debug_heap.obj
 0001:0006fc80       __CrtMemDumpStatistics     10070c80 f   libucrtd:debug_heap.obj
 0001:0006fdb0       __CrtReportBlockType       10070db0 f   libucrtd:debug_heap.obj
 0001:0006fde0       __CrtSetAllocHook          10070de0 f   libucrtd:debug_heap.obj
 0001:0006fe00       __CrtSetBreakAlloc         10070e00 f   libucrtd:debug_heap.obj
 0001:0006fe20       __CrtSetDbgBlockType       10070e20 f   libucrtd:debug_heap.obj
 0001:0006ff00       __CrtSetDbgFlag            10070f00 f   libucrtd:debug_heap.obj
 0001:00070070       __CrtSetDumpClient         10071070 f   libucrtd:debug_heap.obj
 0001:00070090       ___acrt_get_locale_data_prefix 10071090 f i libucrtd:debug_heap.obj
 0001:000700b0       ___p__crtBreakAlloc        100710b0 f   libucrtd:debug_heap.obj
 0001:000700c0       ___p__crtDbgFlag           100710c0 f   libucrtd:debug_heap.obj
 0001:000700d0       __aligned_free_dbg         100710d0 f   libucrtd:debug_heap.obj
 0001:00070180       __aligned_malloc_dbg       10071180 f   libucrtd:debug_heap.obj
 0001:000701b0       __aligned_msize_dbg        100711b0 f   libucrtd:debug_heap.obj
 0001:000702e0       __aligned_offset_malloc_dbg 100712e0 f   libucrtd:debug_heap.obj
 0001:000704c0       __aligned_offset_realloc_dbg 100714c0 f   libucrtd:debug_heap.obj
 0001:000707d0       __aligned_offset_recalloc_dbg 100717d0 f   libucrtd:debug_heap.obj
 0001:00070890       __aligned_realloc_dbg      10071890 f   libucrtd:debug_heap.obj
 0001:000708c0       __aligned_recalloc_dbg     100718c0 f   libucrtd:debug_heap.obj
 0001:000708f0       __calloc_dbg               100718f0 f   libucrtd:debug_heap.obj
 0001:00070960       __chvalidchk_l             10071960 f i libucrtd:debug_heap.obj
 0001:00070980       __expand_dbg               10071980 f   libucrtd:debug_heap.obj
 0001:00070ab0       __free_dbg                 10071ab0 f   libucrtd:debug_heap.obj
 0001:00070b60       __ischartype_l             10071b60 f i libucrtd:debug_heap.obj
 0001:00070be0       __malloc_dbg               10071be0 f   libucrtd:debug_heap.obj
 0001:00070c00       __msize_dbg                10071c00 f   libucrtd:debug_heap.obj
 0001:00070d90       __realloc_dbg              10071d90 f   libucrtd:debug_heap.obj
 0001:00070e30       __recalloc_dbg             10071e30 f   libucrtd:debug_heap.obj
 0001:00070ee0       _strcmp                    10071ee0 f   libucrtd:strcmp.obj
 0001:00070f70       __set_abort_behavior       10071f70 f   libucrtd:abort.obj
 0001:00070fa0       _abort                     10071fa0 f   libucrtd:abort.obj
 0001:00071010       ??$__crt_fast_decode_pointer@P6AXPB_W00II@Z@@YAP6AXPB_W00II@ZQ6AX000II@Z@Z 10072010 f i libucrtd:invalid_parameter.obj
 0001:00071040       ??$__crt_fast_encode_pointer@P6AXPB_W00II@Z@@YAP6AXPB_W00II@ZQ6AX000II@Z@Z 10072040 f i libucrtd:invalid_parameter.obj
 0001:00071070       ??$initialize_from_array@$$BY00Q6AXPB_W00II@Z@?$dual_state_global@P6AXPB_W00II@Z@__crt_state_management@@QAAXAAY00Q6AXPB_W00II@Z@Z 10072070 f i libucrtd:invalid_parameter.obj
 0001:000710c0       ?check_synchronize_global_state_index@__crt_cached_ptd_host@@AAEIXZ 100720c0 f i libucrtd:invalid_parameter.obj
 0001:00071110       ?dangerous_get_state_array@?$dual_state_global@P6AXPB_W00II@Z@__crt_state_management@@QAEPAP6AXPB_W00II@ZXZ 10072110 f i libucrtd:invalid_parameter.obj
 0001:00071120       ?get_current_global_state_index@__crt_cached_ptd_host@@QAEIXZ 10072120 f i libucrtd:invalid_parameter.obj
 0001:00071140       ?get_raw_ptd_noexit@__crt_cached_ptd_host@@QAEPAU__acrt_ptd@@XZ 10072140 f i libucrtd:invalid_parameter.obj
 0001:00071160       ?try_synchronize_per_thread_data@__crt_cached_ptd_host@@AAEPAU__acrt_ptd@@XZ 10072160 f i libucrtd:invalid_parameter.obj
 0001:00071190       ?value@?$dual_state_global@P6AXPB_W00II@Z@__crt_state_management@@QAEAAP6AXPB_W00II@ZAAV__crt_cached_ptd_host@@@Z 10072190 f i libucrtd:invalid_parameter.obj
 0001:000711b0       ?value@?$dual_state_global@P6AXPB_W00II@Z@__crt_state_management@@QAEAAP6AXPB_W00II@ZXZ 100721b0 f i libucrtd:invalid_parameter.obj
 0001:000711d0       ___acrt_call_reportfault   100721d0 f   libucrtd:invalid_parameter.obj
 0001:00071330       ___acrt_initialize_invalid_parameter_handler 10072330 f   libucrtd:invalid_parameter.obj
 0001:00071360       __get_invalid_parameter_handler 10072360 f   libucrtd:invalid_parameter.obj
 0001:00071380       __get_thread_local_invalid_parameter_handler 10072380 f   libucrtd:invalid_parameter.obj
 0001:000713b0       __invalid_parameter        100723b0 f   libucrtd:invalid_parameter.obj
 0001:000713f0       __invalid_parameter_internal 100723f0 f   libucrtd:invalid_parameter.obj
 0001:000714c0       __invalid_parameter_noinfo 100724c0 f   libucrtd:invalid_parameter.obj
 0001:000714e0       __invalid_parameter_noinfo_noreturn 100724e0 f   libucrtd:invalid_parameter.obj
 0001:00071510       __invoke_watson            10072510 f   libucrtd:invalid_parameter.obj
 0001:00071550       __set_invalid_parameter_handler 10072550 f   libucrtd:invalid_parameter.obj
 0001:000715a0       __set_thread_local_invalid_parameter_handler 100725a0 f   libucrtd:invalid_parameter.obj
 0001:000715d0       ??$is_overflow_condition@_K@__crt_strtox@@YA_NI_K@Z 100725d0 f i libucrtd:atox.obj
 0001:00071660       ??$make_c_string_character_source@D$$T@__crt_strtox@@YA?AV?$c_string_character_source@D@0@QBD$$T@Z 10072660 f i libucrtd:atox.obj
 0001:00071680       ??$make_c_string_character_source@_W$$T@__crt_strtox@@YA?AV?$c_string_character_source@_W@0@QB_W$$T@Z 10072680 f i libucrtd:atox.obj
 0001:000716a0       ??$parse_integer@KV?$c_string_character_source@D@__crt_strtox@@$00@__crt_strtox@@YAKAAV__crt_cached_ptd_host@@V?$c_string_character_source@D@0@H_N@Z 100726a0 f i libucrtd:atox.obj
 0001:00071a00       ??$parse_integer@KV?$c_string_character_source@_W@__crt_strtox@@$00@__crt_strtox@@YAKAAV__crt_cached_ptd_host@@V?$c_string_character_source@_W@0@H_N@Z 10072a00 f i libucrtd:atox.obj
 0001:00071d70       ??$parse_integer@_KV?$c_string_character_source@D@__crt_strtox@@$00@__crt_strtox@@YA_KAAV__crt_cached_ptd_host@@V?$c_string_character_source@D@0@H_N@Z 10072d70 f i libucrtd:atox.obj
 0001:00072160       ??$parse_integer@_KV?$c_string_character_source@_W@__crt_strtox@@$00@__crt_strtox@@YA_KAAV__crt_cached_ptd_host@@V?$c_string_character_source@_W@0@H_N@Z 10073160 f i libucrtd:atox.obj
 0001:00072550       ??$parse_integer_from_string@JD$$T@__crt_strtox@@YAJQBD$$THQAU__crt_locale_pointers@@@Z 10073550 f i libucrtd:atox.obj
 0001:000725b0       ??$parse_integer_from_string@J_W$$T@__crt_strtox@@YAJQB_W$$THQAU__crt_locale_pointers@@@Z 100735b0 f i libucrtd:atox.obj
 0001:00072610       ??$parse_integer_from_string@_JD$$T@__crt_strtox@@YA_JQBD$$THQAU__crt_locale_pointers@@@Z 10073610 f i libucrtd:atox.obj
 0001:00072670       ??$parse_integer_from_string@_J_W$$T@__crt_strtox@@YA_JQB_W$$THQAU__crt_locale_pointers@@@Z 10073670 f i libucrtd:atox.obj
 0001:000726d0       ?is_space@__crt_strtox@@YA_NDQAU__crt_locale_pointers@@@Z 100736d0 f i libucrtd:atox.obj
 0001:00072710       ?is_space@__crt_strtox@@YA_N_WPAU__crt_locale_pointers@@@Z 10073710 f i libucrtd:atox.obj
 0001:00072740       ?maximum_signed_value@__crt_strtox@@YA_J_K@Z 10073740 f i libucrtd:atox.obj
 0001:00072750       ?minimum_signed_value@__crt_strtox@@YA_J_K@Z 10073750 f i libucrtd:atox.obj
 0001:00072760       __atoi64                   10073760 f   libucrtd:atox.obj
 0001:00072780       __atoi64_l                 10073780 f   libucrtd:atox.obj
 0001:000727a0       __atoi_l                   100737a0 f   libucrtd:atox.obj
 0001:000727c0       __atol_l                   100737c0 f   libucrtd:atox.obj
 0001:000727e0       __atoll_l                  100737e0 f   libucrtd:atox.obj
 0001:00072800       __wtoi                     10073800 f   libucrtd:atox.obj
 0001:00072820       __wtoi64                   10073820 f   libucrtd:atox.obj
 0001:00072840       __wtoi64_l                 10073840 f   libucrtd:atox.obj
 0001:00072860       __wtoi_l                   10073860 f   libucrtd:atox.obj
 0001:00072880       __wtol                     10073880 f   libucrtd:atox.obj
 0001:000728a0       __wtol_l                   100738a0 f   libucrtd:atox.obj
 0001:000728c0       __wtoll                    100738c0 f   libucrtd:atox.obj
 0001:000728e0       __wtoll_l                  100738e0 f   libucrtd:atox.obj
 0001:00072900       _atoi                      10073900 f   libucrtd:atox.obj
 0001:00072920       _atol                      10073920 f   libucrtd:atox.obj
 0001:00072940       _atoll                     10073940 f   libucrtd:atox.obj
 0001:00072960       _strncmp                   10073960 f   libucrtd:strncmp.obj
 0001:000729e0       _wcsncmp                   100739e0 f   libucrtd:wcsncmp.obj
 0001:00072a40       _free                      10073a40 f   libucrtd:free.obj
 0001:00072a70       _malloc                    10073a70 f   libucrtd:malloc.obj
 0001:00072a90       __CrtGetDebugFillThreshold 10073a90 f   libucrtd:debug_fill_threshold.obj
 0001:00072aa0       __CrtSetDebugFillThreshold 10073aa0 f   libucrtd:debug_fill_threshold.obj
 0001:00072ac0       ?get_doserrno@__crt_cached_ptd_host@@QAE@XZ 10073ac0 f i libucrtd:errno.obj
 0001:00072ae0       ?set@?$cached@K@__crt_cached_ptd_host@@QAEKK@Z 10073ae0 f i libucrtd:errno.obj
 0001:00072b10       ___acrt_errno_from_os_error 10073b10 f   libucrtd:errno.obj
 0001:00072b90       ___acrt_errno_map_os_error 10073b90 f   libucrtd:errno.obj
 0001:00072bc0       ___acrt_errno_map_os_error_ptd 10073bc0 f   libucrtd:errno.obj
 0001:00072c10       ___doserrno                10073c10 f   libucrtd:errno.obj
 0001:00072c40       __errno                    10073c40 f   libucrtd:errno.obj
 0001:00072c70       __get_doserrno             10073c70 f   libucrtd:errno.obj
 0001:00072d00       __get_errno                10073d00 f   libucrtd:errno.obj
 0001:00072d90       __set_doserrno             10073d90 f   libucrtd:errno.obj
 0001:00072dc0       __set_errno                10073dc0 f   libucrtd:errno.obj
 0001:00073ac0       ??1?$__crt_simd_cleanup_guard@$00@@QAE@XZ 10074ac0 f i libucrtd:strnlen.obj
 0001:00073ad0       ??1?$__crt_simd_cleanup_guard@$0A@@@QAE@XZ 10074ad0 f i libucrtd:strnlen.obj
 0001:00073ae0       ?compare_equals@?$__crt_simd_traits@$00E@@SA?AT__m256i@@T2@0@Z 10074ae0 f i libucrtd:strnlen.obj
 0001:00073b20       ?compare_equals@?$__crt_simd_traits@$00G@@SA?AT__m256i@@T2@0@Z 10074b20 f i libucrtd:strnlen.obj
 0001:00073b60       ?compare_equals@?$__crt_simd_traits@$0A@E@@SA?AT__m128i@@T2@0@Z 10074b60 f i libucrtd:strnlen.obj
 0001:00073ba0       ?compare_equals@?$__crt_simd_traits@$0A@G@@SA?AT__m128i@@T2@0@Z 10074ba0 f i libucrtd:strnlen.obj
 0001:00073be0       ?compute_byte_mask@?$__crt_simd_pack_traits@$00@@SAHT__m256i@@@Z 10074be0 f i libucrtd:strnlen.obj
 0001:00073c10       ?compute_byte_mask@?$__crt_simd_pack_traits@$0A@@@SAHT__m128i@@@Z 10074c10 f i libucrtd:strnlen.obj
 0001:00073c40       ?get_zero_pack@?$__crt_simd_pack_traits@$00@@SA?AT__m256i@@XZ 10074c40 f i libucrtd:strnlen.obj
 0001:00073c70       ?get_zero_pack@?$__crt_simd_pack_traits@$0A@@@SA?AT__m128i@@XZ 10074c70 f i libucrtd:strnlen.obj
 0001:00073ca0       _strnlen                   10074ca0 f   libucrtd:strnlen.obj
 0001:00073cc0       _wcslen                    10074cc0 f   libucrtd:strnlen.obj
 0001:00073ce0       _wcsnlen                   10074ce0 f   libucrtd:strnlen.obj
 0001:00073d00       ?value@?$dual_state_global@PAU__crt_locale_data@@@__crt_state_management@@QAEAAPAU__crt_locale_data@@XZ 10074d00 f i libucrtd:locale_update.obj
 0001:00073d20       ?value@?$dual_state_global@PAU__crt_multibyte_data@@@__crt_state_management@@QAEAAPAU__crt_multibyte_data@@XZ 10074d20 f i libucrtd:locale_update.obj
 0001:00073d40       ?value_explicit@?$dual_state_global@PAU__crt_locale_data@@@__crt_state_management@@QAEAAPAU__crt_locale_data@@I@Z 10074d40 f i libucrtd:locale_update.obj
 0001:00073d60       ?value_explicit@?$dual_state_global@PAU__crt_multibyte_data@@@__crt_state_management@@QAEAAPAU__crt_multibyte_data@@I@Z 10074d60 f i libucrtd:locale_update.obj
 0001:00073d80       ___acrt_should_sync_with_global_locale 10074d80 f i libucrtd:locale_update.obj
 0001:00073db0       ___acrt_update_locale_info 10074db0 f   libucrtd:locale_update.obj
 0001:00073df0       ___acrt_update_locale_info_explicit 10074df0 f   libucrtd:locale_update.obj
 0001:00073e30       ___acrt_update_multibyte_info 10074e30 f   libucrtd:locale_update.obj
 0001:00073e70       ___acrt_update_multibyte_info_explicit 10074e70 f   libucrtd:locale_update.obj
 0001:00073eb0       ?__acrt_fp_classify@@YA?AW4__acrt_fp_class@@ABN@Z 10074eb0 f i libucrtd:cvt.obj
 0001:00073fd0       ?__acrt_fp_is_negative@@YA_NABN@Z 10074fd0 f i libucrtd:cvt.obj
 0001:000751e0       ?strrchr@@YAPADQADH@Z      100761e0 f i libucrtd:cvt.obj
 0001:00075200       ___acrt_fp_format          10076200 f   libucrtd:cvt.obj
 0001:00075680       ?value_or@?$cached@H@__crt_cached_ptd_host@@QBEHH@Z 10076680 f i libucrtd:wctomb.obj
 0001:000756b0       __wctomb_internal          100766b0 f   libucrtd:wctomb.obj
 0001:00075a30       __wctomb_l                 10076a30 f   libucrtd:wctomb.obj
 0001:00075ab0       __wctomb_s_l               10076ab0 f   libucrtd:wctomb.obj
 0001:00075b00       _wctomb                    10076b00 f   libucrtd:wctomb.obj
 0001:00075b70       _wctomb_s                  10076b70 f   libucrtd:wctomb.obj
 0001:00075bc0       __isleadbyte_fast_internal 10076bc0 f i libucrtd:mbtowc.obj
 0001:00075be0       __mbtowc_internal          10076be0 f   libucrtd:mbtowc.obj
 0001:00075e70       __mbtowc_l                 10076e70 f   libucrtd:mbtowc.obj
 0001:00075eb0       _mbtowc                    10076eb0 f   libucrtd:mbtowc.obj
 0001:00075ef0       ?lowio_handle@__crt_stdio_stream@@QBEHXZ 10076ef0 f i libucrtd:fileno.obj
 0001:00075f10       __fileno                   10076f10 f   libucrtd:fileno.obj
 0001:00075fb0       ??$?RPAU__crt_stdio_stream_data@@@__crt_internal_free_policy@@QBEXQBQAU__crt_stdio_stream_data@@@Z 10076fb0 f i libucrtd:_file.obj
 0001:00075fd0       ??0?$__crt_unique_heap_ptr@PAU__crt_stdio_stream_data@@U__crt_internal_free_policy@@@@QAE@QAPAU__crt_stdio_stream_data@@@Z 10076fd0 f i libucrtd:_file.obj
 0001:00075ff0       ??1?$__crt_unique_heap_ptr@PAU__crt_stdio_stream_data@@U__crt_internal_free_policy@@@@QAE@XZ 10076ff0 f i libucrtd:_file.obj
 0001:00076010       ?detach@?$__crt_unique_heap_ptr@PAU__crt_stdio_stream_data@@U__crt_internal_free_policy@@@@QAEPAPAU__crt_stdio_stream_data@@XZ 10077010 f i libucrtd:_file.obj
 0001:00076040       ?release@?$__crt_unique_heap_ptr@PAU__crt_stdio_stream_data@@U__crt_internal_free_policy@@@@QAEXXZ 10077040 f i libucrtd:_file.obj
 0001:00076070       ___acrt_initialize_stdio   10077070 f   libucrtd:_file.obj
 0001:000761e0       ___acrt_iob_func           100771e0 f   libucrtd:_file.obj
 0001:000761f0       ___acrt_uninitialize_stdio 100771f0 f   libucrtd:_file.obj
 0001:00076270       __get_stream_buffer_pointers 10077270 f   libucrtd:_file.obj
 0001:00076350       __lock_file                10077350 f   libucrtd:_file.obj
 0001:00076380       __unlock_file              10077380 f   libucrtd:_file.obj
 0001:000763b0       __get_printf_count_output  100773b0 f   libucrtd:printf_count_output.obj
 0001:000763e0       __set_printf_count_output  100773e0 f   libucrtd:printf_count_output.obj
 0001:000765e0       __fputwc_nolock            100775e0 f   libucrtd:fputwc.obj
 0001:00076620       __fputwc_nolock_internal   10077620 f   libucrtd:fputwc.obj
 0001:00076830       __fputwchar                10077830 f   libucrtd:fputwc.obj
 0001:00076850       __putwc_nolock             10077850 f   libucrtd:fputwc.obj
 0001:00076870       _fputwc                    10077870 f   libucrtd:fputwc.obj
 0001:000768b0       _putwc                     100778b0 f   libucrtd:fputwc.obj
 0001:000768d0       _putwchar                  100778d0 f   libucrtd:fputwc.obj
 0001:00076b50       __fputc_nolock             10077b50 f   libucrtd:fputc.obj
 0001:00076b90       __fputc_nolock_internal    10077b90 f   libucrtd:fputc.obj
 0001:00076c20       __fputchar                 10077c20 f   libucrtd:fputc.obj
 0001:00076c40       __putc_nolock              10077c40 f   libucrtd:fputc.obj
 0001:00076c60       _fputc                     10077c60 f   libucrtd:fputc.obj
 0001:00076ca0       _putc                      10077ca0 f   libucrtd:fputc.obj
 0001:00076cc0       _putchar                   10077cc0 f   libucrtd:fputc.obj
 0001:00076ce0       ?has_temporary_buffer@__crt_stdio_stream@@QBE_NXZ 10077ce0 f i libucrtd:_sftbuf.obj
 0001:00076d00       ?set_flags@__crt_stdio_stream@@QBE_NJ@Z 10077d00 f i libucrtd:_sftbuf.obj
 0001:00076d50       ?unset_flags@__crt_stdio_stream@@QBE_NJ@Z 10077d50 f i libucrtd:_sftbuf.obj
 0001:00076da0       ___acrt_should_use_temporary_buffer 10077da0 f   libucrtd:_sftbuf.obj
 0001:00076df0       ___acrt_stdio_begin_temporary_buffering_nolock 10077df0 f   libucrtd:_sftbuf.obj
 0001:00076fc0       ___acrt_stdio_end_temporary_buffering_nolock 10077fc0 f   libucrtd:_sftbuf.obj
 0001:00077040       ??$?RU__acrt_ptd@@@__crt_internal_free_policy@@QBEXQBU__acrt_ptd@@@Z 10078040 f i libucrtd:per_thread_data.obj
 0001:000775b0       ??0?$__crt_unique_heap_ptr@U__acrt_ptd@@U__crt_internal_free_policy@@@@QAE@QAU__acrt_ptd@@@Z 100785b0 f i libucrtd:per_thread_data.obj
 0001:000775d0       ??1?$__crt_unique_heap_ptr@U__acrt_ptd@@U__crt_internal_free_policy@@@@QAE@XZ 100785d0 f i libucrtd:per_thread_data.obj
 0001:000775f0       ??B?$__crt_unique_heap_ptr@U__acrt_ptd@@U__crt_internal_free_policy@@@@QBE_NXZ 100785f0 f i libucrtd:per_thread_data.obj
 0001:00077900       ?dangerous_get_state_array@?$dual_state_global@PAU__crt_locale_data@@@__crt_state_management@@QAEPAPAU__crt_locale_data@@XZ 10078900 f i libucrtd:per_thread_data.obj
 0001:00077aa0       ?detach@?$__crt_unique_heap_ptr@U__acrt_ptd@@U__crt_internal_free_policy@@@@QAEPAU__acrt_ptd@@XZ 10078aa0 f i libucrtd:per_thread_data.obj
 0001:00077ad0       ?get@?$__crt_unique_heap_ptr@U__acrt_ptd@@U__crt_internal_free_policy@@@@QBEPAU__acrt_ptd@@XZ 10078ad0 f i libucrtd:per_thread_data.obj
 0001:00077c70       ?is_valid@?$__crt_unique_heap_ptr@U__acrt_ptd@@U__crt_internal_free_policy@@@@QBE_NXZ 10078c70 f i libucrtd:per_thread_data.obj
 0001:00077ca0       ?release@?$__crt_unique_heap_ptr@U__acrt_ptd@@U__crt_internal_free_policy@@@@QAEXXZ 10078ca0 f i libucrtd:per_thread_data.obj
 0001:00077d90       ___acrt_freeptd            10078d90 f   libucrtd:per_thread_data.obj
 0001:00077dc0       ___acrt_getptd             10078dc0 f   libucrtd:per_thread_data.obj
 0001:00077de0       ___acrt_getptd_head        10078de0 f   libucrtd:per_thread_data.obj
 0001:00077e00       ___acrt_getptd_noexit      10078e00 f   libucrtd:per_thread_data.obj
 0001:00077e10       ___acrt_getptd_noexit_explicit 10078e10 f   libucrtd:per_thread_data.obj
 0001:00077e30       ___acrt_initialize_ptd     10078e30 f   libucrtd:per_thread_data.obj
 0001:00077e70       ___acrt_uninitialize_ptd   10078e70 f   libucrtd:per_thread_data.obj
 0001:00077ea0       ___threadhandle            10078ea0 f   libucrtd:per_thread_data.obj
 0001:00077eb0       ___threadid                10078eb0 f   libucrtd:per_thread_data.obj
 0001:00077ed0       ??$?RU__crt_locale_data@@@__crt_internal_free_policy@@QBEXQBU__crt_locale_data@@@Z 10078ed0 f i libucrtd:wsetlocale.obj
 0001:00077ef0       ??$?RU__crt_locale_pointers@@@__crt_internal_free_policy@@QBEXQBU__crt_locale_pointers@@@Z 10078ef0 f i libucrtd:wsetlocale.obj
 0001:00077f10       ??$?RU__crt_multibyte_data@@@__crt_internal_free_policy@@QBEXQBU__crt_multibyte_data@@@Z 10078f10 f i libucrtd:wsetlocale.obj
 0001:000785f0       ??0?$__crt_unique_heap_ptr@U__crt_locale_data@@U__crt_internal_free_policy@@@@QAE@QAU__crt_locale_data@@@Z 100795f0 f i libucrtd:wsetlocale.obj
 0001:00078610       ??0?$__crt_unique_heap_ptr@U__crt_locale_pointers@@U__crt_internal_free_policy@@@@QAE@QAU__crt_locale_pointers@@@Z 10079610 f i libucrtd:wsetlocale.obj
 0001:00078630       ??0?$__crt_unique_heap_ptr@U__crt_multibyte_data@@U__crt_internal_free_policy@@@@QAE@QAU__crt_multibyte_data@@@Z 10079630 f i libucrtd:wsetlocale.obj
 0001:00078650       ??0_expandlocale_locale_name_cache@@QAE@QA_WIQAU__crt_qualified_locale_data@@@Z 10079650 f i libucrtd:wsetlocale.obj
 0001:000786c0       ??1?$__crt_unique_heap_ptr@U__crt_locale_data@@U__crt_internal_free_policy@@@@QAE@XZ 100796c0 f i libucrtd:wsetlocale.obj
 0001:000786e0       ??1?$__crt_unique_heap_ptr@U__crt_locale_pointers@@U__crt_internal_free_policy@@@@QAE@XZ 100796e0 f i libucrtd:wsetlocale.obj
 0001:00078700       ??1?$__crt_unique_heap_ptr@U__crt_multibyte_data@@U__crt_internal_free_policy@@@@QAE@XZ 10079700 f i libucrtd:wsetlocale.obj
 0001:00078720       ??1_expandlocale_locale_name_cache@@QAE@XZ 10079720 f i libucrtd:wsetlocale.obj
 0001:00078780       ??B?$__crt_unique_heap_ptr@U__crt_locale_data@@U__crt_internal_free_policy@@@@QBE_NXZ 10079780 f i libucrtd:wsetlocale.obj
 0001:000787a0       ??B?$__crt_unique_heap_ptr@U__crt_locale_pointers@@U__crt_internal_free_policy@@@@QBE_NXZ 100797a0 f i libucrtd:wsetlocale.obj
 0001:000787c0       ??B?$__crt_unique_heap_ptr@U__crt_multibyte_data@@U__crt_internal_free_policy@@@@QBE_NXZ 100797c0 f i libucrtd:wsetlocale.obj
 0001:00078bb0       ?commit_locale_name@_expandlocale_locale_name_cache@@QAEXQB_WI@Z 10079bb0 f i libucrtd:wsetlocale.obj
 0001:00078c10       ?commit_locale_name_cache_already_updated@_expandlocale_locale_name_cache@@QAEXQB_WI@Z 10079c10 f i libucrtd:wsetlocale.obj
 0001:00078c70       ?detach@?$__crt_unique_heap_ptr@U__crt_locale_data@@U__crt_internal_free_policy@@@@QAEPAU__crt_locale_data@@XZ 10079c70 f i libucrtd:wsetlocale.obj
 0001:00078ca0       ?detach@?$__crt_unique_heap_ptr@U__crt_locale_pointers@@U__crt_internal_free_policy@@@@QAEPAU__crt_locale_pointers@@XZ 10079ca0 f i libucrtd:wsetlocale.obj
 0001:00078cd0       ?detach@?$__crt_unique_heap_ptr@U__crt_multibyte_data@@U__crt_internal_free_policy@@@@QAEPAU__crt_multibyte_data@@XZ 10079cd0 f i libucrtd:wsetlocale.obj
 0001:00078d00       ?get@?$__crt_unique_heap_ptr@U__crt_locale_data@@U__crt_internal_free_policy@@@@QBEPAU__crt_locale_data@@XZ 10079d00 f i libucrtd:wsetlocale.obj
 0001:00078d20       ?get@?$__crt_unique_heap_ptr@U__crt_locale_pointers@@U__crt_internal_free_policy@@@@QBEPAU__crt_locale_pointers@@XZ 10079d20 f i libucrtd:wsetlocale.obj
 0001:00078d40       ?get@?$__crt_unique_heap_ptr@U__crt_multibyte_data@@U__crt_internal_free_policy@@@@QBEPAU__crt_multibyte_data@@XZ 10079d40 f i libucrtd:wsetlocale.obj
 0001:00078d60       ?is_valid@?$__crt_unique_heap_ptr@U__crt_locale_data@@U__crt_internal_free_policy@@@@QBE_NXZ 10079d60 f i libucrtd:wsetlocale.obj
 0001:00078d90       ?is_valid@?$__crt_unique_heap_ptr@U__crt_locale_pointers@@U__crt_internal_free_policy@@@@QBE_NXZ 10079d90 f i libucrtd:wsetlocale.obj
 0001:00078dc0       ?is_valid@?$__crt_unique_heap_ptr@U__crt_multibyte_data@@U__crt_internal_free_policy@@@@QBE_NXZ 10079dc0 f i libucrtd:wsetlocale.obj
 0001:00078df0       ?release@?$__crt_unique_heap_ptr@U__crt_locale_data@@U__crt_internal_free_policy@@@@QAEXXZ 10079df0 f i libucrtd:wsetlocale.obj
 0001:00078e20       ?release@?$__crt_unique_heap_ptr@U__crt_locale_pointers@@U__crt_internal_free_policy@@@@QAEXXZ 10079e20 f i libucrtd:wsetlocale.obj
 0001:00078e50       ?release@?$__crt_unique_heap_ptr@U__crt_multibyte_data@@U__crt_internal_free_policy@@@@QAEXXZ 10079e50 f i libucrtd:wsetlocale.obj
 0001:00078e80       ___acrt_copy_locale_name   10079e80 f   libucrtd:wsetlocale.obj
 0001:00078f20       ___acrt_set_locale_changed 10079f20 f   libucrtd:wsetlocale.obj
 0001:00078f40       ___acrt_uninitialize_locale 10079f40 f   libucrtd:wsetlocale.obj
 0001:00078f60       ___ascii_tolower           10079f60 f i libucrtd:wsetlocale.obj
 0001:00078f80       ___ascii_towlower          10079f80 f i libucrtd:wsetlocale.obj
 0001:00078fa0       ___lc_lctowcs              10079fa0 f   libucrtd:wsetlocale.obj
 0001:00079050       ___lc_wcstolc              1007a050 f   libucrtd:wsetlocale.obj
 0001:00079280       __configthreadlocale       1007a280 f   libucrtd:wsetlocale.obj
 0001:00079400       __create_locale            1007a400 f   libucrtd:wsetlocale.obj
 0001:00079a40       __free_locale              1007aa40 f   libucrtd:wsetlocale.obj
 0001:00079b70       __get_current_locale       1007ab70 f   libucrtd:wsetlocale.obj
 0001:00079c50       __wcreate_locale           1007ac50 f   libucrtd:wsetlocale.obj
 0001:00079ea0       __wcscats                  1007aea0 f   libucrtd:wsetlocale.obj
 0001:00079f20       __wsetlocale               1007af20 f   libucrtd:wsetlocale.obj
 0001:0007b6a0       ___p___mb_cur_max          1007c6a0 f   libucrtd:nlsdata.obj
 0001:0007b9a0       ___acrt_initialize_lowio   1007c9a0 f   libucrtd:ioinit.obj
 0001:0007ba40       ___acrt_uninitialize_lowio 1007ca40 f   libucrtd:ioinit.obj
 0001:0007bc60       __putch                    1007cc60 f   libucrtd:putch.obj
 0001:0007bc90       __putch_nolock             1007cc90 f   libucrtd:putch.obj
 0001:0007bcd0       __putch_nolock_internal    1007ccd0 f   libucrtd:putch.obj
 0001:0007bfe0       __putwch                   1007cfe0 f   libucrtd:putwch.obj
 0001:0007c010       __putwch_nolock            1007d010 f   libucrtd:putwch.obj
 0001:0007c050       __putwch_nolock_internal   1007d050 f   libucrtd:putwch.obj
 0001:0007c070       __mbsdec                   1007d070 f   libucrtd:mbsdec.obj
 0001:0007c090       __mbsdec_l                 1007d090 f   libucrtd:mbsdec.obj
 0001:0007c670       _wcsncpy_s                 1007d670 f   libucrtd:wcsncpy_s.obj
 0001:0007cab0       _strncpy_s                 1007dab0 f   libucrtd:strncpy_s.obj
 0001:0007cb60       __ismbbalnum               1007db60 f   libucrtd:ismbbyte.obj
 0001:0007cb80       __ismbbalnum_l             1007db80 f   libucrtd:ismbbyte.obj
 0001:0007cba0       __ismbbalpha               1007dba0 f   libucrtd:ismbbyte.obj
 0001:0007cbc0       __ismbbalpha_l             1007dbc0 f   libucrtd:ismbbyte.obj
 0001:0007cbe0       __ismbbblank               1007dbe0 f   libucrtd:ismbbyte.obj
 0001:0007cc20       __ismbbblank_l             1007dc20 f   libucrtd:ismbbyte.obj
 0001:0007cc60       __ismbbgraph               1007dc60 f   libucrtd:ismbbyte.obj
 0001:0007cc80       __ismbbgraph_l             1007dc80 f   libucrtd:ismbbyte.obj
 0001:0007cca0       __ismbbkalnum              1007dca0 f   libucrtd:ismbbyte.obj
 0001:0007ccc0       __ismbbkalnum_l            1007dcc0 f   libucrtd:ismbbyte.obj
 0001:0007cce0       __ismbbkana                1007dce0 f   libucrtd:ismbbyte.obj
 0001:0007cd00       __ismbbkana_l              1007dd00 f   libucrtd:ismbbyte.obj
 0001:0007cd70       __ismbbkprint              1007dd70 f   libucrtd:ismbbyte.obj
 0001:0007cd90       __ismbbkprint_l            1007dd90 f   libucrtd:ismbbyte.obj
 0001:0007cdb0       __ismbbkpunct              1007ddb0 f   libucrtd:ismbbyte.obj
 0001:0007cdd0       __ismbbkpunct_l            1007ddd0 f   libucrtd:ismbbyte.obj
 0001:0007cdf0       __ismbblead                1007ddf0 f   libucrtd:ismbbyte.obj
 0001:0007ce10       __ismbblead_l              1007de10 f   libucrtd:ismbbyte.obj
 0001:0007ce30       __ismbbprint               1007de30 f   libucrtd:ismbbyte.obj
 0001:0007ce50       __ismbbprint_l             1007de50 f   libucrtd:ismbbyte.obj
 0001:0007ce70       __ismbbpunct               1007de70 f   libucrtd:ismbbyte.obj
 0001:0007ce90       __ismbbpunct_l             1007de90 f   libucrtd:ismbbyte.obj
 0001:0007ceb0       __ismbbtrail               1007deb0 f   libucrtd:ismbbyte.obj
 0001:0007ced0       __ismbbtrail_l             1007ded0 f   libucrtd:ismbbyte.obj
 0001:0007d0a0       ___acrt_report_runtime_error 1007e0a0 f   libucrtd:report_runtime_error.obj
 0001:0007d290       __query_app_type           1007e290 f   libucrtd:report_runtime_error.obj
 0001:0007d2a0       __set_app_type             1007e2a0 f   libucrtd:report_runtime_error.obj
 0001:0007e3c0       __i64toa                   1007f3c0 f   libucrtd:xtoa.obj
 0001:0007e410       __i64toa_s                 1007f410 f   libucrtd:xtoa.obj
 0001:0007e460       __i64tow                   1007f460 f   libucrtd:xtoa.obj
 0001:0007e4b0       __i64tow_s                 1007f4b0 f   libucrtd:xtoa.obj
 0001:0007e500       __itoa                     1007f500 f   libucrtd:xtoa.obj
 0001:0007e550       __itoa_s                   1007f550 f   libucrtd:xtoa.obj
 0001:0007e5a0       __itow                     1007f5a0 f   libucrtd:xtoa.obj
 0001:0007e5f0       __itow_s                   1007f5f0 f   libucrtd:xtoa.obj
 0001:0007e640       __ltoa                     1007f640 f   libucrtd:xtoa.obj
 0001:0007e690       __ltoa_s                   1007f690 f   libucrtd:xtoa.obj
 0001:0007e6e0       __ltow                     1007f6e0 f   libucrtd:xtoa.obj
 0001:0007e730       __ltow_s                   1007f730 f   libucrtd:xtoa.obj
 0001:0007e780       __ui64toa                  1007f780 f   libucrtd:xtoa.obj
 0001:0007e7b0       __ui64toa_s                1007f7b0 f   libucrtd:xtoa.obj
 0001:0007e7e0       __ui64tow                  1007f7e0 f   libucrtd:xtoa.obj
 0001:0007e810       __ui64tow_s                1007f810 f   libucrtd:xtoa.obj
 0001:0007e840       __ultoa                    1007f840 f   libucrtd:xtoa.obj
 0001:0007e870       __ultoa_s                  1007f870 f   libucrtd:xtoa.obj
 0001:0007e8a0       __ultow                    1007f8a0 f   libucrtd:xtoa.obj
 0001:0007e8d0       __ultow_s                  1007f8d0 f   libucrtd:xtoa.obj
 0001:0007e900       __set_error_mode           1007f900 f   libucrtd:set_error_mode.obj
 0001:0007ee00       _wcscat_s                  1007fe00 f   libucrtd:wcscat_s.obj
 0001:0007f300       _wcsncat_s                 10080300 f   libucrtd:wcsncat_s.obj
 0001:0007f7e0       _strncat_s                 100807e0 f   libucrtd:strncat_s.obj
 0001:0007f800       ??$__acrt_convert_wcs_mbs_cp@_WDV<lambda_0fec1a7b3f42a53036604e18c2d5e07e>@@U__crt_win32_buffer_no_resizing@@@@YAHQB_WAAV?$__crt_win32_buffer@DU__crt_win32_buffer_no_resizing@@@@ABV<lambda_0fec1a7b3f42a53036604e18c2d5e07e>@@I@Z 10080800 f i libucrtd:getmodulefilenamea.obj
 0001:0007f940       ??$__acrt_wcs_to_mbs_cp@U__crt_win32_buffer_no_resizing@@@@YAHQB_WAAV?$__crt_win32_buffer@DU__crt_win32_buffer_no_resizing@@@@I@Z 10080940 f i libucrtd:getmodulefilenamea.obj
 0001:0007f970       ??0?$__crt_win32_buffer@DU__crt_win32_buffer_no_resizing@@@@QAE@QADI@Z 10080970 f i libucrtd:getmodulefilenamea.obj
 0001:0007f9c0       ??1?$__crt_win32_buffer@DU__crt_win32_buffer_no_resizing@@@@QAE@XZ 100809c0 f i libucrtd:getmodulefilenamea.obj
 0001:0007fa10       ??R<lambda_0fec1a7b3f42a53036604e18c2d5e07e>@@QBE@IQB_WQADI@Z 10080a10 f i libucrtd:getmodulefilenamea.obj
 0001:0007fa40       ?__acrt_get_utf8_acp_compatibility_codepage@@YAIXZ 10080a40 f i libucrtd:getmodulefilenamea.obj
 0001:0007fad0       ?_deallocate@?$__crt_win32_buffer@DU__crt_win32_buffer_no_resizing@@@@AAEXXZ 10080ad0 f i libucrtd:getmodulefilenamea.obj
 0001:0007fb20       ?allocate@?$__crt_win32_buffer@DU__crt_win32_buffer_no_resizing@@@@QAEHI@Z 10080b20 f i libucrtd:getmodulefilenamea.obj
 0001:0007fb90       ?allocate@__crt_win32_buffer_no_resizing@@SAHQAPAXIABV__crt_win32_buffer_empty_debug_info@@@Z 10080b90 f i libucrtd:getmodulefilenamea.obj
 0001:0007fbb0       ?capacity@?$__crt_win32_buffer@DU__crt_win32_buffer_no_resizing@@@@QBEIXZ 10080bb0 f i libucrtd:getmodulefilenamea.obj
 0001:0007fbd0       ?data@?$__crt_win32_buffer@DU__crt_win32_buffer_no_resizing@@@@QAEPADXZ 10080bd0 f i libucrtd:getmodulefilenamea.obj
 0001:0007fbf0       ?deallocate@__crt_win32_buffer_no_resizing@@SAXQAXABV__crt_win32_buffer_empty_debug_info@@@Z 10080bf0 f i libucrtd:getmodulefilenamea.obj
 0001:0007fc00       ?debug_info@?$__crt_win32_buffer@DU__crt_win32_buffer_no_resizing@@@@QBEABV__crt_win32_buffer_empty_debug_info@@XZ 10080c00 f i libucrtd:getmodulefilenamea.obj
 0001:0007fc10       ?set_to_nullptr@?$__crt_win32_buffer@DU__crt_win32_buffer_no_resizing@@@@QAEXXZ 10080c10 f i libucrtd:getmodulefilenamea.obj
 0001:0007fc50       ?size@?$__crt_win32_buffer@DU__crt_win32_buffer_no_resizing@@@@QAEXI@Z 10080c50 f i libucrtd:getmodulefilenamea.obj
 0001:0007fc70       ?size@?$__crt_win32_buffer@DU__crt_win32_buffer_no_resizing@@@@QBEIXZ 10080c70 f i libucrtd:getmodulefilenamea.obj
 0001:0007fc90       ___acrt_GetModuleFileNameA 10080c90 f   libucrtd:getmodulefilenamea.obj
 0001:0007ff70       ??$message_box@$$TABQBDABQBDK@?$__crt_char_traits@D@@SAH$$QA$$TABQBD1$$QAK@Z 10080f70 f i libucrtd:crtmbox.obj
 0001:0007ffa0       ??$message_box@$$TABQB_WABQB_WK@?$__crt_char_traits@_W@@SAH$$QA$$TABQB_W1$$QAK@Z 10080fa0 f i libucrtd:crtmbox.obj
 0001:0007ffd0       ??$message_box@PAUHWND__@@ABQBDABQBDABI@?$__crt_char_traits@D@@SAH$$QAPAUHWND__@@ABQBD1ABI@Z 10080fd0 f i libucrtd:crtmbox.obj
 0001:00080000       ??$message_box@PAUHWND__@@ABQB_WABQB_WABI@?$__crt_char_traits@_W@@SAH$$QAPAUHWND__@@ABQB_W1ABI@Z 10081000 f i libucrtd:crtmbox.obj
 0001:00080030       ??$output_debug_string@ABQBD@?$__crt_char_traits@D@@SAXABQBD@Z 10081030 f i libucrtd:crtmbox.obj
 0001:00080050       ??$output_debug_string@ABQB_W@?$__crt_char_traits@_W@@SAXABQB_W@Z 10081050 f i libucrtd:crtmbox.obj
 0001:00080070       ___acrt_show_narrow_message_box 10081070 f   libucrtd:crtmbox.obj
 0001:00080090       ___acrt_show_wide_message_box 10081090 f   libucrtd:crtmbox.obj
 0001:000804e0       ??0__crt_stdio_stream@@QAE@QAU__crt_stdio_stream_data@@@Z 100814e0 f i libucrtd:fflush.obj
 0001:00080720       ?__acrt_stdio_reset_buffer@@YAXV__crt_stdio_stream@@@Z 10081720 f i libucrtd:fflush.obj
 0001:000808f0       ?has_all_of@__crt_stdio_stream@@QBE_NJ@Z 100818f0 f i libucrtd:fflush.obj
 0001:000809c0       ___acrt_stdio_flush_nolock 100819c0 f   libucrtd:fflush.obj
 0001:00080aa0       __fflush_nolock            10081aa0 f   libucrtd:fflush.obj
 0001:00080ae0       __flushall                 10081ae0 f   libucrtd:fflush.obj
 0001:00080b00       _fflush                    10081b00 f   libucrtd:fflush.obj
 0001:00081100       _setvbuf                   10082100 f   libucrtd:setvbuf.obj
 0001:00081140       ??$?B$$A6AXH@Z@__crt_fast_encoded_nullptr_t@@QBEP6AXH@ZXZ 10082140 f i libucrtd:signal.obj
 0001:00081260       ??$__crt_fast_decode_pointer@P6AXH@Z@@YAP6AXH@ZQ6AXH@Z@Z 10082260 f i libucrtd:signal.obj
 0001:00081290       ??$__crt_fast_encode_pointer@P6AXH@Z@@YAP6AXH@ZQ6AXH@Z@Z 10082290 f i libucrtd:signal.obj
 0001:00081540       ?initialize@?$dual_state_global@P6AXH@Z@__crt_state_management@@QAEXQ6AXH@Z@Z 10082540 f i libucrtd:signal.obj
 0001:00081680       ?value@?$dual_state_global@P6AXH@Z@__crt_state_management@@QAEAAP6AXH@ZXZ 10082680 f i libucrtd:signal.obj
 0001:000816a0       ___acrt_get_sigabrt_handler 100826a0 f   libucrtd:signal.obj
 0001:000816c0       ___acrt_initialize_signal_handlers 100826c0 f   libucrtd:signal.obj
 0001:00081700       ___fpecode                 10082700 f   libucrtd:signal.obj
 0001:00081710       ___pxcptinfoptrs           10082710 f   libucrtd:signal.obj
 0001:00081720       _raise                     10082720 f   libucrtd:signal.obj
 0001:00081b00       _signal                    10082b00 f   libucrtd:signal.obj
 0001:00081d90       __CrtGetReportHook         10082d90 f   libucrtd:dbgrptt.obj
 0001:00081da0       __CrtSetReportFile         10082da0 f   libucrtd:dbgrptt.obj
 0001:00081ea0       __CrtSetReportHook         10082ea0 f   libucrtd:dbgrptt.obj
 0001:00081ec0       __CrtSetReportMode         10082ec0 f   libucrtd:dbgrptt.obj
 0001:00082000       __VCrtDbgReportA           10083000 f   libucrtd:dbgrptt.obj
 0001:000828d0       __VCrtDbgReportW           100838d0 f   libucrtd:dbgrptt.obj
 0001:000832f0       __snprintf_s               100842f0 f i libucrtd:dbgrptt.obj
 0001:00083330       __vsnprintf_s              10084330 f i libucrtd:dbgrptt.obj
 0001:00083360       __vsnprintf_s_l            10084360 f i libucrtd:dbgrptt.obj
 0001:000833c0       ___acrt_initialize_locks   100843c0 f   libucrtd:locks.obj
 0001:00083420       ___acrt_lock               10084420 f   libucrtd:locks.obj
 0001:00083440       ___acrt_uninitialize_locks 10084440 f   libucrtd:locks.obj
 0001:00083490       ___acrt_unlock             10084490 f   libucrtd:locks.obj
 0001:000834b0       __lock_locales             100844b0 f   libucrtd:locks.obj
 0001:000834d0       __unlock_locales           100844d0 f   libucrtd:locks.obj
 0001:000834f0       ??$__crt_fast_decode_pointer@P6AHPAU_exception@@@Z@@YAP6AHPAU_exception@@@ZQ6AH0@Z@Z 100844f0 f i libucrtd:matherr.obj
 0001:00083520       ??$__crt_fast_encode_pointer@P6AHPAU_exception@@@Z@@YAP6AHPAU_exception@@@ZQ6AH0@Z@Z 10084520 f i libucrtd:matherr.obj
 0001:00083550       ?initialize@?$dual_state_global@P6AHPAU_exception@@@Z@__crt_state_management@@QAEXQ6AHPAU_exception@@@Z@Z 10084550 f i libucrtd:matherr.obj
 0001:00083590       ?value@?$dual_state_global@P6AHPAU_exception@@@Z@__crt_state_management@@QAEAAP6AHPAU_exception@@@ZXZ 10084590 f i libucrtd:matherr.obj
 0001:000835b0       ___acrt_has_user_matherr   100845b0 f   libucrtd:matherr.obj
 0001:000835f0       ___acrt_initialize_user_matherr 100845f0 f   libucrtd:matherr.obj
 0001:00083610       ___acrt_invoke_user_matherr 10084610 f   libucrtd:matherr.obj
 0001:00083660       ___setusermatherr          10084660 f   libucrtd:matherr.obj
 0001:00083690       ___fpe_flt_rounds          10084690 f   libucrtd:fegetround.obj
 0001:000836f0       _fegetround                100846f0 f   libucrtd:fegetround.obj
 0001:00083710       __add_exp                  10084710 f   libucrtd:util.obj
 0001:00083750       __decomp                   10084750 f   libucrtd:util.obj
 0001:00083880       __get_exp                  10084880 f   libucrtd:util.obj
 0001:000838b0       __set_bexp                 100848b0 f   libucrtd:util.obj
 0001:000838e0       __set_exp                  100848e0 f   libucrtd:util.obj
 0001:00083920       __sptype                   10084920 f   libucrtd:util.obj
 0001:000839a0       ___clrfp_sse2              100849a0 f   libucrtd:fpctrl.obj
 0001:000839e0       ___ctrlfp_sse2             100849e0 f   libucrtd:fpctrl.obj
 0001:00083a40       ___fclrf_sse2              10084a40 f   libucrtd:fpctrl.obj
 0001:00083a60       ___get_fpsr_sse2           10084a60 f   libucrtd:fpctrl.obj
 0001:00083a90       ___set_fpsr_sse2           10084a90 f   libucrtd:fpctrl.obj
 0001:00083b70       ___set_statfp_sse2         10084b70 f   libucrtd:fpctrl.obj
 0001:00083ba0       ___statfp_sse2             10084ba0 f   libucrtd:fpctrl.obj
 0001:00083bd0       __clrfp                    10084bd0 f   libucrtd:fpctrl.obj
 0001:00083bf0       __ctrlfp                   10084bf0 f   libucrtd:fpctrl.obj
 0001:00083c20       __set_statfp               10084c20 f   libucrtd:fpctrl.obj
 0001:00083c90       __statfp                   10084c90 f   libucrtd:fpctrl.obj
 0001:00083cb0       ___acrt_app_verifier_enabled 10084cb0 f   libucrtd:peb_access.obj
 0001:00083ce0       ___acrt_is_secure_process  10084ce0 f   libucrtd:peb_access.obj
 0001:00084030       ___acrt_get_begin_thread_init_policy 10085030 f   libucrtd:win_policies.obj
 0001:00084050       ___acrt_get_developer_information_policy 10085050 f   libucrtd:win_policies.obj
 0001:00084070       ___acrt_get_process_end_policy 10085070 f   libucrtd:win_policies.obj
 0001:00084090       ___acrt_get_windowing_model_policy 10085090 f   libucrtd:win_policies.obj
 0001:000840f0       ??$__acrt_convert_wcs_mbs_cp@D_WV<lambda_62f6974d9771e494a5ea317cc32e971c>@@U__crt_win32_buffer_internal_dynamic_resizing@@@@YAHQBDAAV?$__crt_win32_buffer@_WU__crt_win32_buffer_internal_dynamic_resizing@@@@ABV<lambda_62f6974d9771e494a5ea317cc32e971c>@@I@Z 100850f0 f i libucrtd:argv_wildcards.obj
 0001:00084240       ??$__acrt_convert_wcs_mbs_cp@_WDV<lambda_28bda7af82a03b66c1cb3803a755f95d>@@U__crt_win32_buffer_internal_dynamic_resizing@@@@YAHQB_WAAV?$__crt_win32_buffer@DU__crt_win32_buffer_internal_dynamic_resizing@@@@ABV<lambda_28bda7af82a03b66c1cb3803a755f95d>@@I@Z 10085240 f i libucrtd:argv_wildcards.obj
 0001:00084380       ??$__acrt_mbs_to_wcs_cp@U__crt_win32_buffer_internal_dynamic_resizing@@@@YAHQBDAAV?$__crt_win32_buffer@_WU__crt_win32_buffer_internal_dynamic_resizing@@@@I@Z 10085380 f i libucrtd:argv_wildcards.obj
 0001:000843b0       ??$__acrt_wcs_to_mbs_cp@U__crt_win32_buffer_internal_dynamic_resizing@@@@YAHQB_WAAV?$__crt_win32_buffer@DU__crt_win32_buffer_internal_dynamic_resizing@@@@I@Z 100853b0 f i libucrtd:argv_wildcards.obj
 0001:00085380       ??$tcsncpy_s@AAPADIAAPADABI@?$__crt_char_traits@D@@SAHAAPAD$$QAI0ABI@Z 10086380 f i libucrtd:argv_wildcards.obj
 0001:000853b0       ??$tcsncpy_s@AAPA_WIAAPA_WABI@?$__crt_char_traits@_W@@SAHAAPA_W$$QAI0ABI@Z 100863b0 f i libucrtd:argv_wildcards.obj
 0001:000853e0       ??$tcsncpy_s@PADABIABQBDABI@?$__crt_char_traits@D@@SAH$$QAPADABIABQBD1@Z 100863e0 f i libucrtd:argv_wildcards.obj
 0001:00085410       ??$tcsncpy_s@PADIABQBDABI@?$__crt_char_traits@D@@SAH$$QAPAD$$QAIABQBDABI@Z 10086410 f i libucrtd:argv_wildcards.obj
 0001:00085440       ??$tcsncpy_s@PA_WABIABQB_WABI@?$__crt_char_traits@_W@@SAH$$QAPA_WABIABQB_W1@Z 10086440 f i libucrtd:argv_wildcards.obj
 0001:00085470       ??$tcsncpy_s@PA_WIABQB_WABI@?$__crt_char_traits@_W@@SAH$$QAPA_W$$QAIABQB_WABI@Z 10086470 f i libucrtd:argv_wildcards.obj
 0001:000854a0       ??$tcspbrk@AAPADAAY02$$CBD@?$__crt_char_traits@D@@SAPADAAPADAAY02$$CBD@Z 100864a0 f i libucrtd:argv_wildcards.obj
 0001:000854f0       ??$tcspbrk@AAPA_WAAY02$$CB_W@?$__crt_char_traits@_W@@SAPA_WAAPA_WAAY02$$CB_W@Z 100864f0 f i libucrtd:argv_wildcards.obj
 0001:00085540       ??0?$__crt_unique_handle_t@U__crt_findfile_traits@@@@QAE@QAX@Z 10086540 f i libucrtd:argv_wildcards.obj
 0001:00085560       ??0?$__crt_win32_buffer@DU__crt_win32_buffer_internal_dynamic_resizing@@@@QAE@XZ 10086560 f i libucrtd:argv_wildcards.obj
 0001:000855b0       ??0?$__crt_win32_buffer@_WU__crt_win32_buffer_internal_dynamic_resizing@@@@QAE@XZ 100865b0 f i libucrtd:argv_wildcards.obj
 0001:00085660       ??1?$__crt_unique_handle_t@U__crt_findfile_traits@@@@QAE@XZ 10086660 f i libucrtd:argv_wildcards.obj
 0001:00085680       ??1?$__crt_win32_buffer@DU__crt_win32_buffer_internal_dynamic_resizing@@@@QAE@XZ 10086680 f i libucrtd:argv_wildcards.obj
 0001:000856d0       ??1?$__crt_win32_buffer@_WU__crt_win32_buffer_internal_dynamic_resizing@@@@QAE@XZ 100866d0 f i libucrtd:argv_wildcards.obj
 0001:00085800       ??R<lambda_28bda7af82a03b66c1cb3803a755f95d>@@QBE@IQB_WQADI@Z 10086800 f i libucrtd:argv_wildcards.obj
 0001:00085870       ??R<lambda_62f6974d9771e494a5ea317cc32e971c>@@QBE@IQBDQA_WI@Z 10086870 f i libucrtd:argv_wildcards.obj
 0001:00085940       ?_deallocate@?$__crt_win32_buffer@DU__crt_win32_buffer_internal_dynamic_resizing@@@@AAEXXZ 10086940 f i libucrtd:argv_wildcards.obj
 0001:00085990       ?_deallocate@?$__crt_win32_buffer@_WU__crt_win32_buffer_internal_dynamic_resizing@@@@AAEXXZ 10086990 f i libucrtd:argv_wildcards.obj
 0001:000859e0       ?allocate@?$__crt_win32_buffer@DU__crt_win32_buffer_internal_dynamic_resizing@@@@QAEHI@Z 100869e0 f i libucrtd:argv_wildcards.obj
 0001:00085a50       ?allocate@?$__crt_win32_buffer@_WU__crt_win32_buffer_internal_dynamic_resizing@@@@QAEHI@Z 10086a50 f i libucrtd:argv_wildcards.obj
 0001:00085ac0       ?allocate@__crt_win32_buffer_internal_dynamic_resizing@@SAHQAPAXIABV__crt_win32_buffer_empty_debug_info@@@Z 10086ac0 f i libucrtd:argv_wildcards.obj
 0001:00085c00       ?capacity@?$__crt_win32_buffer@DU__crt_win32_buffer_internal_dynamic_resizing@@@@QBEIXZ 10086c00 f i libucrtd:argv_wildcards.obj
 0001:00085c20       ?capacity@?$__crt_win32_buffer@_WU__crt_win32_buffer_internal_dynamic_resizing@@@@QBEIXZ 10086c20 f i libucrtd:argv_wildcards.obj
 0001:00085c40       ?close@?$__crt_unique_handle_t@U__crt_findfile_traits@@@@QAEXXZ 10086c40 f i libucrtd:argv_wildcards.obj
 0001:00085c80       ?close@__crt_findfile_traits@@SA_NPAX@Z 10086c80 f i libucrtd:argv_wildcards.obj
 0001:00085cb0       ?data@?$__crt_win32_buffer@DU__crt_win32_buffer_internal_dynamic_resizing@@@@QAEPADXZ 10086cb0 f i libucrtd:argv_wildcards.obj
 0001:00085cd0       ?data@?$__crt_win32_buffer@_WU__crt_win32_buffer_internal_dynamic_resizing@@@@QAEPA_WXZ 10086cd0 f i libucrtd:argv_wildcards.obj
 0001:00085cf0       ?deallocate@__crt_win32_buffer_internal_dynamic_resizing@@SAXQAXABV__crt_win32_buffer_empty_debug_info@@@Z 10086cf0 f i libucrtd:argv_wildcards.obj
 0001:00085d10       ?debug_info@?$__crt_win32_buffer@DU__crt_win32_buffer_internal_dynamic_resizing@@@@QBEABV__crt_win32_buffer_empty_debug_info@@XZ 10086d10 f i libucrtd:argv_wildcards.obj
 0001:00085d20       ?debug_info@?$__crt_win32_buffer@_WU__crt_win32_buffer_internal_dynamic_resizing@@@@QBEABV__crt_win32_buffer_empty_debug_info@@XZ 10086d20 f i libucrtd:argv_wildcards.obj
 0001:00086030       ?get@?$__crt_unique_handle_t@U__crt_findfile_traits@@@@QBEPAXXZ 10087030 f i libucrtd:argv_wildcards.obj
 0001:000860a0       ?get_invalid_value@__crt_findfile_traits@@SAPAXXZ 100870a0 f i libucrtd:argv_wildcards.obj
 0001:00086130       ?set_to_nullptr@?$__crt_win32_buffer@DU__crt_win32_buffer_internal_dynamic_resizing@@@@QAEXXZ 10087130 f i libucrtd:argv_wildcards.obj
 0001:00086170       ?set_to_nullptr@?$__crt_win32_buffer@_WU__crt_win32_buffer_internal_dynamic_resizing@@@@QAEXXZ 10087170 f i libucrtd:argv_wildcards.obj
 0001:000861b0       ?size@?$__crt_win32_buffer@DU__crt_win32_buffer_internal_dynamic_resizing@@@@QAEXI@Z 100871b0 f i libucrtd:argv_wildcards.obj
 0001:000861d0       ?size@?$__crt_win32_buffer@_WU__crt_win32_buffer_internal_dynamic_resizing@@@@QAEXI@Z 100871d0 f i libucrtd:argv_wildcards.obj
 0001:00086230       ?strpbrk@@YAPADQADQBD@Z    10087230 f i libucrtd:argv_wildcards.obj
 0001:00086250       ?wcspbrk@@YAPA_WPA_WPB_W@Z 10087250 f i libucrtd:argv_wildcards.obj
 0001:00086270       ___acrt_expand_narrow_argv_wildcards 10087270 f   libucrtd:argv_wildcards.obj
 0001:00086290       ___acrt_expand_wide_argv_wildcards 10087290 f   libucrtd:argv_wildcards.obj
 0001:000863a0       ??$initialize_from_array@$$BY10BAA@E@?$dual_state_global@PAE@__crt_state_management@@QAAXAAY10BAA@E@Z 100873a0 f i libucrtd:mbctype.obj
 0001:000863f0       ??$initialize_from_array@$$BY10BAB@E@?$dual_state_global@PAE@__crt_state_management@@QAAXAAY10BAB@E@Z 100873f0 f i libucrtd:mbctype.obj
 0001:00086670       ?dangerous_get_state_array@?$dual_state_global@PAE@__crt_state_management@@QAEPAPAEXZ 10087670 f i libucrtd:mbctype.obj
 0001:00086680       ?dangerous_get_state_array@?$dual_state_global@PAU__crt_multibyte_data@@@__crt_state_management@@QAEPAPAU__crt_multibyte_data@@XZ 10087680 f i libucrtd:mbctype.obj
 0001:00086750       ?initialize@?$dual_state_global@PAU__crt_multibyte_data@@@__crt_state_management@@QAEXQAU__crt_multibyte_data@@@Z 10087750 f i libucrtd:mbctype.obj
 0001:00086f00       ?value@?$dual_state_global@PAE@__crt_state_management@@QAEAAPAEXZ 10087f00 f i libucrtd:mbctype.obj
 0001:00086f20       ___acrt_initialize_multibyte 10087f20 f   libucrtd:mbctype.obj
 0001:00086fd0       ___acrt_update_thread_multibyte_data 10087fd0 f   libucrtd:mbctype.obj
 0001:00087010       ___p__mbcasemap            10088010 f   libucrtd:mbctype.obj
 0001:00087030       ___p__mbctype              10088030 f   libucrtd:mbctype.obj
 0001:00087050       __getmbcp                  10088050 f   libucrtd:mbctype.obj
 0001:000870c0       __setmbcp                  100880c0 f   libucrtd:mbctype.obj
 0001:00087100       __setmbcp_nolock           10088100 f   libucrtd:mbctype.obj
 0001:00087620       ___acrt_initialize_command_line 10088620 f   libucrtd:argv_data.obj
 0001:00087640       ___acrt_uninitialize_command_line 10088640 f   libucrtd:argv_data.obj
 0001:00087650       ___p___argc                10088650 f   libucrtd:argv_data.obj
 0001:00087660       ___p___argv                10088660 f   libucrtd:argv_data.obj
 0001:00087670       ___p___wargv               10088670 f   libucrtd:argv_data.obj
 0001:00087680       ___p__acmdln               10088680 f   libucrtd:argv_data.obj
 0001:00087690       ___p__pgmptr               10088690 f   libucrtd:argv_data.obj
 0001:000876a0       ___p__wcmdln               100886a0 f   libucrtd:argv_data.obj
 0001:000876b0       ___p__wpgmptr              100886b0 f   libucrtd:argv_data.obj
 0001:000876c0       __get_pgmptr               100886c0 f   libucrtd:argv_data.obj
 0001:000877d0       __get_wpgmptr              100887d0 f   libucrtd:argv_data.obj
 0001:000879e0       ___acrt_MultiByteToWideChar 100889e0 f   libucrtd:multibytetowidechar.obj
 0001:00087b30       ___acrt_WideCharToMultiByte 10088b30 f   libucrtd:widechartomultibyte.obj
 0001:00087d50       ___dcrt_get_narrow_environment_from_os 10088d50 f   libucrtd:get_environment_from_os.obj
 0001:00087ec0       ___dcrt_get_wide_environment_from_os 10088ec0 f   libucrtd:get_environment_from_os.obj
 0001:00089070       ??$get_or_create_environment_nolock@$$V@?$__crt_char_traits@D@@SAPAPADXZ 1008a070 f i libucrtd:setenv.obj
 0001:00089080       ??$get_or_create_environment_nolock@$$V@?$__crt_char_traits@_W@@SAPAPA_WXZ 1008a080 f i libucrtd:setenv.obj
 0001:00089090       ??$set_environment_variable@ABQADQAD@?$__crt_char_traits@D@@SAHABQAD$$QBQAD@Z 1008a090 f i libucrtd:setenv.obj
 0001:000890b0       ??$set_environment_variable@ABQA_WQA_W@?$__crt_char_traits@_W@@SAHABQA_W$$QBQA_W@Z 1008a0b0 f i libucrtd:setenv.obj
 0001:000890d0       ??$tcschr@ABQADD@?$__crt_char_traits@D@@SAPADABQAD$$QAD@Z 1008a0d0 f i libucrtd:setenv.obj
 0001:00089120       ??$tcschr@ABQA_WD@?$__crt_char_traits@_W@@SAPA_WABQA_W$$QAD@Z 1008a120 f i libucrtd:setenv.obj
 0001:00089180       ??$tcscpy_s@AAPADABIAAPAD@?$__crt_char_traits@D@@SAHAAPADABI0@Z 1008a180 f i libucrtd:setenv.obj
 0001:000891b0       ??$tcscpy_s@AAPA_WABIAAPA_W@?$__crt_char_traits@_W@@SAHAAPA_WABI0@Z 1008a1b0 f i libucrtd:setenv.obj
 0001:000891e0       ??$tcscpy_s@ABQADABIABQAD@?$__crt_char_traits@D@@SAHABQADABI0@Z 1008a1e0 f i libucrtd:setenv.obj
 0001:00089210       ??$tcscpy_s@ABQA_WABIABQA_W@?$__crt_char_traits@_W@@SAHABQA_WABI0@Z 1008a210 f i libucrtd:setenv.obj
 0001:00089240       ??$tcsnicoll@ABQBDAAPADABI@?$__crt_char_traits@D@@SAHABQBDAAPADABI@Z 1008a240 f i libucrtd:setenv.obj
 0001:00089270       ??$tcsnicoll@ABQB_WAAPA_WABI@?$__crt_char_traits@_W@@SAHABQB_WAAPA_WABI@Z 1008a270 f i libucrtd:setenv.obj
 0001:000892a0       ??$tcsnlen@PADH@?$__crt_char_traits@D@@SAI$$QAPAD$$QAH@Z 1008a2a0 f i libucrtd:setenv.obj
 0001:000892c0       ??$tcsnlen@PA_WH@?$__crt_char_traits@_W@@SAI$$QAPA_W$$QAH@Z 1008a2c0 f i libucrtd:setenv.obj
 0001:00089380       ?strchr@@YAPADQADH@Z       1008a380 f i libucrtd:setenv.obj
 0001:000893a0       ?wcschr@@YAPA_WPA_W_W@Z    1008a3a0 f i libucrtd:setenv.obj
 0001:000893c0       ___dcrt_set_variable_in_narrow_environment_nolock 1008a3c0 f   libucrtd:setenv.obj
 0001:000893e0       ___dcrt_set_variable_in_wide_environment_nolock 1008a3e0 f   libucrtd:setenv.obj
 0001:00089420       ??$?B$$A6GHPA_WKJ@Z@__crt_fast_encoded_nullptr_t@@QBEP6GHPA_WKJ@ZXZ 1008a420 f i libucrtd:winapi_thunks.obj
 0001:00089540       ??$__crt_fast_decode_pointer@P6GHPA_WKJ@Z@@YAP6GHPA_WKJ@ZQ6GH0KJ@Z@Z 1008a540 f i libucrtd:winapi_thunks.obj
 0001:00089570       ??$__crt_fast_decode_pointer@PAX@@YAPAXQAX@Z 1008a570 f i libucrtd:winapi_thunks.obj
 0001:000895a0       ??$__crt_fast_encode_pointer@P6GHPA_WKJ@Z@@YAP6GHPA_WKJ@ZQ6GH0KJ@Z@Z 1008a5a0 f i libucrtd:winapi_thunks.obj
 0001:00089f20       _GetCurrentThreadEffectiveToken 1008af20 f i libucrtd:winapi_thunks.obj
 0001:00089f30       ___acrt_AppPolicyGetProcessTerminationMethodInternal@4 1008af30 f   libucrtd:winapi_thunks.obj
 0001:00089f80       ___acrt_AppPolicyGetShowDeveloperDiagnosticInternal@4 1008af80 f   libucrtd:winapi_thunks.obj
 0001:00089fd0       ___acrt_AppPolicyGetThreadInitializationTypeInternal@4 1008afd0 f   libucrtd:winapi_thunks.obj
 0001:0008a020       ___acrt_AppPolicyGetWindowingModelInternal@4 1008b020 f   libucrtd:winapi_thunks.obj
 0001:0008a070       ___acrt_AreFileApisANSI@0  1008b070 f   libucrtd:winapi_thunks.obj
 0001:0008a0b0       ___acrt_CompareStringEx@36 1008b0b0 f   libucrtd:winapi_thunks.obj
 0001:0008a140       ___acrt_EnumSystemLocalesEx@16 1008b140 f   libucrtd:winapi_thunks.obj
 0001:0008a1a0       ___acrt_FlsAlloc@4         1008b1a0 f   libucrtd:winapi_thunks.obj
 0001:0008a1e0       ___acrt_FlsFree@4          1008b1e0 f   libucrtd:winapi_thunks.obj
 0001:0008a230       ___acrt_FlsGetValue@4      1008b230 f   libucrtd:winapi_thunks.obj
 0001:0008a280       ___acrt_FlsSetValue@8      1008b280 f   libucrtd:winapi_thunks.obj
 0001:0008a2d0       ___acrt_GetDateFormatEx@28 1008b2d0 f   libucrtd:winapi_thunks.obj
 0001:0008a350       ___acrt_GetEnabledXStateFeatures@0 1008b350 f   libucrtd:winapi_thunks.obj
 0001:0008a390       ___acrt_GetLocaleInfoEx@16 1008b390 f   libucrtd:winapi_thunks.obj
 0001:0008a400       ___acrt_GetSystemTimePreciseAsFileTime@4 1008b400 f   libucrtd:winapi_thunks.obj
 0001:0008a450       ___acrt_GetTempPath2W@8    1008b450 f   libucrtd:winapi_thunks.obj
 0001:0008a4a0       ___acrt_GetTimeFormatEx@24 1008b4a0 f   libucrtd:winapi_thunks.obj
 0001:0008a520       ___acrt_GetUserDefaultLocaleName@8 1008b520 f   libucrtd:winapi_thunks.obj
 0001:0008a580       ___acrt_GetXStateFeaturesMask@8 1008b580 f   libucrtd:winapi_thunks.obj
 0001:0008a5d0       ___acrt_InitializeCriticalSectionEx@12 1008b5d0 f   libucrtd:winapi_thunks.obj
 0001:0008a620       ___acrt_IsValidLocaleName@4 1008b620 f   libucrtd:winapi_thunks.obj
 0001:0008a670       ___acrt_LCIDToLocaleName@16 1008b670 f   libucrtd:winapi_thunks.obj
 0001:0008a6d0       ___acrt_LCMapStringEx@36   1008b6d0 f   libucrtd:winapi_thunks.obj
 0001:0008a750       ___acrt_LocaleNameToLCID@8 1008b750 f   libucrtd:winapi_thunks.obj
 0001:0008a7a0       ___acrt_LocateXStateFeature@12 1008b7a0 f   libucrtd:winapi_thunks.obj
 0001:0008a7f0       ___acrt_MessageBoxA@16     1008b7f0 f   libucrtd:winapi_thunks.obj
 0001:0008a840       ___acrt_MessageBoxW@16     1008b840 f   libucrtd:winapi_thunks.obj
 0001:0008a890       ___acrt_RoInitialize@4     1008b890 f   libucrtd:winapi_thunks.obj
 0001:0008a8d0       ___acrt_RoUninitialize@0   1008b8d0 f   libucrtd:winapi_thunks.obj
 0001:0008a900       ___acrt_RtlGenRandom@8     1008b900 f   libucrtd:winapi_thunks.obj
 0001:0008a950       ___acrt_SetThreadStackGuarantee@4 1008b950 f   libucrtd:winapi_thunks.obj
 0001:0008a990       ___acrt_can_show_message_box 1008b990 f   libucrtd:winapi_thunks.obj
 0001:0008a9d0       ___acrt_can_use_vista_locale_apis 1008b9d0 f   libucrtd:winapi_thunks.obj
 0001:0008aa00       ___acrt_can_use_xstate_apis 1008ba00 f   libucrtd:winapi_thunks.obj
 0001:0008aa30       ___acrt_eagerly_load_locale_apis 1008ba30 f   libucrtd:winapi_thunks.obj
 0001:0008aa70       ___acrt_get_parent_window  1008ba70 f   libucrtd:winapi_thunks.obj
 0001:0008aae0       ___acrt_initialize_winapi_thunks 1008bae0 f   libucrtd:winapi_thunks.obj
 0001:0008ab50       ___acrt_is_interactive     1008bb50 f   libucrtd:winapi_thunks.obj
 0001:0008ac00       ___acrt_uninitialize_winapi_thunks 1008bc00 f   libucrtd:winapi_thunks.obj
 0001:0008ac70       ___acrt_getheap            1008bc70 f   libucrtd:heap_handle.obj
 0001:0008acb0       ___acrt_initialize_heap    1008bcb0 f   libucrtd:heap_handle.obj
 0001:0008ace0       ___acrt_uninitialize_heap  1008bce0 f   libucrtd:heap_handle.obj
 0001:0008ad00       __get_heap_handle          1008bd00 f   libucrtd:heap_handle.obj
 0001:0008ad40       ___acrt_execute_initializers 1008bd40 f   libucrtd:shared_initialization.obj
 0001:0008ae00       ___acrt_execute_uninitializers 1008be00 f   libucrtd:shared_initialization.obj
 0001:0008ae60       ??$?B$$A6AHI@Z@__crt_fast_encoded_nullptr_t@@QBEP6AHI@ZXZ 1008be60 f i libucrtd:new_handler.obj
 0001:0008ae80       ??$__crt_fast_decode_pointer@P6AHI@Z@@YAP6AHI@ZQ6AHI@Z@Z 1008be80 f i libucrtd:new_handler.obj
 0001:0008aeb0       ??$__crt_fast_encode_pointer@P6AHI@Z@@YAP6AHI@ZQ6AHI@Z@Z 1008beb0 f i libucrtd:new_handler.obj
 0001:0008aee0       ?_set_new_handler@@YAP6AHI@ZH@Z 1008bee0 f   libucrtd:new_handler.obj
 0001:0008af40       ?initialize@?$dual_state_global@P6AHI@Z@__crt_state_management@@QAEXQ6AHI@Z@Z 1008bf40 f i libucrtd:new_handler.obj
 0001:0008af80       ?value@?$dual_state_global@P6AHI@Z@__crt_state_management@@QAEAAP6AHI@ZXZ 1008bf80 f i libucrtd:new_handler.obj
 0001:0008afa0       ___acrt_initialize_new_handler 1008bfa0 f   libucrtd:new_handler.obj
 0001:0008afc0       __callnewh                 1008bfc0 f   libucrtd:new_handler.obj
 0001:0008b010       __query_new_handler        1008c010 f   libucrtd:new_handler.obj
 0001:0008b0a0       __set_new_handler          1008c0a0 f   libucrtd:new_handler.obj
 0001:0008b150       __chvalidator              1008c150 f   libucrtd:isctype.obj
 0001:0008b1a0       __chvalidator_l            1008c1a0 f   libucrtd:isctype.obj
 0001:0008b220       __isctype                  1008c220 f   libucrtd:isctype.obj
 0001:0008b260       __isctype_l                1008c260 f   libucrtd:isctype.obj
 0001:0008b400       __free_base                1008c400 f   libucrtd:free_base.obj
 0001:0008b450       __realloc_base             1008c450 f   libucrtd:realloc_base.obj
 0001:0008b550       __expand                   1008c550 f   libucrtd:expand.obj
 0001:0008b570       __expand_base              1008c570 f   libucrtd:expand.obj
 0001:0008b6a0       ?value@?$dual_state_global@J@__crt_state_management@@QAEAAJXZ 1008c6a0 f i libucrtd:new_mode.obj
 0001:0008b6c0       __query_new_mode           1008c6c0 f   libucrtd:new_mode.obj
 0001:0008b6e0       __set_new_mode             1008c6e0 f   libucrtd:new_mode.obj
 0001:0008b780       __CrtDefaultAllocHook      1008c780 f   libucrtd:debug_heap_hook.obj
 0001:0008b790       __iswctype_l               1008c790 f   libucrtd:iswctype.obj
 0001:0008b7b0       _iswctype                  1008c7b0 f   libucrtd:iswctype.obj
 0001:0008b820       ___acrt_add_locale_ref     1008c820 f   libucrtd:locale_refcounting.obj
 0001:0008b930       ___acrt_free_locale        1008c930 f   libucrtd:locale_refcounting.obj
 0001:0008bc00       ___acrt_locale_add_lc_time_reference 1008cc00 f   libucrtd:locale_refcounting.obj
 0001:0008bc40       ___acrt_locale_free_lc_time_if_unreferenced 1008cc40 f   libucrtd:locale_refcounting.obj
 0001:0008bc90       ___acrt_locale_release_lc_time_reference 1008cc90 f   libucrtd:locale_refcounting.obj
 0001:0008bcc0       ___acrt_release_locale_ref 1008ccc0 f   libucrtd:locale_refcounting.obj
 0001:0008bdd0       ___acrt_update_thread_locale_data 1008cdd0 f   libucrtd:locale_refcounting.obj
 0001:0008beb0       __updatetlocinfoEx_nolock  1008ceb0 f   libucrtd:locale_refcounting.obj
 0001:0008c0b0       ___acrt_fp_strflt_to_string 1008d0b0 f   libucrtd:_fptostr.obj
 0001:0008cab0       ??0big_integer@__crt_strtox@@QAE@ABU01@@Z 1008dab0 f i libucrtd:cfout.obj
 0001:0008caf0       ??0big_integer@__crt_strtox@@QAE@XZ 1008daf0 f i libucrtd:cfout.obj
 0001:0008cc30       ??4big_integer@__crt_strtox@@QAEAAU01@ABU01@@Z 1008dc30 f i libucrtd:cfout.obj
 0001:0008cc70       ??8__crt_strtox@@YA_NABUbig_integer@0@0@Z 1008dc70 f i libucrtd:cfout.obj
 0001:0008ccd0       ??9__crt_strtox@@YA_NABUbig_integer@0@0@Z 1008dcd0 f i libucrtd:cfout.obj
 0001:0008cd10       ?add_carry@__crt_strtox@@YAIAAIII@Z 1008dd10 f i libucrtd:cfout.obj
 0001:0008cd50       ?add_multiply_carry@__crt_strtox@@YAIAAIIII@Z 1008dd50 f i libucrtd:cfout.obj
 0001:0008cd90       ?bit_scan_reverse@__crt_strtox@@YAII@Z 1008dd90 f i libucrtd:cfout.obj
 0001:0008cdc0       ?count_sequential_high_zeroes@__crt_strtox@@YAII@Z 1008ddc0 f i libucrtd:cfout.obj
 0001:0008ce00       ?divide@__crt_strtox@@YA_KAAUbig_integer@1@ABU21@@Z 1008de00 f i libucrtd:cfout.obj
 0001:0008d870       ?is_zero@__crt_strtox@@YA_NABUbig_integer@1@@Z 1008e870 f i libucrtd:cfout.obj
 0001:0008d8a0       ?make_big_integer@__crt_strtox@@YA?AUbig_integer@1@_K@Z 1008e8a0 f i libucrtd:cfout.obj
 0001:0008d950       ?make_big_integer_power_of_two@__crt_strtox@@YA?AUbig_integer@1@I@Z 1008e950 f i libucrtd:cfout.obj
 0001:0008da00       ?multiply@__crt_strtox@@YA_NAAUbig_integer@1@ABU21@@Z 1008ea00 f i libucrtd:cfout.obj
 0001:0008dd80       ?multiply@__crt_strtox@@YA_NAAUbig_integer@1@I@Z 1008ed80 f i libucrtd:cfout.obj
 0001:0008de50       ?multiply_64_32@__crt_strtox@@YA_K_KI@Z 1008ee50 f i libucrtd:cfout.obj
 0001:0008de70       ?multiply_by_power_of_ten@__crt_strtox@@YA_NAAUbig_integer@1@I@Z 1008ee70 f i libucrtd:cfout.obj
 0001:0008e010       ?multiply_core@__crt_strtox@@YAIQAIII@Z 1008f010 f i libucrtd:cfout.obj
 0001:0008e080       ?shift_left@__crt_strtox@@YA_NAAUbig_integer@1@I@Z 1008f080 f i libucrtd:cfout.obj
 0001:0008e360       ___acrt_fltout             1008f360 f   libucrtd:cfout.obj
 0001:0008e780       ??$?RG@__crt_internal_free_policy@@QBEXQBG@Z 1008f780 f i libucrtd:initctype.obj
 0001:0008e7a0       ??$?RJ@__crt_internal_free_policy@@QBEXQBJ@Z 1008f7a0 f i libucrtd:initctype.obj
 0001:0008e7c0       ??0?$__crt_unique_heap_ptr@GU__crt_internal_free_policy@@@@QAE@QAG@Z 1008f7c0 f i libucrtd:initctype.obj
 0001:0008e7e0       ??0?$__crt_unique_heap_ptr@JU__crt_internal_free_policy@@@@QAE@QAJ@Z 1008f7e0 f i libucrtd:initctype.obj
 0001:0008e800       ??1?$__crt_unique_heap_ptr@GU__crt_internal_free_policy@@@@QAE@XZ 1008f800 f i libucrtd:initctype.obj
 0001:0008e820       ??1?$__crt_unique_heap_ptr@JU__crt_internal_free_policy@@@@QAE@XZ 1008f820 f i libucrtd:initctype.obj
 0001:0008e840       ?detach@?$__crt_unique_heap_ptr@GU__crt_internal_free_policy@@@@QAEPAGXZ 1008f840 f i libucrtd:initctype.obj
 0001:0008e870       ?detach@?$__crt_unique_heap_ptr@JU__crt_internal_free_policy@@@@QAEPAJXZ 1008f870 f i libucrtd:initctype.obj
 0001:0008e8a0       ?release@?$__crt_unique_heap_ptr@GU__crt_internal_free_policy@@@@QAEXXZ 1008f8a0 f i libucrtd:initctype.obj
 0001:0008e8d0       ?release@?$__crt_unique_heap_ptr@JU__crt_internal_free_policy@@@@QAEXXZ 1008f8d0 f i libucrtd:initctype.obj
 0001:0008e900       ____lc_codepage_func       1008f900 f   libucrtd:initctype.obj
 0001:0008e940       ____lc_collate_cp_func     1008f940 f   libucrtd:initctype.obj
 0001:0008e980       ____lc_locale_name_func    1008f980 f   libucrtd:initctype.obj
 0001:0008e9c0       ____mb_cur_max_func        1008f9c0 f   libucrtd:initctype.obj
 0001:0008ea00       ____mb_cur_max_l_func      1008fa00 f   libucrtd:initctype.obj
 0001:0008ea30       ___acrt_locale_initialize_ctype 1008fa30 f   libucrtd:initctype.obj
 0001:0008f1b0       ?__c32rtomb_utf8@__crt_mbstring@@YAIPAD_UPAU_Mbstatet@@AAV__crt_cached_ptd_host@@@Z 100901b0 f   libucrtd:c32rtomb.obj
 0001:0008f3a0       _c32rtomb                  100903a0 f   libucrtd:c32rtomb.obj
 0001:0008f450       ?__mbrtowc_utf8@__crt_mbstring@@YAIPA_WPBDIPAU_Mbstatet@@AAV__crt_cached_ptd_host@@@Z 10090450 f   libucrtd:mbrtowc.obj
 0001:0008f4b0       ?__mbsrtowcs_utf8@__crt_mbstring@@YAIPA_WPAPBDIPAU_Mbstatet@@AAV__crt_cached_ptd_host@@@Z 100904b0 f   libucrtd:mbrtowc.obj
 0001:00090060       _btowc                     10091060 f   libucrtd:mbrtowc.obj
 0001:000900f0       _mbrlen                    100910f0 f   libucrtd:mbrtowc.obj
 0001:00090160       _mbrtowc                   10091160 f   libucrtd:mbrtowc.obj
 0001:00090200       _mbsrtowcs                 10091200 f   libucrtd:mbrtowc.obj
 0001:00090240       _mbsrtowcs_s               10091240 f   libucrtd:mbrtowc.obj
 0001:00090290       ?is_in_use@__crt_stdio_stream@@QBE_NXZ 10091290 f i libucrtd:closeall.obj
 0001:000902d0       __fcloseall                100912d0 f   libucrtd:closeall.obj
 0001:00090400       ?has_crt_buffer@__crt_stdio_stream@@QBE_NXZ 10091400 f i libucrtd:_freebuf.obj
 0001:00090420       ___acrt_stdio_free_buffer_nolock 10091420 f   libucrtd:_freebuf.obj
 0001:00090c30       ?has_big_buffer@__crt_stdio_stream@@QBE_NXZ 10091c30 f i libucrtd:_flsbuf.obj
 0001:00090d30       ___acrt_stdio_flush_and_write_narrow_nolock 10091d30 f   libucrtd:_flsbuf.obj
 0001:00090d60       ___acrt_stdio_flush_and_write_wide_nolock 10091d60 f   libucrtd:_flsbuf.obj
 0001:00090d90       __isatty                   10091d90 f   libucrtd:isatty.obj
 0001:00090e60       ??$?RUlconv@@@__crt_internal_free_policy@@QBEXQBUlconv@@@Z 10091e60 f i libucrtd:initmon.obj
 0001:00090e80       ??0?$__crt_unique_heap_ptr@Ulconv@@U__crt_internal_free_policy@@@@QAE@QAUlconv@@@Z 10091e80 f i libucrtd:initmon.obj
 0001:00090ea0       ??1?$__crt_unique_heap_ptr@Ulconv@@U__crt_internal_free_policy@@@@QAE@XZ 10091ea0 f i libucrtd:initmon.obj
 0001:00090ec0       ?detach@?$__crt_unique_heap_ptr@Ulconv@@U__crt_internal_free_policy@@@@QAEPAUlconv@@XZ 10091ec0 f i libucrtd:initmon.obj
 0001:00090ef0       ?release@?$__crt_unique_heap_ptr@Ulconv@@U__crt_internal_free_policy@@@@QAEXXZ 10091ef0 f i libucrtd:initmon.obj
 0001:00090f20       ___acrt_locale_free_monetary 10091f20 f   libucrtd:initmon.obj
 0001:000910d0       ___acrt_locale_initialize_monetary 100920d0 f   libucrtd:initmon.obj
 0001:00091770       ___acrt_locale_free_numeric 10092770 f   libucrtd:initnum.obj
 0001:00091820       ___acrt_locale_initialize_numeric 10092820 f   libucrtd:initnum.obj
 0001:00091c70       ??$?RU__crt_lc_time_data@@@__crt_internal_free_policy@@QBEXQBU__crt_lc_time_data@@@Z 10092c70 f i libucrtd:inittime.obj
 0001:00091d50       ??0?$__crt_unique_heap_ptr@U__crt_lc_time_data@@U__crt_internal_free_policy@@@@QAE@QAU__crt_lc_time_data@@@Z 10092d50 f i libucrtd:inittime.obj
 0001:00091d70       ??1?$__crt_unique_heap_ptr@U__crt_lc_time_data@@U__crt_internal_free_policy@@@@QAE@XZ 10092d70 f i libucrtd:inittime.obj
 0001:00091d90       ??B?$__crt_unique_heap_ptr@U__crt_lc_time_data@@U__crt_internal_free_policy@@@@QBE_NXZ 10092d90 f i libucrtd:inittime.obj
 0001:00091db0       ?detach@?$__crt_unique_heap_ptr@U__crt_lc_time_data@@U__crt_internal_free_policy@@@@QAEPAU__crt_lc_time_data@@XZ 10092db0 f i libucrtd:inittime.obj
 0001:00091e20       ?get@?$__crt_unique_heap_ptr@U__crt_lc_time_data@@U__crt_internal_free_policy@@@@QBEPAU__crt_lc_time_data@@XZ 10092e20 f i libucrtd:inittime.obj
 0001:000922f0       ?is_valid@?$__crt_unique_heap_ptr@U__crt_lc_time_data@@U__crt_internal_free_policy@@@@QBE_NXZ 100932f0 f i libucrtd:inittime.obj
 0001:00092320       ?release@?$__crt_unique_heap_ptr@U__crt_lc_time_data@@U__crt_internal_free_policy@@@@QAEXXZ 10093320 f i libucrtd:inittime.obj
 0001:00092350       ___acrt_locale_free_time   10093350 f   libucrtd:inittime.obj
 0001:000924a0       ___acrt_locale_initialize_time 100934a0 f   libucrtd:inittime.obj
 0001:00092520       ___pctype_func             10093520 f   libucrtd:ctype.obj
 0001:00092560       ___pwctype_func            10093560 f   libucrtd:ctype.obj
 0001:00092570       _wcscmp                    10093570 f   libucrtd:wcscmp.obj
 0001:000925f0       _wcscspn                   100935f0 f   libucrtd:wcscspn.obj
 0001:00092660       _wcspbrk                   10093660 f   libucrtd:wcspbrk.obj
 0001:000926c0       ??0?$__crt_scoped_stack_ptr@_W@@QAE@U?$__crt_scoped_stack_ptr_tag@_W@@@Z 100936c0 f i libucrtd:getstringtypea.obj
 0001:000926e0       ??0?$__crt_scoped_stack_ptr_tag@_W@@QAE@QA_W@Z 100936e0 f i libucrtd:getstringtypea.obj
 0001:00092700       ??1?$__crt_scoped_stack_ptr@_W@@QAE@XZ 10093700 f i libucrtd:getstringtypea.obj
 0001:00092720       ?get@?$__crt_scoped_stack_ptr@_W@@QBEPA_WXZ 10093720 f i libucrtd:getstringtypea.obj
 0001:00092740       __MallocaComputeSize       10093740 f i libucrtd:getstringtypea.obj
 0001:00092770       __MarkAllocaS              10093770 f i libucrtd:getstringtypea.obj
 0001:000927a0       ___acrt_GetStringTypeA     100937a0 f   libucrtd:getstringtypea.obj
 0001:00092960       __freea_crt                10093960 f i libucrtd:getstringtypea.obj
 0001:00093550       ___acrt_get_qualified_locale 10094550 f   libucrtd:get_qualified_locale.obj
 0001:00094570       ___acrt_get_qualified_locale_downlevel 10095570 f   libucrtd:getqloc_downlevel.obj
 0001:00094820       _localeconv                10095820 f   libucrtd:localeconv.obj
 0001:00094860       ??$?RU__crt_lowio_handle_data@@@__crt_internal_free_policy@@QBEXQBU__crt_lowio_handle_data@@@Z 10095860 f i libucrtd:osfinfo.obj
 0001:00094880       ??0?$__crt_unique_heap_ptr@U__crt_lowio_handle_data@@U__crt_internal_free_policy@@@@QAE@QAU__crt_lowio_handle_data@@@Z 10095880 f i libucrtd:osfinfo.obj
 0001:000948a0       ??1?$__crt_unique_heap_ptr@U__crt_lowio_handle_data@@U__crt_internal_free_policy@@@@QAE@XZ 100958a0 f i libucrtd:osfinfo.obj
 0001:000948c0       ??B?$__crt_unique_heap_ptr@U__crt_lowio_handle_data@@U__crt_internal_free_policy@@@@QBE_NXZ 100958c0 f i libucrtd:osfinfo.obj
 0001:000948e0       ?detach@?$__crt_unique_heap_ptr@U__crt_lowio_handle_data@@U__crt_internal_free_policy@@@@QAEPAU__crt_lowio_handle_data@@XZ 100958e0 f i libucrtd:osfinfo.obj
 0001:00094910       ?get@?$__crt_unique_heap_ptr@U__crt_lowio_handle_data@@U__crt_internal_free_policy@@@@QBEPAU__crt_lowio_handle_data@@XZ 10095910 f i libucrtd:osfinfo.obj
 0001:00094930       ?is_valid@?$__crt_unique_heap_ptr@U__crt_lowio_handle_data@@U__crt_internal_free_policy@@@@QBE_NXZ 10095930 f i libucrtd:osfinfo.obj
 0001:00094960       ?release@?$__crt_unique_heap_ptr@U__crt_lowio_handle_data@@U__crt_internal_free_policy@@@@QAEXXZ 10095960 f i libucrtd:osfinfo.obj
 0001:00094990       ___acrt_lowio_create_handle_array 10095990 f   libucrtd:osfinfo.obj
 0001:00094af0       ___acrt_lowio_destroy_handle_array 10095af0 f   libucrtd:osfinfo.obj
 0001:00094b50       ___acrt_lowio_ensure_fh_exists 10095b50 f   libucrtd:osfinfo.obj
 0001:00094cb0       ___acrt_lowio_lock_fh      10095cb0 f   libucrtd:osfinfo.obj
 0001:00094ce0       ___acrt_lowio_set_os_handle 10095ce0 f   libucrtd:osfinfo.obj
 0001:00094db0       ___acrt_lowio_unlock_fh    10095db0 f   libucrtd:osfinfo.obj
 0001:00094de0       __alloc_osfhnd             10095de0 f   libucrtd:osfinfo.obj
 0001:00094fc0       __free_osfhnd              10095fc0 f   libucrtd:osfinfo.obj
 0001:000950b0       __get_osfhandle            100960b0 f   libucrtd:osfinfo.obj
 0001:00095230       __open_osfhandle           10096230 f   libucrtd:osfinfo.obj
 0001:00095540       ___dcrt_lowio_ensure_console_output_initialized 10096540 f   libucrtd:initcon.obj
 0001:00095570       ___dcrt_terminate_console_output 10096570 f   libucrtd:initcon.obj
 0001:000955a0       ___dcrt_write_console      100965a0 f   libucrtd:initcon.obj
 0001:000955d0       ___acrt_OutputDebugStringA@4 100965d0 f   libucrtd:outputdebugstringa.obj
 0001:000958a0       __commit                   100968a0 f   libucrtd:commit.obj
 0001:00096c30       __utf8_no_of_trailbytes    10097c30 f i libucrtd:write.obj
 0001:00096c50       __write                    10097c50 f   libucrtd:write.obj
 0001:00096c90       __write_internal           10097c90 f   libucrtd:write.obj
 0001:00096f30       __write_nolock             10097f30 f   libucrtd:write.obj
 0001:00097b30       __mbstowcs_l               10098b30 f   libucrtd:mbstowcs.obj
 0001:00097b70       __mbstowcs_s_l             10098b70 f   libucrtd:mbstowcs.obj
 0001:00097bc0       _mbstowcs                  10098bc0 f   libucrtd:mbstowcs.obj
 0001:00097c00       _mbstowcs_s                10098c00 f   libucrtd:mbstowcs.obj
 0001:000984f0       __wcstombs_l               100994f0 f   libucrtd:wcstombs.obj
 0001:00098530       __wcstombs_s_l             10099530 f   libucrtd:wcstombs.obj
 0001:00098580       _wcstombs                  10099580 f   libucrtd:wcstombs.obj
 0001:000985c0       _wcstombs_s                100995c0 f   libucrtd:wcstombs.obj
 0001:00098610       ??$__acrt_fenv_shift_bits@W4__acrt_fenv_abstract_control@@@@YA?AW4__acrt_fenv_abstract_control@@W40@0I@Z 10099610 f i libucrtd:_fenvutils.obj
 0001:00098630       ??$__acrt_fenv_shift_bits@W4__acrt_fenv_abstract_status@@@@YA?AW4__acrt_fenv_abstract_status@@W40@0I@Z 10099630 f i libucrtd:_fenvutils.obj
 0001:00098650       ??$__acrt_fenv_translate_bit@W4__acrt_fenv_abstract_control@@W4__acrt_fenv_machine_sse_control@@@@YA?AW4__acrt_fenv_abstract_control@@W4__acrt_fenv_machine_sse_control@@0W40@1@Z 10099650 f i libucrtd:_fenvutils.obj
 0001:00098690       ??$__acrt_fenv_translate_bit@W4__acrt_fenv_abstract_control@@W4__acrt_fenv_machine_x87_control@@@@YA?AW4__acrt_fenv_abstract_control@@W4__acrt_fenv_machine_x87_control@@0W40@1@Z 10099690 f i libucrtd:_fenvutils.obj
 0001:000986d0       ??$__acrt_fenv_translate_bit@W4__acrt_fenv_abstract_status@@W4__acrt_fenv_machine_sse_status@@@@YA?AW4__acrt_fenv_abstract_status@@W4__acrt_fenv_machine_sse_status@@0W40@1@Z 100996d0 f i libucrtd:_fenvutils.obj
 0001:00098710       ??$__acrt_fenv_translate_bit@W4__acrt_fenv_abstract_status@@W4__acrt_fenv_machine_x87_status@@@@YA?AW4__acrt_fenv_abstract_status@@W4__acrt_fenv_machine_x87_status@@0W40@1@Z 10099710 f i libucrtd:_fenvutils.obj
 0001:00098750       ??$__acrt_fenv_translate_bit@W4__acrt_fenv_machine_sse_control@@W4__acrt_fenv_abstract_control@@@@YA?AW4__acrt_fenv_machine_sse_control@@W4__acrt_fenv_abstract_control@@0W40@1@Z 10099750 f i libucrtd:_fenvutils.obj
 0001:00098790       ??$__acrt_fenv_translate_bit@W4__acrt_fenv_machine_sse_status@@W4__acrt_fenv_abstract_status@@@@YA?AW4__acrt_fenv_machine_sse_status@@W4__acrt_fenv_abstract_status@@0W40@1@Z 10099790 f i libucrtd:_fenvutils.obj
 0001:000987d0       ??$__acrt_fenv_translate_bit@W4__acrt_fenv_machine_x87_control@@W4__acrt_fenv_abstract_control@@@@YA?AW4__acrt_fenv_machine_x87_control@@W4__acrt_fenv_abstract_control@@0W40@1@Z 100997d0 f i libucrtd:_fenvutils.obj
 0001:00098810       ??$__acrt_fenv_translate_bit@W4__acrt_fenv_machine_x87_status@@W4__acrt_fenv_abstract_status@@@@YA?AW4__acrt_fenv_machine_x87_status@@W4__acrt_fenv_abstract_status@@0W40@1@Z 10099810 f i libucrtd:_fenvutils.obj
 0001:00098850       ??$__acrt_fenv_unshift_bits@W4__acrt_fenv_abstract_control@@@@YA?AW4__acrt_fenv_abstract_control@@W40@0I@Z 10099850 f i libucrtd:_fenvutils.obj
 0001:00098870       ??$__acrt_fenv_unshift_bits@W4__acrt_fenv_abstract_status@@@@YA?AW4__acrt_fenv_abstract_status@@W40@0I@Z 10099870 f i libucrtd:_fenvutils.obj
 0001:000992a0       ??I@YA?AW4__acrt_fenv_abstract_control@@W40@0@Z 1009a2a0 f i libucrtd:_fenvutils.obj
 0001:000992b0       ??I@YA?AW4__acrt_fenv_abstract_status@@W40@0@Z 1009a2b0 f i libucrtd:_fenvutils.obj
 0001:000992c0       ??I@YA?AW4__acrt_fenv_machine_sse_control@@W40@0@Z 1009a2c0 f i libucrtd:_fenvutils.obj
 0001:000992e0       ??I@YA?AW4__acrt_fenv_machine_sse_status@@W40@0@Z 1009a2e0 f i libucrtd:_fenvutils.obj
 0001:000992f0       ??I@YA?AW4__acrt_fenv_machine_x87_control@@W40@0@Z 1009a2f0 f i libucrtd:_fenvutils.obj
 0001:00099310       ??I@YA?AW4__acrt_fenv_machine_x87_status@@W40@0@Z 1009a310 f i libucrtd:_fenvutils.obj
 0001:00099320       ??U@YA?AW4__acrt_fenv_abstract_control@@W40@0@Z 1009a320 f i libucrtd:_fenvutils.obj
 0001:00099330       ??U@YA?AW4__acrt_fenv_abstract_status@@W40@0@Z 1009a330 f i libucrtd:_fenvutils.obj
 0001:00099340       ??U@YA?AW4__acrt_fenv_machine_sse_control@@W40@0@Z 1009a340 f i libucrtd:_fenvutils.obj
 0001:00099360       ??U@YA?AW4__acrt_fenv_machine_x87_control@@W40@0@Z 1009a360 f i libucrtd:_fenvutils.obj
 0001:00099380       ??_5@YAAAW4__acrt_fenv_abstract_control@@AAW40@W40@@Z 1009a380 f i libucrtd:_fenvutils.obj
 0001:000993a0       ??_5@YAAAW4__acrt_fenv_abstract_status@@AAW40@W40@@Z 1009a3a0 f i libucrtd:_fenvutils.obj
 0001:000993c0       ??_5@YAAAW4__acrt_fenv_machine_sse_control@@AAW40@W40@@Z 1009a3c0 f i libucrtd:_fenvutils.obj
 0001:000993e0       ??_5@YAAAW4__acrt_fenv_machine_sse_status@@AAW40@W40@@Z 1009a3e0 f i libucrtd:_fenvutils.obj
 0001:00099400       ??_5@YAAAW4__acrt_fenv_machine_x87_control@@AAW40@W40@@Z 1009a400 f i libucrtd:_fenvutils.obj
 0001:00099420       ??_5@YAAAW4__acrt_fenv_machine_x87_status@@AAW40@W40@@Z 1009a420 f i libucrtd:_fenvutils.obj
